
test/benchMarkTest:     file format elf64-x86-64


Disassembly of section .init:

00000000000019e8 <_init>:
    19e8:	48 83 ec 08          	sub    $0x8,%rsp
    19ec:	48 8b 05 e5 d5 20 00 	mov    0x20d5e5(%rip),%rax        # 20efd8 <__gmon_start__>
    19f3:	48 85 c0             	test   %rax,%rax
    19f6:	74 02                	je     19fa <_init+0x12>
    19f8:	ff d0                	callq  *%rax
    19fa:	48 83 c4 08          	add    $0x8,%rsp
    19fe:	c3                   	retq   

Disassembly of section .plt:

0000000000001a00 <.plt>:
    1a00:	ff 35 32 d4 20 00    	pushq  0x20d432(%rip)        # 20ee38 <_GLOBAL_OFFSET_TABLE_+0x8>
    1a06:	ff 25 34 d4 20 00    	jmpq   *0x20d434(%rip)        # 20ee40 <_GLOBAL_OFFSET_TABLE_+0x10>
    1a0c:	0f 1f 40 00          	nopl   0x0(%rax)

0000000000001a10 <_Znam@plt>:
    1a10:	ff 25 32 d4 20 00    	jmpq   *0x20d432(%rip)        # 20ee48 <_Znam@GLIBCXX_3.4>
    1a16:	68 00 00 00 00       	pushq  $0x0
    1a1b:	e9 e0 ff ff ff       	jmpq   1a00 <.plt>

0000000000001a20 <_ITM_WU4@plt>:
    1a20:	ff 25 2a d4 20 00    	jmpq   *0x20d42a(%rip)        # 20ee50 <_ITM_WU4@LIBITM_1.0>
    1a26:	68 01 00 00 00       	pushq  $0x1
    1a2b:	e9 d0 ff ff ff       	jmpq   1a00 <.plt>

0000000000001a30 <rand@plt>:
    1a30:	ff 25 22 d4 20 00    	jmpq   *0x20d422(%rip)        # 20ee58 <rand@GLIBC_2.2.5>
    1a36:	68 02 00 00 00       	pushq  $0x2
    1a3b:	e9 c0 ff ff ff       	jmpq   1a00 <.plt>

0000000000001a40 <_ZSt9terminatev@plt>:
    1a40:	ff 25 1a d4 20 00    	jmpq   *0x20d41a(%rip)        # 20ee60 <_ZSt9terminatev@GLIBCXX_3.4>
    1a46:	68 03 00 00 00       	pushq  $0x3
    1a4b:	e9 b0 ff ff ff       	jmpq   1a00 <.plt>

0000000000001a50 <_ZSt17__throw_bad_allocv@plt>:
    1a50:	ff 25 12 d4 20 00    	jmpq   *0x20d412(%rip)        # 20ee68 <_ZSt17__throw_bad_allocv@GLIBCXX_3.4>
    1a56:	68 04 00 00 00       	pushq  $0x4
    1a5b:	e9 a0 ff ff ff       	jmpq   1a00 <.plt>

0000000000001a60 <__cxa_begin_catch@plt>:
    1a60:	ff 25 0a d4 20 00    	jmpq   *0x20d40a(%rip)        # 20ee70 <__cxa_begin_catch@CXXABI_1.3>
    1a66:	68 05 00 00 00       	pushq  $0x5
    1a6b:	e9 90 ff ff ff       	jmpq   1a00 <.plt>

0000000000001a70 <_ZNSt6thread6_StateD2Ev@plt>:
    1a70:	ff 25 02 d4 20 00    	jmpq   *0x20d402(%rip)        # 20ee78 <_ZNSt6thread6_StateD2Ev@GLIBCXX_3.4.22>
    1a76:	68 06 00 00 00       	pushq  $0x6
    1a7b:	e9 80 ff ff ff       	jmpq   1a00 <.plt>

0000000000001a80 <_ITM_RU8@plt>:
    1a80:	ff 25 fa d3 20 00    	jmpq   *0x20d3fa(%rip)        # 20ee80 <_ITM_RU8@LIBITM_1.0>
    1a86:	68 07 00 00 00       	pushq  $0x7
    1a8b:	e9 70 ff ff ff       	jmpq   1a00 <.plt>

0000000000001a90 <__cxa_allocate_exception@plt>:
    1a90:	ff 25 f2 d3 20 00    	jmpq   *0x20d3f2(%rip)        # 20ee88 <__cxa_allocate_exception@CXXABI_1.3>
    1a96:	68 08 00 00 00       	pushq  $0x8
    1a9b:	e9 60 ff ff ff       	jmpq   1a00 <.plt>

0000000000001aa0 <pthread_join@plt>:
    1aa0:	ff 25 ea d3 20 00    	jmpq   *0x20d3ea(%rip)        # 20ee90 <pthread_join@GLIBC_2.2.5>
    1aa6:	68 09 00 00 00       	pushq  $0x9
    1aab:	e9 50 ff ff ff       	jmpq   1a00 <.plt>

0000000000001ab0 <_ZSt20__throw_length_errorPKc@plt>:
    1ab0:	ff 25 e2 d3 20 00    	jmpq   *0x20d3e2(%rip)        # 20ee98 <_ZSt20__throw_length_errorPKc@GLIBCXX_3.4>
    1ab6:	68 0a 00 00 00       	pushq  $0xa
    1abb:	e9 40 ff ff ff       	jmpq   1a00 <.plt>

0000000000001ac0 <_ZSt20__throw_system_errori@plt>:
    1ac0:	ff 25 da d3 20 00    	jmpq   *0x20d3da(%rip)        # 20eea0 <_ZSt20__throw_system_errori@GLIBCXX_3.4.11>
    1ac6:	68 0b 00 00 00       	pushq  $0xb
    1acb:	e9 30 ff ff ff       	jmpq   1a00 <.plt>

0000000000001ad0 <_ITM_commitTransaction@plt>:
    1ad0:	ff 25 d2 d3 20 00    	jmpq   *0x20d3d2(%rip)        # 20eea8 <_ITM_commitTransaction@LIBITM_1.0>
    1ad6:	68 0c 00 00 00       	pushq  $0xc
    1adb:	e9 20 ff ff ff       	jmpq   1a00 <.plt>

0000000000001ae0 <pthread_mutex_unlock@plt>:
    1ae0:	ff 25 ca d3 20 00    	jmpq   *0x20d3ca(%rip)        # 20eeb0 <pthread_mutex_unlock@GLIBC_2.2.5>
    1ae6:	68 0d 00 00 00       	pushq  $0xd
    1aeb:	e9 10 ff ff ff       	jmpq   1a00 <.plt>

0000000000001af0 <pthread_rwlock_wrlock@plt>:
    1af0:	ff 25 c2 d3 20 00    	jmpq   *0x20d3c2(%rip)        # 20eeb8 <pthread_rwlock_wrlock@GLIBC_2.2.5>
    1af6:	68 0e 00 00 00       	pushq  $0xe
    1afb:	e9 00 ff ff ff       	jmpq   1a00 <.plt>

0000000000001b00 <_ITM_WU8@plt>:
    1b00:	ff 25 ba d3 20 00    	jmpq   *0x20d3ba(%rip)        # 20eec0 <_ITM_WU8@LIBITM_1.0>
    1b06:	68 0f 00 00 00       	pushq  $0xf
    1b0b:	e9 f0 fe ff ff       	jmpq   1a00 <.plt>

0000000000001b10 <__cxa_atexit@plt>:
    1b10:	ff 25 b2 d3 20 00    	jmpq   *0x20d3b2(%rip)        # 20eec8 <__cxa_atexit@GLIBC_2.2.5>
    1b16:	68 10 00 00 00       	pushq  $0x10
    1b1b:	e9 e0 fe ff ff       	jmpq   1a00 <.plt>

0000000000001b20 <_ZNSt6thread15_M_start_threadESt10unique_ptrINS_6_StateESt14default_deleteIS1_EEPFvvE@plt>:
    1b20:	ff 25 aa d3 20 00    	jmpq   *0x20d3aa(%rip)        # 20eed0 <_ZNSt6thread15_M_start_threadESt10unique_ptrINS_6_StateESt14default_deleteIS1_EEPFvvE@GLIBCXX_3.4.22>
    1b26:	68 11 00 00 00       	pushq  $0x11
    1b2b:	e9 d0 fe ff ff       	jmpq   1a00 <.plt>

0000000000001b30 <clock_gettime@plt>:
    1b30:	ff 25 a2 d3 20 00    	jmpq   *0x20d3a2(%rip)        # 20eed8 <clock_gettime@GLIBC_2.17>
    1b36:	68 12 00 00 00       	pushq  $0x12
    1b3b:	e9 c0 fe ff ff       	jmpq   1a00 <.plt>

0000000000001b40 <_ZdlPv@plt>:
    1b40:	ff 25 9a d3 20 00    	jmpq   *0x20d39a(%rip)        # 20eee0 <_ZdlPv@GLIBCXX_3.4>
    1b46:	68 13 00 00 00       	pushq  $0x13
    1b4b:	e9 b0 fe ff ff       	jmpq   1a00 <.plt>

0000000000001b50 <_ZStlsISt11char_traitsIcEERSt13basic_ostreamIcT_ES5_PKc@plt>:
    1b50:	ff 25 92 d3 20 00    	jmpq   *0x20d392(%rip)        # 20eee8 <_ZStlsISt11char_traitsIcEERSt13basic_ostreamIcT_ES5_PKc@GLIBCXX_3.4>
    1b56:	68 14 00 00 00       	pushq  $0x14
    1b5b:	e9 a0 fe ff ff       	jmpq   1a00 <.plt>

0000000000001b60 <_Znwm@plt>:
    1b60:	ff 25 8a d3 20 00    	jmpq   *0x20d38a(%rip)        # 20eef0 <_Znwm@GLIBCXX_3.4>
    1b66:	68 15 00 00 00       	pushq  $0x15
    1b6b:	e9 90 fe ff ff       	jmpq   1a00 <.plt>

0000000000001b70 <_ZdlPvm@plt>:
    1b70:	ff 25 82 d3 20 00    	jmpq   *0x20d382(%rip)        # 20eef8 <_ZdlPvm@CXXABI_1.3.9>
    1b76:	68 16 00 00 00       	pushq  $0x16
    1b7b:	e9 80 fe ff ff       	jmpq   1a00 <.plt>

0000000000001b80 <_ZNSolsEPFRSoS_E@plt>:
    1b80:	ff 25 7a d3 20 00    	jmpq   *0x20d37a(%rip)        # 20ef00 <_ZNSolsEPFRSoS_E@GLIBCXX_3.4>
    1b86:	68 17 00 00 00       	pushq  $0x17
    1b8b:	e9 70 fe ff ff       	jmpq   1a00 <.plt>

0000000000001b90 <__stack_chk_fail@plt>:
    1b90:	ff 25 72 d3 20 00    	jmpq   *0x20d372(%rip)        # 20ef08 <__stack_chk_fail@GLIBC_2.4>
    1b96:	68 18 00 00 00       	pushq  $0x18
    1b9b:	e9 60 fe ff ff       	jmpq   1a00 <.plt>

0000000000001ba0 <_ZdaPv@plt>:
    1ba0:	ff 25 6a d3 20 00    	jmpq   *0x20d36a(%rip)        # 20ef10 <_ZdaPv@GLIBCXX_3.4>
    1ba6:	68 19 00 00 00       	pushq  $0x19
    1bab:	e9 50 fe ff ff       	jmpq   1a00 <.plt>

0000000000001bb0 <pthread_rwlock_rdlock@plt>:
    1bb0:	ff 25 62 d3 20 00    	jmpq   *0x20d362(%rip)        # 20ef18 <pthread_rwlock_rdlock@GLIBC_2.2.5>
    1bb6:	68 1a 00 00 00       	pushq  $0x1a
    1bbb:	e9 40 fe ff ff       	jmpq   1a00 <.plt>

0000000000001bc0 <__cxa_throw_bad_array_new_length@plt>:
    1bc0:	ff 25 5a d3 20 00    	jmpq   *0x20d35a(%rip)        # 20ef20 <__cxa_throw_bad_array_new_length@CXXABI_1.3.8>
    1bc6:	68 1b 00 00 00       	pushq  $0x1b
    1bcb:	e9 30 fe ff ff       	jmpq   1a00 <.plt>

0000000000001bd0 <_ITM_RU4@plt>:
    1bd0:	ff 25 52 d3 20 00    	jmpq   *0x20d352(%rip)        # 20ef28 <_ITM_RU4@LIBITM_1.0>
    1bd6:	68 1c 00 00 00       	pushq  $0x1c
    1bdb:	e9 20 fe ff ff       	jmpq   1a00 <.plt>

0000000000001be0 <pthread_mutex_lock@plt>:
    1be0:	ff 25 4a d3 20 00    	jmpq   *0x20d34a(%rip)        # 20ef30 <pthread_mutex_lock@GLIBC_2.2.5>
    1be6:	68 1d 00 00 00       	pushq  $0x1d
    1beb:	e9 10 fe ff ff       	jmpq   1a00 <.plt>

0000000000001bf0 <_ZNSt8ios_base4InitC1Ev@plt>:
    1bf0:	ff 25 42 d3 20 00    	jmpq   *0x20d342(%rip)        # 20ef38 <_ZNSt8ios_base4InitC1Ev@GLIBCXX_3.4>
    1bf6:	68 1e 00 00 00       	pushq  $0x1e
    1bfb:	e9 00 fe ff ff       	jmpq   1a00 <.plt>

0000000000001c00 <memmove@plt>:
    1c00:	ff 25 3a d3 20 00    	jmpq   *0x20d33a(%rip)        # 20ef40 <memmove@GLIBC_2.2.5>
    1c06:	68 1f 00 00 00       	pushq  $0x1f
    1c0b:	e9 f0 fd ff ff       	jmpq   1a00 <.plt>

0000000000001c10 <pthread_rwlock_unlock@plt>:
    1c10:	ff 25 32 d3 20 00    	jmpq   *0x20d332(%rip)        # 20ef48 <pthread_rwlock_unlock@GLIBC_2.2.5>
    1c16:	68 20 00 00 00       	pushq  $0x20
    1c1b:	e9 e0 fd ff ff       	jmpq   1a00 <.plt>

0000000000001c20 <__cxa_end_catch@plt>:
    1c20:	ff 25 2a d3 20 00    	jmpq   *0x20d32a(%rip)        # 20ef50 <__cxa_end_catch@CXXABI_1.3>
    1c26:	68 21 00 00 00       	pushq  $0x21
    1c2b:	e9 d0 fd ff ff       	jmpq   1a00 <.plt>

0000000000001c30 <_ZNSt6thread4joinEv@plt>:
    1c30:	ff 25 22 d3 20 00    	jmpq   *0x20d322(%rip)        # 20ef58 <_ZNSt6thread4joinEv@GLIBCXX_3.4.11>
    1c36:	68 22 00 00 00       	pushq  $0x22
    1c3b:	e9 c0 fd ff ff       	jmpq   1a00 <.plt>

0000000000001c40 <__cxa_throw@plt>:
    1c40:	ff 25 1a d3 20 00    	jmpq   *0x20d31a(%rip)        # 20ef60 <__cxa_throw@CXXABI_1.3>
    1c46:	68 23 00 00 00       	pushq  $0x23
    1c4b:	e9 b0 fd ff ff       	jmpq   1a00 <.plt>

0000000000001c50 <_ZNSolsEi@plt>:
    1c50:	ff 25 12 d3 20 00    	jmpq   *0x20d312(%rip)        # 20ef68 <_ZNSolsEi@GLIBCXX_3.4>
    1c56:	68 24 00 00 00       	pushq  $0x24
    1c5b:	e9 a0 fd ff ff       	jmpq   1a00 <.plt>

0000000000001c60 <_Unwind_Resume@plt>:
    1c60:	ff 25 0a d3 20 00    	jmpq   *0x20d30a(%rip)        # 20ef70 <_Unwind_Resume@GCC_3.0>
    1c66:	68 25 00 00 00       	pushq  $0x25
    1c6b:	e9 90 fd ff ff       	jmpq   1a00 <.plt>

0000000000001c70 <_ZNSolsEl@plt>:
    1c70:	ff 25 02 d3 20 00    	jmpq   *0x20d302(%rip)        # 20ef78 <_ZNSolsEl@GLIBCXX_3.4>
    1c76:	68 26 00 00 00       	pushq  $0x26
    1c7b:	e9 80 fd ff ff       	jmpq   1a00 <.plt>

0000000000001c80 <get_nprocs_conf@plt>:
    1c80:	ff 25 fa d2 20 00    	jmpq   *0x20d2fa(%rip)        # 20ef80 <get_nprocs_conf@GLIBC_2.2.5>
    1c86:	68 27 00 00 00       	pushq  $0x27
    1c8b:	e9 70 fd ff ff       	jmpq   1a00 <.plt>

0000000000001c90 <_ZNSt9exceptionD2Ev@plt>:
    1c90:	ff 25 f2 d2 20 00    	jmpq   *0x20d2f2(%rip)        # 20ef88 <_ZNSt9exceptionD2Ev@GLIBCXX_3.4>
    1c96:	68 28 00 00 00       	pushq  $0x28
    1c9b:	e9 60 fd ff ff       	jmpq   1a00 <.plt>

0000000000001ca0 <_ITM_beginTransaction@plt>:
    1ca0:	ff 25 ea d2 20 00    	jmpq   *0x20d2ea(%rip)        # 20ef90 <_ITM_beginTransaction@LIBITM_1.0>
    1ca6:	68 29 00 00 00       	pushq  $0x29
    1cab:	e9 50 fd ff ff       	jmpq   1a00 <.plt>

0000000000001cb0 <_ZdaPvm@plt>:
    1cb0:	ff 25 e2 d2 20 00    	jmpq   *0x20d2e2(%rip)        # 20ef98 <_ZdaPvm@CXXABI_1.3.9>
    1cb6:	68 2a 00 00 00       	pushq  $0x2a
    1cbb:	e9 40 fd ff ff       	jmpq   1a00 <.plt>

Disassembly of section .plt.got:

0000000000001cc0 <__cxa_finalize@plt>:
    1cc0:	ff 25 da d2 20 00    	jmpq   *0x20d2da(%rip)        # 20efa0 <__cxa_finalize@GLIBC_2.2.5>
    1cc6:	66 90                	xchg   %ax,%ax

0000000000001cc8 <pthread_create@plt>:
    1cc8:	ff 25 ea d2 20 00    	jmpq   *0x20d2ea(%rip)        # 20efb8 <pthread_create@GLIBC_2.2.5>
    1cce:	66 90                	xchg   %ax,%ax

Disassembly of section .text:

0000000000001cd0 <_start>:
    1cd0:	31 ed                	xor    %ebp,%ebp
    1cd2:	49 89 d1             	mov    %rdx,%r9
    1cd5:	5e                   	pop    %rsi
    1cd6:	48 89 e2             	mov    %rsp,%rdx
    1cd9:	48 83 e4 f0          	and    $0xfffffffffffffff0,%rsp
    1cdd:	50                   	push   %rax
    1cde:	54                   	push   %rsp
    1cdf:	4c 8d 05 0a 7f 00 00 	lea    0x7f0a(%rip),%r8        # 9bf0 <__libc_csu_fini>
    1ce6:	48 8d 0d 93 7e 00 00 	lea    0x7e93(%rip),%rcx        # 9b80 <__libc_csu_init>
    1ced:	48 8d 3d 99 1e 00 00 	lea    0x1e99(%rip),%rdi        # 3b8d <main>
    1cf4:	ff 15 d6 d2 20 00    	callq  *0x20d2d6(%rip)        # 20efd0 <__libc_start_main@GLIBC_2.2.5>
    1cfa:	f4                   	hlt    
    1cfb:	0f 1f 44 00 00       	nopl   0x0(%rax,%rax,1)

0000000000001d00 <deregister_tm_clones>:
    1d00:	48 8d 3d 21 d3 20 00 	lea    0x20d321(%rip),%rdi        # 20f028 <__TMC_LIST__>
    1d07:	48 8d 05 0a d4 20 00 	lea    0x20d40a(%rip),%rax        # 20f118 <__TMC_END__>
    1d0e:	48 39 f8             	cmp    %rdi,%rax
    1d11:	74 15                	je     1d28 <deregister_tm_clones+0x28>
    1d13:	48 8b 05 96 d2 20 00 	mov    0x20d296(%rip),%rax        # 20efb0 <_ITM_deregisterTMCloneTable@LIBITM_1.0>
    1d1a:	48 85 c0             	test   %rax,%rax
    1d1d:	74 09                	je     1d28 <deregister_tm_clones+0x28>
    1d1f:	ff e0                	jmpq   *%rax
    1d21:	0f 1f 80 00 00 00 00 	nopl   0x0(%rax)
    1d28:	c3                   	retq   
    1d29:	0f 1f 80 00 00 00 00 	nopl   0x0(%rax)

0000000000001d30 <register_tm_clones>:
    1d30:	48 8d 3d f1 d2 20 00 	lea    0x20d2f1(%rip),%rdi        # 20f028 <__TMC_LIST__>
    1d37:	48 8d 35 da d3 20 00 	lea    0x20d3da(%rip),%rsi        # 20f118 <__TMC_END__>
    1d3e:	48 29 fe             	sub    %rdi,%rsi
    1d41:	48 89 f0             	mov    %rsi,%rax
    1d44:	48 c1 ee 3f          	shr    $0x3f,%rsi
    1d48:	48 c1 f8 03          	sar    $0x3,%rax
    1d4c:	48 01 c6             	add    %rax,%rsi
    1d4f:	48 d1 fe             	sar    %rsi
    1d52:	74 14                	je     1d68 <register_tm_clones+0x38>
    1d54:	48 8b 05 65 d2 20 00 	mov    0x20d265(%rip),%rax        # 20efc0 <_ITM_registerTMCloneTable@LIBITM_1.0>
    1d5b:	48 85 c0             	test   %rax,%rax
    1d5e:	74 08                	je     1d68 <register_tm_clones+0x38>
    1d60:	ff e0                	jmpq   *%rax
    1d62:	66 0f 1f 44 00 00    	nopw   0x0(%rax,%rax,1)
    1d68:	c3                   	retq   
    1d69:	0f 1f 80 00 00 00 00 	nopl   0x0(%rax)

0000000000001d70 <__do_global_dtors_aux>:
    1d70:	80 3d b9 d4 20 00 00 	cmpb   $0x0,0x20d4b9(%rip)        # 20f230 <completed.8086>
    1d77:	75 2f                	jne    1da8 <__do_global_dtors_aux+0x38>
    1d79:	55                   	push   %rbp
    1d7a:	48 83 3d 1e d2 20 00 	cmpq   $0x0,0x20d21e(%rip)        # 20efa0 <__cxa_finalize@GLIBC_2.2.5>
    1d81:	00 
    1d82:	48 89 e5             	mov    %rsp,%rbp
    1d85:	74 0c                	je     1d93 <__do_global_dtors_aux+0x23>
    1d87:	48 8b 3d 7a d2 20 00 	mov    0x20d27a(%rip),%rdi        # 20f008 <__dso_handle>
    1d8e:	e8 2d ff ff ff       	callq  1cc0 <__cxa_finalize@plt>
    1d93:	e8 68 ff ff ff       	callq  1d00 <deregister_tm_clones>
    1d98:	c6 05 91 d4 20 00 01 	movb   $0x1,0x20d491(%rip)        # 20f230 <completed.8086>
    1d9f:	5d                   	pop    %rbp
    1da0:	c3                   	retq   
    1da1:	0f 1f 80 00 00 00 00 	nopl   0x0(%rax)
    1da8:	c3                   	retq   
    1da9:	0f 1f 80 00 00 00 00 	nopl   0x0(%rax)

0000000000001db0 <frame_dummy>:
    1db0:	e9 7b ff ff ff       	jmpq   1d30 <register_tm_clones>
    1db5:	90                   	nop

0000000000001db6 <_ZL18__gthread_active_pv>:
    1db6:	55                   	push   %rbp
    1db7:	48 89 e5             	mov    %rsp,%rbp
    1dba:	ba 01 00 00 00       	mov    $0x1,%edx
    1dbf:	48 8b 05 02 d2 20 00 	mov    0x20d202(%rip),%rax        # 20efc8 <__pthread_key_create@GLIBC_2.2.5>
    1dc6:	48 85 c0             	test   %rax,%rax
    1dc9:	75 05                	jne    1dd0 <_ZL18__gthread_active_pv+0x1a>
    1dcb:	ba 00 00 00 00       	mov    $0x0,%edx
    1dd0:	0f b6 c2             	movzbl %dl,%eax
    1dd3:	5d                   	pop    %rbp
    1dd4:	c3                   	retq   

0000000000001dd5 <_Z9mapDeletePv>:
    1dd5:	55                   	push   %rbp
    1dd6:	48 89 e5             	mov    %rsp,%rbp
    1dd9:	48 83 ec 40          	sub    $0x40,%rsp
    1ddd:	48 89 7d c8          	mov    %rdi,-0x38(%rbp)
    1de1:	64 48 8b 04 25 28 00 	mov    %fs:0x28,%rax
    1de8:	00 00 
    1dea:	48 89 45 f8          	mov    %rax,-0x8(%rbp)
    1dee:	31 c0                	xor    %eax,%eax
    1df0:	48 8b 45 c8          	mov    -0x38(%rbp),%rax
    1df4:	48 89 45 e8          	mov    %rax,-0x18(%rbp)
    1df8:	48 8b 45 e8          	mov    -0x18(%rbp),%rax
    1dfc:	48 83 c0 08          	add    $0x8,%rax
    1e00:	48 89 45 f0          	mov    %rax,-0x10(%rbp)
    1e04:	48 8b 45 f0          	mov    -0x10(%rbp),%rax
    1e08:	48 89 c7             	mov    %rax,%rdi
    1e0b:	e8 a4 2c 00 00       	callq  4ab4 <_ZNSt6vectorIiSaIiEE5beginEv>
    1e10:	48 89 45 d8          	mov    %rax,-0x28(%rbp)
    1e14:	48 8b 45 f0          	mov    -0x10(%rbp),%rax
    1e18:	48 89 c7             	mov    %rax,%rdi
    1e1b:	e8 dc 2c 00 00       	callq  4afc <_ZNSt6vectorIiSaIiEE3endEv>
    1e20:	48 89 45 e0          	mov    %rax,-0x20(%rbp)
    1e24:	48 8d 55 e0          	lea    -0x20(%rbp),%rdx
    1e28:	48 8d 45 d8          	lea    -0x28(%rbp),%rax
    1e2c:	48 89 d6             	mov    %rdx,%rsi
    1e2f:	48 89 c7             	mov    %rax,%rdi
    1e32:	e8 11 2d 00 00       	callq  4b48 <_ZN9__gnu_cxxneIPiSt6vectorIiSaIiEEEEbRKNS_17__normal_iteratorIT_T0_EESA_>
    1e37:	84 c0                	test   %al,%al
    1e39:	74 33                	je     1e6e <_Z9mapDeletePv+0x99>
    1e3b:	48 8d 45 d8          	lea    -0x28(%rbp),%rax
    1e3f:	48 89 c7             	mov    %rax,%rdi
    1e42:	e8 5d 2d 00 00       	callq  4ba4 <_ZNK9__gnu_cxx17__normal_iteratorIPiSt6vectorIiSaIiEEEdeEv>
    1e47:	8b 00                	mov    (%rax),%eax
    1e49:	89 45 d4             	mov    %eax,-0x2c(%rbp)
    1e4c:	48 8b 45 e8          	mov    -0x18(%rbp),%rax
    1e50:	48 8b 00             	mov    (%rax),%rax
    1e53:	8b 55 d4             	mov    -0x2c(%rbp),%edx
    1e56:	89 d6                	mov    %edx,%esi
    1e58:	48 89 c7             	mov    %rax,%rdi
    1e5b:	e8 56 2d 00 00       	callq  4bb6 <_ZN9HashTableIiiE6removeEi>
    1e60:	48 8d 45 d8          	lea    -0x28(%rbp),%rax
    1e64:	48 89 c7             	mov    %rax,%rdi
    1e67:	e8 18 2d 00 00       	callq  4b84 <_ZN9__gnu_cxx17__normal_iteratorIPiSt6vectorIiSaIiEEEppEv>
    1e6c:	eb b6                	jmp    1e24 <_Z9mapDeletePv+0x4f>
    1e6e:	90                   	nop
    1e6f:	48 8b 45 f8          	mov    -0x8(%rbp),%rax
    1e73:	64 48 33 04 25 28 00 	xor    %fs:0x28,%rax
    1e7a:	00 00 
    1e7c:	74 05                	je     1e83 <_Z9mapDeletePv+0xae>
    1e7e:	e8 0d fd ff ff       	callq  1b90 <__stack_chk_fail@plt>
    1e83:	c9                   	leaveq 
    1e84:	c3                   	retq   

0000000000001e85 <_Z8mapWritePv>:
    1e85:	55                   	push   %rbp
    1e86:	48 89 e5             	mov    %rsp,%rbp
    1e89:	48 83 ec 40          	sub    $0x40,%rsp
    1e8d:	48 89 7d c8          	mov    %rdi,-0x38(%rbp)
    1e91:	64 48 8b 04 25 28 00 	mov    %fs:0x28,%rax
    1e98:	00 00 
    1e9a:	48 89 45 f8          	mov    %rax,-0x8(%rbp)
    1e9e:	31 c0                	xor    %eax,%eax
    1ea0:	48 8b 45 c8          	mov    -0x38(%rbp),%rax
    1ea4:	48 89 45 e0          	mov    %rax,-0x20(%rbp)
    1ea8:	48 8b 45 e0          	mov    -0x20(%rbp),%rax
    1eac:	48 83 c0 08          	add    $0x8,%rax
    1eb0:	48 89 45 e8          	mov    %rax,-0x18(%rbp)
    1eb4:	48 8b 45 e8          	mov    -0x18(%rbp),%rax
    1eb8:	48 89 c7             	mov    %rax,%rdi
    1ebb:	e8 ce 2f 00 00       	callq  4e8e <_ZNSt6vectorISt4pairIiiESaIS1_EE5beginEv>
    1ec0:	48 89 45 d0          	mov    %rax,-0x30(%rbp)
    1ec4:	48 8b 45 e8          	mov    -0x18(%rbp),%rax
    1ec8:	48 89 c7             	mov    %rax,%rdi
    1ecb:	e8 06 30 00 00       	callq  4ed6 <_ZNSt6vectorISt4pairIiiESaIS1_EE3endEv>
    1ed0:	48 89 45 d8          	mov    %rax,-0x28(%rbp)
    1ed4:	48 8d 55 d8          	lea    -0x28(%rbp),%rdx
    1ed8:	48 8d 45 d0          	lea    -0x30(%rbp),%rax
    1edc:	48 89 d6             	mov    %rdx,%rsi
    1edf:	48 89 c7             	mov    %rax,%rdi
    1ee2:	e8 3b 30 00 00       	callq  4f22 <_ZN9__gnu_cxxneIPSt4pairIiiESt6vectorIS2_SaIS2_EEEEbRKNS_17__normal_iteratorIT_T0_EESC_>
    1ee7:	84 c0                	test   %al,%al
    1ee9:	74 38                	je     1f23 <_Z8mapWritePv+0x9e>
    1eeb:	48 8d 45 d0          	lea    -0x30(%rbp),%rax
    1eef:	48 89 c7             	mov    %rax,%rdi
    1ef2:	e8 87 30 00 00       	callq  4f7e <_ZNK9__gnu_cxx17__normal_iteratorIPSt4pairIiiESt6vectorIS2_SaIS2_EEEdeEv>
    1ef7:	48 8b 00             	mov    (%rax),%rax
    1efa:	48 89 45 f0          	mov    %rax,-0x10(%rbp)
    1efe:	48 8b 45 e0          	mov    -0x20(%rbp),%rax
    1f02:	48 8b 00             	mov    (%rax),%rax
    1f05:	8b 55 f4             	mov    -0xc(%rbp),%edx
    1f08:	8b 4d f0             	mov    -0x10(%rbp),%ecx
    1f0b:	89 ce                	mov    %ecx,%esi
    1f0d:	48 89 c7             	mov    %rax,%rdi
    1f10:	e8 7b 30 00 00       	callq  4f90 <_ZN9HashTableIiiE5writeEii>
    1f15:	48 8d 45 d0          	lea    -0x30(%rbp),%rax
    1f19:	48 89 c7             	mov    %rax,%rdi
    1f1c:	e8 3d 30 00 00       	callq  4f5e <_ZN9__gnu_cxx17__normal_iteratorIPSt4pairIiiESt6vectorIS2_SaIS2_EEEppEv>
    1f21:	eb b1                	jmp    1ed4 <_Z8mapWritePv+0x4f>
    1f23:	90                   	nop
    1f24:	48 8b 45 f8          	mov    -0x8(%rbp),%rax
    1f28:	64 48 33 04 25 28 00 	xor    %fs:0x28,%rax
    1f2f:	00 00 
    1f31:	74 05                	je     1f38 <_Z8mapWritePv+0xb3>
    1f33:	e8 58 fc ff ff       	callq  1b90 <__stack_chk_fail@plt>
    1f38:	c9                   	leaveq 
    1f39:	c3                   	retq   

0000000000001f3a <_Z7mapReadPv>:
    1f3a:	55                   	push   %rbp
    1f3b:	48 89 e5             	mov    %rsp,%rbp
    1f3e:	48 83 ec 50          	sub    $0x50,%rsp
    1f42:	48 89 7d b8          	mov    %rdi,-0x48(%rbp)
    1f46:	64 48 8b 04 25 28 00 	mov    %fs:0x28,%rax
    1f4d:	00 00 
    1f4f:	48 89 45 f8          	mov    %rax,-0x8(%rbp)
    1f53:	31 c0                	xor    %eax,%eax
    1f55:	48 8b 45 b8          	mov    -0x48(%rbp),%rax
    1f59:	48 89 45 e0          	mov    %rax,-0x20(%rbp)
    1f5d:	48 8b 45 e0          	mov    -0x20(%rbp),%rax
    1f61:	48 83 c0 08          	add    $0x8,%rax
    1f65:	48 89 45 e8          	mov    %rax,-0x18(%rbp)
    1f69:	48 8b 45 e8          	mov    -0x18(%rbp),%rax
    1f6d:	48 89 c7             	mov    %rax,%rdi
    1f70:	e8 3f 2b 00 00       	callq  4ab4 <_ZNSt6vectorIiSaIiEE5beginEv>
    1f75:	48 89 45 d0          	mov    %rax,-0x30(%rbp)
    1f79:	48 8b 45 e8          	mov    -0x18(%rbp),%rax
    1f7d:	48 89 c7             	mov    %rax,%rdi
    1f80:	e8 77 2b 00 00       	callq  4afc <_ZNSt6vectorIiSaIiEE3endEv>
    1f85:	48 89 45 d8          	mov    %rax,-0x28(%rbp)
    1f89:	48 8d 55 d8          	lea    -0x28(%rbp),%rdx
    1f8d:	48 8d 45 d0          	lea    -0x30(%rbp),%rax
    1f91:	48 89 d6             	mov    %rdx,%rsi
    1f94:	48 89 c7             	mov    %rax,%rdi
    1f97:	e8 ac 2b 00 00       	callq  4b48 <_ZN9__gnu_cxxneIPiSt6vectorIiSaIiEEEEbRKNS_17__normal_iteratorIT_T0_EESA_>
    1f9c:	84 c0                	test   %al,%al
    1f9e:	74 54                	je     1ff4 <_Z7mapReadPv+0xba>
    1fa0:	48 8d 45 d0          	lea    -0x30(%rbp),%rax
    1fa4:	48 89 c7             	mov    %rax,%rdi
    1fa7:	e8 f8 2b 00 00       	callq  4ba4 <_ZNK9__gnu_cxx17__normal_iteratorIPiSt6vectorIiSaIiEEEdeEv>
    1fac:	8b 00                	mov    (%rax),%eax
    1fae:	89 45 cc             	mov    %eax,-0x34(%rbp)
    1fb1:	48 8b 45 e0          	mov    -0x20(%rbp),%rax
    1fb5:	48 8b 00             	mov    (%rax),%rax
    1fb8:	8b 55 cc             	mov    -0x34(%rbp),%edx
    1fbb:	89 d6                	mov    %edx,%esi
    1fbd:	48 89 c7             	mov    %rax,%rdi
    1fc0:	e8 03 34 00 00       	callq  53c8 <_ZN9HashTableIiiE4readEi>
    1fc5:	48 8d 45 d0          	lea    -0x30(%rbp),%rax
    1fc9:	48 89 c7             	mov    %rax,%rdi
    1fcc:	e8 b3 2b 00 00       	callq  4b84 <_ZN9__gnu_cxx17__normal_iteratorIPiSt6vectorIiSaIiEEEppEv>
    1fd1:	eb b6                	jmp    1f89 <_Z7mapReadPv+0x4f>
    1fd3:	48 83 fa 01          	cmp    $0x1,%rdx
    1fd7:	74 08                	je     1fe1 <_Z7mapReadPv+0xa7>
    1fd9:	48 89 c7             	mov    %rax,%rdi
    1fdc:	e8 7f fc ff ff       	callq  1c60 <_Unwind_Resume@plt>
    1fe1:	48 89 c7             	mov    %rax,%rdi
    1fe4:	e8 77 fa ff ff       	callq  1a60 <__cxa_begin_catch@plt>
    1fe9:	48 89 45 f0          	mov    %rax,-0x10(%rbp)
    1fed:	e8 2e fc ff ff       	callq  1c20 <__cxa_end_catch@plt>
    1ff2:	eb d1                	jmp    1fc5 <_Z7mapReadPv+0x8b>
    1ff4:	90                   	nop
    1ff5:	48 8b 45 f8          	mov    -0x8(%rbp),%rax
    1ff9:	64 48 33 04 25 28 00 	xor    %fs:0x28,%rax
    2000:	00 00 
    2002:	74 05                	je     2009 <_Z7mapReadPv+0xcf>
    2004:	e8 87 fb ff ff       	callq  1b90 <__stack_chk_fail@plt>
    2009:	c9                   	leaveq 
    200a:	c3                   	retq   

000000000000200b <_Z10all_in_onePv>:
    200b:	55                   	push   %rbp
    200c:	48 89 e5             	mov    %rsp,%rbp
    200f:	48 83 ec 60          	sub    $0x60,%rsp
    2013:	48 89 7d a8          	mov    %rdi,-0x58(%rbp)
    2017:	64 48 8b 04 25 28 00 	mov    %fs:0x28,%rax
    201e:	00 00 
    2020:	48 89 45 f8          	mov    %rax,-0x8(%rbp)
    2024:	31 c0                	xor    %eax,%eax
    2026:	48 8b 45 a8          	mov    -0x58(%rbp),%rax
    202a:	48 89 45 c8          	mov    %rax,-0x38(%rbp)
    202e:	48 8b 45 c8          	mov    -0x38(%rbp),%rax
    2032:	48 83 c0 08          	add    $0x8,%rax
    2036:	48 89 45 d0          	mov    %rax,-0x30(%rbp)
    203a:	48 8b 45 d0          	mov    -0x30(%rbp),%rax
    203e:	48 89 c7             	mov    %rax,%rdi
    2041:	e8 48 2e 00 00       	callq  4e8e <_ZNSt6vectorISt4pairIiiESaIS1_EE5beginEv>
    2046:	48 89 45 b8          	mov    %rax,-0x48(%rbp)
    204a:	48 8b 45 d0          	mov    -0x30(%rbp),%rax
    204e:	48 89 c7             	mov    %rax,%rdi
    2051:	e8 80 2e 00 00       	callq  4ed6 <_ZNSt6vectorISt4pairIiiESaIS1_EE3endEv>
    2056:	48 89 45 c0          	mov    %rax,-0x40(%rbp)
    205a:	48 8d 55 c0          	lea    -0x40(%rbp),%rdx
    205e:	48 8d 45 b8          	lea    -0x48(%rbp),%rax
    2062:	48 89 d6             	mov    %rdx,%rsi
    2065:	48 89 c7             	mov    %rax,%rdi
    2068:	e8 b5 2e 00 00       	callq  4f22 <_ZN9__gnu_cxxneIPSt4pairIiiESt6vectorIS2_SaIS2_EEEEbRKNS_17__normal_iteratorIT_T0_EESC_>
    206d:	84 c0                	test   %al,%al
    206f:	74 38                	je     20a9 <_Z10all_in_onePv+0x9e>
    2071:	48 8d 45 b8          	lea    -0x48(%rbp),%rax
    2075:	48 89 c7             	mov    %rax,%rdi
    2078:	e8 01 2f 00 00       	callq  4f7e <_ZNK9__gnu_cxx17__normal_iteratorIPSt4pairIiiESt6vectorIS2_SaIS2_EEEdeEv>
    207d:	48 8b 00             	mov    (%rax),%rax
    2080:	48 89 45 f0          	mov    %rax,-0x10(%rbp)
    2084:	48 8b 45 c8          	mov    -0x38(%rbp),%rax
    2088:	48 8b 00             	mov    (%rax),%rax
    208b:	8b 55 f4             	mov    -0xc(%rbp),%edx
    208e:	8b 4d f0             	mov    -0x10(%rbp),%ecx
    2091:	89 ce                	mov    %ecx,%esi
    2093:	48 89 c7             	mov    %rax,%rdi
    2096:	e8 f5 2e 00 00       	callq  4f90 <_ZN9HashTableIiiE5writeEii>
    209b:	48 8d 45 b8          	lea    -0x48(%rbp),%rax
    209f:	48 89 c7             	mov    %rax,%rdi
    20a2:	e8 b7 2e 00 00       	callq  4f5e <_ZN9__gnu_cxx17__normal_iteratorIPSt4pairIiiESt6vectorIS2_SaIS2_EEEppEv>
    20a7:	eb b1                	jmp    205a <_Z10all_in_onePv+0x4f>
    20a9:	48 8b 45 c8          	mov    -0x38(%rbp),%rax
    20ad:	48 83 c0 38          	add    $0x38,%rax
    20b1:	48 89 45 d8          	mov    %rax,-0x28(%rbp)
    20b5:	48 8b 45 d8          	mov    -0x28(%rbp),%rax
    20b9:	48 89 c7             	mov    %rax,%rdi
    20bc:	e8 f3 29 00 00       	callq  4ab4 <_ZNSt6vectorIiSaIiEE5beginEv>
    20c1:	48 89 45 c0          	mov    %rax,-0x40(%rbp)
    20c5:	48 8b 45 d8          	mov    -0x28(%rbp),%rax
    20c9:	48 89 c7             	mov    %rax,%rdi
    20cc:	e8 2b 2a 00 00       	callq  4afc <_ZNSt6vectorIiSaIiEE3endEv>
    20d1:	48 89 45 f0          	mov    %rax,-0x10(%rbp)
    20d5:	48 8d 55 f0          	lea    -0x10(%rbp),%rdx
    20d9:	48 8d 45 c0          	lea    -0x40(%rbp),%rax
    20dd:	48 89 d6             	mov    %rdx,%rsi
    20e0:	48 89 c7             	mov    %rax,%rdi
    20e3:	e8 60 2a 00 00       	callq  4b48 <_ZN9__gnu_cxxneIPiSt6vectorIiSaIiEEEEbRKNS_17__normal_iteratorIT_T0_EESA_>
    20e8:	84 c0                	test   %al,%al
    20ea:	74 33                	je     211f <_Z10all_in_onePv+0x114>
    20ec:	48 8d 45 c0          	lea    -0x40(%rbp),%rax
    20f0:	48 89 c7             	mov    %rax,%rdi
    20f3:	e8 ac 2a 00 00       	callq  4ba4 <_ZNK9__gnu_cxx17__normal_iteratorIPiSt6vectorIiSaIiEEEdeEv>
    20f8:	8b 00                	mov    (%rax),%eax
    20fa:	89 45 b4             	mov    %eax,-0x4c(%rbp)
    20fd:	48 8b 45 c8          	mov    -0x38(%rbp),%rax
    2101:	48 8b 00             	mov    (%rax),%rax
    2104:	8b 55 b4             	mov    -0x4c(%rbp),%edx
    2107:	89 d6                	mov    %edx,%esi
    2109:	48 89 c7             	mov    %rax,%rdi
    210c:	e8 a5 2a 00 00       	callq  4bb6 <_ZN9HashTableIiiE6removeEi>
    2111:	48 8d 45 c0          	lea    -0x40(%rbp),%rax
    2115:	48 89 c7             	mov    %rax,%rdi
    2118:	e8 67 2a 00 00       	callq  4b84 <_ZN9__gnu_cxx17__normal_iteratorIPiSt6vectorIiSaIiEEEppEv>
    211d:	eb b6                	jmp    20d5 <_Z10all_in_onePv+0xca>
    211f:	48 8b 45 c8          	mov    -0x38(%rbp),%rax
    2123:	48 83 c0 20          	add    $0x20,%rax
    2127:	48 89 45 e0          	mov    %rax,-0x20(%rbp)
    212b:	48 8b 45 e0          	mov    -0x20(%rbp),%rax
    212f:	48 89 c7             	mov    %rax,%rdi
    2132:	e8 7d 29 00 00       	callq  4ab4 <_ZNSt6vectorIiSaIiEE5beginEv>
    2137:	48 89 45 c0          	mov    %rax,-0x40(%rbp)
    213b:	48 8b 45 e0          	mov    -0x20(%rbp),%rax
    213f:	48 89 c7             	mov    %rax,%rdi
    2142:	e8 b5 29 00 00       	callq  4afc <_ZNSt6vectorIiSaIiEE3endEv>
    2147:	48 89 45 f0          	mov    %rax,-0x10(%rbp)
    214b:	48 8d 55 f0          	lea    -0x10(%rbp),%rdx
    214f:	48 8d 45 c0          	lea    -0x40(%rbp),%rax
    2153:	48 89 d6             	mov    %rdx,%rsi
    2156:	48 89 c7             	mov    %rax,%rdi
    2159:	e8 ea 29 00 00       	callq  4b48 <_ZN9__gnu_cxxneIPiSt6vectorIiSaIiEEEEbRKNS_17__normal_iteratorIT_T0_EESA_>
    215e:	84 c0                	test   %al,%al
    2160:	74 33                	je     2195 <_Z10all_in_onePv+0x18a>
    2162:	48 8d 45 c0          	lea    -0x40(%rbp),%rax
    2166:	48 89 c7             	mov    %rax,%rdi
    2169:	e8 36 2a 00 00       	callq  4ba4 <_ZNK9__gnu_cxx17__normal_iteratorIPiSt6vectorIiSaIiEEEdeEv>
    216e:	8b 00                	mov    (%rax),%eax
    2170:	89 45 b0             	mov    %eax,-0x50(%rbp)
    2173:	48 8b 45 c8          	mov    -0x38(%rbp),%rax
    2177:	48 8b 00             	mov    (%rax),%rax
    217a:	8b 55 b0             	mov    -0x50(%rbp),%edx
    217d:	89 d6                	mov    %edx,%esi
    217f:	48 89 c7             	mov    %rax,%rdi
    2182:	e8 41 32 00 00       	callq  53c8 <_ZN9HashTableIiiE4readEi>
    2187:	48 8d 45 c0          	lea    -0x40(%rbp),%rax
    218b:	48 89 c7             	mov    %rax,%rdi
    218e:	e8 f1 29 00 00       	callq  4b84 <_ZN9__gnu_cxx17__normal_iteratorIPiSt6vectorIiSaIiEEEppEv>
    2193:	eb b6                	jmp    214b <_Z10all_in_onePv+0x140>
    2195:	48 8b 45 a8          	mov    -0x58(%rbp),%rax
    2199:	48 8b 4d f8          	mov    -0x8(%rbp),%rcx
    219d:	64 48 33 0c 25 28 00 	xor    %fs:0x28,%rcx
    21a4:	00 00 
    21a6:	74 28                	je     21d0 <_Z10all_in_onePv+0x1c5>
    21a8:	eb 21                	jmp    21cb <_Z10all_in_onePv+0x1c0>
    21aa:	48 83 fa 01          	cmp    $0x1,%rdx
    21ae:	74 08                	je     21b8 <_Z10all_in_onePv+0x1ad>
    21b0:	48 89 c7             	mov    %rax,%rdi
    21b3:	e8 a8 fa ff ff       	callq  1c60 <_Unwind_Resume@plt>
    21b8:	48 89 c7             	mov    %rax,%rdi
    21bb:	e8 a0 f8 ff ff       	callq  1a60 <__cxa_begin_catch@plt>
    21c0:	48 89 45 e8          	mov    %rax,-0x18(%rbp)
    21c4:	e8 57 fa ff ff       	callq  1c20 <__cxa_end_catch@plt>
    21c9:	eb bc                	jmp    2187 <_Z10all_in_onePv+0x17c>
    21cb:	e8 c0 f9 ff ff       	callq  1b90 <__stack_chk_fail@plt>
    21d0:	c9                   	leaveq 
    21d1:	c3                   	retq   

00000000000021d2 <_Z10startWritePv>:
    21d2:	55                   	push   %rbp
    21d3:	48 89 e5             	mov    %rsp,%rbp
    21d6:	48 83 ec 10          	sub    $0x10,%rsp
    21da:	48 89 7d f8          	mov    %rdi,-0x8(%rbp)
    21de:	eb 01                	jmp    21e1 <_Z10startWritePv+0xf>
    21e0:	90                   	nop
    21e1:	48 8d 3d 28 ce 20 00 	lea    0x20ce28(%rip),%rdi        # 20f010 <_ZL9not_ready>
    21e8:	e8 91 25 00 00       	callq  477e <_ZNKSt6atomicIbEcvbEv>
    21ed:	84 c0                	test   %al,%al
    21ef:	75 ef                	jne    21e0 <_Z10startWritePv+0xe>
    21f1:	48 8b 45 f8          	mov    -0x8(%rbp),%rax
    21f5:	48 89 c7             	mov    %rax,%rdi
    21f8:	e8 88 fc ff ff       	callq  1e85 <_Z8mapWritePv>
    21fd:	48 8b 45 f8          	mov    -0x8(%rbp),%rax
    2201:	c9                   	leaveq 
    2202:	c3                   	retq   

0000000000002203 <_Z9startReadPv>:
    2203:	55                   	push   %rbp
    2204:	48 89 e5             	mov    %rsp,%rbp
    2207:	48 83 ec 10          	sub    $0x10,%rsp
    220b:	48 89 7d f8          	mov    %rdi,-0x8(%rbp)
    220f:	eb 01                	jmp    2212 <_Z9startReadPv+0xf>
    2211:	90                   	nop
    2212:	48 8d 3d f7 cd 20 00 	lea    0x20cdf7(%rip),%rdi        # 20f010 <_ZL9not_ready>
    2219:	e8 60 25 00 00       	callq  477e <_ZNKSt6atomicIbEcvbEv>
    221e:	84 c0                	test   %al,%al
    2220:	75 ef                	jne    2211 <_Z9startReadPv+0xe>
    2222:	48 8b 45 f8          	mov    -0x8(%rbp),%rax
    2226:	48 89 c7             	mov    %rax,%rdi
    2229:	e8 0c fd ff ff       	callq  1f3a <_Z7mapReadPv>
    222e:	48 8b 45 f8          	mov    -0x8(%rbp),%rax
    2232:	c9                   	leaveq 
    2233:	c3                   	retq   

0000000000002234 <_Z11startDeletePv>:
    2234:	55                   	push   %rbp
    2235:	48 89 e5             	mov    %rsp,%rbp
    2238:	48 83 ec 10          	sub    $0x10,%rsp
    223c:	48 89 7d f8          	mov    %rdi,-0x8(%rbp)
    2240:	eb 01                	jmp    2243 <_Z11startDeletePv+0xf>
    2242:	90                   	nop
    2243:	48 8d 3d c6 cd 20 00 	lea    0x20cdc6(%rip),%rdi        # 20f010 <_ZL9not_ready>
    224a:	e8 2f 25 00 00       	callq  477e <_ZNKSt6atomicIbEcvbEv>
    224f:	84 c0                	test   %al,%al
    2251:	75 ef                	jne    2242 <_Z11startDeletePv+0xe>
    2253:	48 8b 45 f8          	mov    -0x8(%rbp),%rax
    2257:	48 89 c7             	mov    %rax,%rdi
    225a:	e8 76 fb ff ff       	callq  1dd5 <_Z9mapDeletePv>
    225f:	48 8b 45 f8          	mov    -0x8(%rbp),%rax
    2263:	c9                   	leaveq 
    2264:	c3                   	retq   

0000000000002265 <_Z23singlePurposeThreadTestv>:
    2265:	55                   	push   %rbp
    2266:	48 89 e5             	mov    %rsp,%rbp
    2269:	41 55                	push   %r13
    226b:	41 54                	push   %r12
    226d:	53                   	push   %rbx
    226e:	48 81 ec 58 01 00 00 	sub    $0x158,%rsp
    2275:	64 48 8b 04 25 28 00 	mov    %fs:0x28,%rax
    227c:	00 00 
    227e:	48 89 45 d8          	mov    %rax,-0x28(%rbp)
    2282:	31 c0                	xor    %eax,%eax
    2284:	c7 85 b4 fe ff ff 0a 	movl   $0xa,-0x14c(%rbp)
    228b:	00 00 00 
    228e:	c7 85 b8 fe ff ff 01 	movl   $0x1,-0x148(%rbp)
    2295:	00 00 00 
    2298:	c7 85 bc fe ff ff 00 	movl   $0x0,-0x144(%rbp)
    229f:	00 00 00 
    22a2:	c7 85 c0 fe ff ff 00 	movl   $0x0,-0x140(%rbp)
    22a9:	00 00 00 
    22ac:	c7 85 c4 fe ff ff 10 	movl   $0x2710,-0x13c(%rbp)
    22b3:	27 00 00 
    22b6:	c7 85 c8 fe ff ff 88 	movl   $0x1388,-0x138(%rbp)
    22bd:	13 00 00 
    22c0:	c7 85 cc fe ff ff 80 	movl   $0x80,-0x134(%rbp)
    22c7:	00 00 00 
    22ca:	8b 85 b8 fe ff ff    	mov    -0x148(%rbp),%eax
    22d0:	48 98                	cltq   
    22d2:	48 ba ff ff ff ff ff 	movabs $0xfffffffffffffff,%rdx
    22d9:	ff ff 0f 
    22dc:	48 39 d0             	cmp    %rdx,%rax
    22df:	77 2c                	ja     230d <_Z23singlePurposeThreadTestv+0xa8>
    22e1:	48 c1 e0 03          	shl    $0x3,%rax
    22e5:	48 89 c7             	mov    %rax,%rdi
    22e8:	e8 23 f7 ff ff       	callq  1a10 <_Znam@plt>
    22ed:	48 89 85 d0 fe ff ff 	mov    %rax,-0x130(%rbp)
    22f4:	8b 85 bc fe ff ff    	mov    -0x144(%rbp),%eax
    22fa:	48 98                	cltq   
    22fc:	48 ba ff ff ff ff ff 	movabs $0xfffffffffffffff,%rdx
    2303:	ff ff 0f 
    2306:	48 39 d0             	cmp    %rdx,%rax
    2309:	77 33                	ja     233e <_Z23singlePurposeThreadTestv+0xd9>
    230b:	eb 05                	jmp    2312 <_Z23singlePurposeThreadTestv+0xad>
    230d:	e8 ae f8 ff ff       	callq  1bc0 <__cxa_throw_bad_array_new_length@plt>
    2312:	48 c1 e0 03          	shl    $0x3,%rax
    2316:	48 89 c7             	mov    %rax,%rdi
    2319:	e8 f2 f6 ff ff       	callq  1a10 <_Znam@plt>
    231e:	48 89 85 d8 fe ff ff 	mov    %rax,-0x128(%rbp)
    2325:	8b 85 c0 fe ff ff    	mov    -0x140(%rbp),%eax
    232b:	48 98                	cltq   
    232d:	48 ba ff ff ff ff ff 	movabs $0xfffffffffffffff,%rdx
    2334:	ff ff 0f 
    2337:	48 39 d0             	cmp    %rdx,%rax
    233a:	77 34                	ja     2370 <_Z23singlePurposeThreadTestv+0x10b>
    233c:	eb 05                	jmp    2343 <_Z23singlePurposeThreadTestv+0xde>
    233e:	e8 7d f8 ff ff       	callq  1bc0 <__cxa_throw_bad_array_new_length@plt>
    2343:	48 c1 e0 03          	shl    $0x3,%rax
    2347:	48 89 c7             	mov    %rax,%rdi
    234a:	e8 c1 f6 ff ff       	callq  1a10 <_Znam@plt>
    234f:	48 89 85 e0 fe ff ff 	mov    %rax,-0x120(%rbp)
    2356:	8b 85 b8 fe ff ff    	mov    -0x148(%rbp),%eax
    235c:	48 63 d8             	movslq %eax,%rbx
    235f:	48 b8 ff ff ff ff ff 	movabs $0x3ffffffffffffff,%rax
    2366:	ff ff 03 
    2369:	48 39 c3             	cmp    %rax,%rbx
    236c:	77 14                	ja     2382 <_Z23singlePurposeThreadTestv+0x11d>
    236e:	eb 05                	jmp    2375 <_Z23singlePurposeThreadTestv+0x110>
    2370:	e8 4b f8 ff ff       	callq  1bc0 <__cxa_throw_bad_array_new_length@plt>
    2375:	48 89 d8             	mov    %rbx,%rax
    2378:	48 c1 e0 05          	shl    $0x5,%rax
    237c:	48 83 c0 08          	add    $0x8,%rax
    2380:	eb 07                	jmp    2389 <_Z23singlePurposeThreadTestv+0x124>
    2382:	48 c7 c0 ff ff ff ff 	mov    $0xffffffffffffffff,%rax
    2389:	48 89 c7             	mov    %rax,%rdi
    238c:	e8 7f f6 ff ff       	callq  1a10 <_Znam@plt>
    2391:	49 89 c4             	mov    %rax,%r12
    2394:	49 89 1c 24          	mov    %rbx,(%r12)
    2398:	49 8d 44 24 08       	lea    0x8(%r12),%rax
    239d:	48 8d 53 ff          	lea    -0x1(%rbx),%rdx
    23a1:	48 89 d3             	mov    %rdx,%rbx
    23a4:	49 89 c5             	mov    %rax,%r13
    23a7:	48 85 db             	test   %rbx,%rbx
    23aa:	78 12                	js     23be <_Z23singlePurposeThreadTestv+0x159>
    23ac:	4c 89 ef             	mov    %r13,%rdi
    23af:	e8 6c 24 00 00       	callq  4820 <_ZN6w_dataC1Ev>
    23b4:	49 83 c5 20          	add    $0x20,%r13
    23b8:	48 83 eb 01          	sub    $0x1,%rbx
    23bc:	eb e9                	jmp    23a7 <_Z23singlePurposeThreadTestv+0x142>
    23be:	49 8d 44 24 08       	lea    0x8(%r12),%rax
    23c3:	48 89 85 e8 fe ff ff 	mov    %rax,-0x118(%rbp)
    23ca:	8b 85 bc fe ff ff    	mov    -0x144(%rbp),%eax
    23d0:	48 63 d8             	movslq %eax,%rbx
    23d3:	48 b8 ff ff ff ff ff 	movabs $0x3ffffffffffffff,%rax
    23da:	ff ff 03 
    23dd:	48 39 c3             	cmp    %rax,%rbx
    23e0:	77 0d                	ja     23ef <_Z23singlePurposeThreadTestv+0x18a>
    23e2:	48 89 d8             	mov    %rbx,%rax
    23e5:	48 c1 e0 05          	shl    $0x5,%rax
    23e9:	48 83 c0 08          	add    $0x8,%rax
    23ed:	eb 07                	jmp    23f6 <_Z23singlePurposeThreadTestv+0x191>
    23ef:	48 c7 c0 ff ff ff ff 	mov    $0xffffffffffffffff,%rax
    23f6:	48 89 c7             	mov    %rax,%rdi
    23f9:	e8 12 f6 ff ff       	callq  1a10 <_Znam@plt>
    23fe:	49 89 c4             	mov    %rax,%r12
    2401:	49 89 1c 24          	mov    %rbx,(%r12)
    2405:	49 8d 44 24 08       	lea    0x8(%r12),%rax
    240a:	48 8d 53 ff          	lea    -0x1(%rbx),%rdx
    240e:	48 89 d3             	mov    %rdx,%rbx
    2411:	49 89 c5             	mov    %rax,%r13
    2414:	48 85 db             	test   %rbx,%rbx
    2417:	78 12                	js     242b <_Z23singlePurposeThreadTestv+0x1c6>
    2419:	4c 89 ef             	mov    %r13,%rdi
    241c:	e8 93 24 00 00       	callq  48b4 <_ZN6r_dataC1Ev>
    2421:	49 83 c5 20          	add    $0x20,%r13
    2425:	48 83 eb 01          	sub    $0x1,%rbx
    2429:	eb e9                	jmp    2414 <_Z23singlePurposeThreadTestv+0x1af>
    242b:	49 8d 44 24 08       	lea    0x8(%r12),%rax
    2430:	48 89 85 f0 fe ff ff 	mov    %rax,-0x110(%rbp)
    2437:	8b 85 c0 fe ff ff    	mov    -0x140(%rbp),%eax
    243d:	48 63 d8             	movslq %eax,%rbx
    2440:	48 b8 ff ff ff ff ff 	movabs $0x3ffffffffffffff,%rax
    2447:	ff ff 03 
    244a:	48 39 c3             	cmp    %rax,%rbx
    244d:	77 0d                	ja     245c <_Z23singlePurposeThreadTestv+0x1f7>
    244f:	48 89 d8             	mov    %rbx,%rax
    2452:	48 c1 e0 05          	shl    $0x5,%rax
    2456:	48 83 c0 08          	add    $0x8,%rax
    245a:	eb 07                	jmp    2463 <_Z23singlePurposeThreadTestv+0x1fe>
    245c:	48 c7 c0 ff ff ff ff 	mov    $0xffffffffffffffff,%rax
    2463:	48 89 c7             	mov    %rax,%rdi
    2466:	e8 a5 f5 ff ff       	callq  1a10 <_Znam@plt>
    246b:	49 89 c4             	mov    %rax,%r12
    246e:	49 89 1c 24          	mov    %rbx,(%r12)
    2472:	49 8d 44 24 08       	lea    0x8(%r12),%rax
    2477:	48 8d 53 ff          	lea    -0x1(%rbx),%rdx
    247b:	48 89 d3             	mov    %rdx,%rbx
    247e:	49 89 c5             	mov    %rax,%r13
    2481:	48 85 db             	test   %rbx,%rbx
    2484:	78 12                	js     2498 <_Z23singlePurposeThreadTestv+0x233>
    2486:	4c 89 ef             	mov    %r13,%rdi
    2489:	e8 66 24 00 00       	callq  48f4 <_ZN6d_dataC1Ev>
    248e:	49 83 c5 20          	add    $0x20,%r13
    2492:	48 83 eb 01          	sub    $0x1,%rbx
    2496:	eb e9                	jmp    2481 <_Z23singlePurposeThreadTestv+0x21c>
    2498:	49 8d 44 24 08       	lea    0x8(%r12),%rax
    249d:	48 89 85 f8 fe ff ff 	mov    %rax,-0x108(%rbp)
    24a4:	8b 85 cc fe ff ff    	mov    -0x134(%rbp),%eax
    24aa:	48 63 d0             	movslq %eax,%rdx
    24ad:	48 8d 85 60 ff ff ff 	lea    -0xa0(%rbp),%rax
    24b4:	48 89 d6             	mov    %rdx,%rsi
    24b7:	48 89 c7             	mov    %rax,%rdi
    24ba:	e8 f3 33 00 00       	callq  58b2 <_ZN9HashTableIiiEC1Em>
    24bf:	c7 85 a4 fe ff ff 00 	movl   $0x0,-0x15c(%rbp)
    24c6:	00 00 00 
    24c9:	8b 85 a4 fe ff ff    	mov    -0x15c(%rbp),%eax
    24cf:	3b 85 b8 fe ff ff    	cmp    -0x148(%rbp),%eax
    24d5:	7d 2c                	jge    2503 <_Z23singlePurposeThreadTestv+0x29e>
    24d7:	8b 85 a4 fe ff ff    	mov    -0x15c(%rbp),%eax
    24dd:	48 98                	cltq   
    24df:	48 c1 e0 05          	shl    $0x5,%rax
    24e3:	48 89 c2             	mov    %rax,%rdx
    24e6:	48 8b 85 e8 fe ff ff 	mov    -0x118(%rbp),%rax
    24ed:	48 01 c2             	add    %rax,%rdx
    24f0:	48 8d 85 60 ff ff ff 	lea    -0xa0(%rbp),%rax
    24f7:	48 89 02             	mov    %rax,(%rdx)
    24fa:	83 85 a4 fe ff ff 01 	addl   $0x1,-0x15c(%rbp)
    2501:	eb c6                	jmp    24c9 <_Z23singlePurposeThreadTestv+0x264>
    2503:	c7 85 a4 fe ff ff 00 	movl   $0x0,-0x15c(%rbp)
    250a:	00 00 00 
    250d:	8b 85 a4 fe ff ff    	mov    -0x15c(%rbp),%eax
    2513:	3b 85 bc fe ff ff    	cmp    -0x144(%rbp),%eax
    2519:	7d 2c                	jge    2547 <_Z23singlePurposeThreadTestv+0x2e2>
    251b:	8b 85 a4 fe ff ff    	mov    -0x15c(%rbp),%eax
    2521:	48 98                	cltq   
    2523:	48 c1 e0 05          	shl    $0x5,%rax
    2527:	48 89 c2             	mov    %rax,%rdx
    252a:	48 8b 85 f0 fe ff ff 	mov    -0x110(%rbp),%rax
    2531:	48 01 c2             	add    %rax,%rdx
    2534:	48 8d 85 60 ff ff ff 	lea    -0xa0(%rbp),%rax
    253b:	48 89 02             	mov    %rax,(%rdx)
    253e:	83 85 a4 fe ff ff 01 	addl   $0x1,-0x15c(%rbp)
    2545:	eb c6                	jmp    250d <_Z23singlePurposeThreadTestv+0x2a8>
    2547:	c7 85 a4 fe ff ff 00 	movl   $0x0,-0x15c(%rbp)
    254e:	00 00 00 
    2551:	8b 85 a4 fe ff ff    	mov    -0x15c(%rbp),%eax
    2557:	3b 85 c0 fe ff ff    	cmp    -0x140(%rbp),%eax
    255d:	7d 2c                	jge    258b <_Z23singlePurposeThreadTestv+0x326>
    255f:	8b 85 a4 fe ff ff    	mov    -0x15c(%rbp),%eax
    2565:	48 98                	cltq   
    2567:	48 c1 e0 05          	shl    $0x5,%rax
    256b:	48 89 c2             	mov    %rax,%rdx
    256e:	48 8b 85 f8 fe ff ff 	mov    -0x108(%rbp),%rax
    2575:	48 01 c2             	add    %rax,%rdx
    2578:	48 8d 85 60 ff ff ff 	lea    -0xa0(%rbp),%rax
    257f:	48 89 02             	mov    %rax,(%rdx)
    2582:	83 85 a4 fe ff ff 01 	addl   $0x1,-0x15c(%rbp)
    2589:	eb c6                	jmp    2551 <_Z23singlePurposeThreadTestv+0x2ec>
    258b:	48 8d 85 40 ff ff ff 	lea    -0xc0(%rbp),%rax
    2592:	48 89 c7             	mov    %rax,%rdi
    2595:	e8 6a 22 00 00       	callq  4804 <_ZNSt6vectorISt4pairIiiESaIS1_EEC1Ev>
    259a:	c7 85 a4 fe ff ff 00 	movl   $0x0,-0x15c(%rbp)
    25a1:	00 00 00 
    25a4:	8b 85 a4 fe ff ff    	mov    -0x15c(%rbp),%eax
    25aa:	3b 85 b8 fe ff ff    	cmp    -0x148(%rbp),%eax
    25b0:	0f 8d d2 00 00 00    	jge    2688 <_Z23singlePurposeThreadTestv+0x423>
    25b6:	c7 85 a8 fe ff ff 00 	movl   $0x0,-0x158(%rbp)
    25bd:	00 00 00 
    25c0:	8b 85 a8 fe ff ff    	mov    -0x158(%rbp),%eax
    25c6:	3b 85 c4 fe ff ff    	cmp    -0x13c(%rbp),%eax
    25cc:	0f 8d aa 00 00 00    	jge    267c <_Z23singlePurposeThreadTestv+0x417>
    25d2:	e8 59 f4 ff ff       	callq  1a30 <rand@plt>
    25d7:	89 85 9c fe ff ff    	mov    %eax,-0x164(%rbp)
    25dd:	e8 4e f4 ff ff       	callq  1a30 <rand@plt>
    25e2:	89 85 a0 fe ff ff    	mov    %eax,-0x160(%rbp)
    25e8:	8b 85 a4 fe ff ff    	mov    -0x15c(%rbp),%eax
    25ee:	48 98                	cltq   
    25f0:	48 c1 e0 05          	shl    $0x5,%rax
    25f4:	48 89 c2             	mov    %rax,%rdx
    25f7:	48 8b 85 e8 fe ff ff 	mov    -0x118(%rbp),%rax
    25fe:	48 01 d0             	add    %rdx,%rax
    2601:	48 8d 58 08          	lea    0x8(%rax),%rbx
    2605:	48 8d 95 9c fe ff ff 	lea    -0x164(%rbp),%rdx
    260c:	48 8d 85 a0 fe ff ff 	lea    -0x160(%rbp),%rax
    2613:	48 89 d6             	mov    %rdx,%rsi
    2616:	48 89 c7             	mov    %rax,%rdi
    2619:	e8 97 35 00 00       	callq  5bb5 <_ZSt9make_pairIRiS0_ESt4pairINSt17__decay_and_stripIT_E6__typeENS2_IT0_E6__typeEEOS3_OS6_>
    261e:	48 89 85 30 ff ff ff 	mov    %rax,-0xd0(%rbp)
    2625:	48 8d 85 30 ff ff ff 	lea    -0xd0(%rbp),%rax
    262c:	48 89 c6             	mov    %rax,%rsi
    262f:	48 89 df             	mov    %rbx,%rdi
    2632:	e8 ed 35 00 00       	callq  5c24 <_ZNSt6vectorISt4pairIiiESaIS1_EE9push_backEOS1_>
    2637:	48 8d 95 9c fe ff ff 	lea    -0x164(%rbp),%rdx
    263e:	48 8d 85 a0 fe ff ff 	lea    -0x160(%rbp),%rax
    2645:	48 89 d6             	mov    %rdx,%rsi
    2648:	48 89 c7             	mov    %rax,%rdi
    264b:	e8 65 35 00 00       	callq  5bb5 <_ZSt9make_pairIRiS0_ESt4pairINSt17__decay_and_stripIT_E6__typeENS2_IT0_E6__typeEEOS3_OS6_>
    2650:	48 89 85 30 ff ff ff 	mov    %rax,-0xd0(%rbp)
    2657:	48 8d 95 30 ff ff ff 	lea    -0xd0(%rbp),%rdx
    265e:	48 8d 85 40 ff ff ff 	lea    -0xc0(%rbp),%rax
    2665:	48 89 d6             	mov    %rdx,%rsi
    2668:	48 89 c7             	mov    %rax,%rdi
    266b:	e8 b4 35 00 00       	callq  5c24 <_ZNSt6vectorISt4pairIiiESaIS1_EE9push_backEOS1_>
    2670:	83 85 a8 fe ff ff 01 	addl   $0x1,-0x158(%rbp)
    2677:	e9 44 ff ff ff       	jmpq   25c0 <_Z23singlePurposeThreadTestv+0x35b>
    267c:	83 85 a4 fe ff ff 01 	addl   $0x1,-0x15c(%rbp)
    2683:	e9 1c ff ff ff       	jmpq   25a4 <_Z23singlePurposeThreadTestv+0x33f>
    2688:	c7 85 a4 fe ff ff 00 	movl   $0x0,-0x15c(%rbp)
    268f:	00 00 00 
    2692:	8b 85 a4 fe ff ff    	mov    -0x15c(%rbp),%eax
    2698:	3b 85 c8 fe ff ff    	cmp    -0x138(%rbp),%eax
    269e:	7d 78                	jge    2718 <_Z23singlePurposeThreadTestv+0x4b3>
    26a0:	e8 8b f3 ff ff       	callq  1a30 <rand@plt>
    26a5:	89 85 9c fe ff ff    	mov    %eax,-0x164(%rbp)
    26ab:	e8 80 f3 ff ff       	callq  1a30 <rand@plt>
    26b0:	89 85 a0 fe ff ff    	mov    %eax,-0x160(%rbp)
    26b6:	48 8d 95 9c fe ff ff 	lea    -0x164(%rbp),%rdx
    26bd:	48 8d 85 a0 fe ff ff 	lea    -0x160(%rbp),%rax
    26c4:	48 89 d6             	mov    %rdx,%rsi
    26c7:	48 89 c7             	mov    %rax,%rdi
    26ca:	e8 e6 34 00 00       	callq  5bb5 <_ZSt9make_pairIRiS0_ESt4pairINSt17__decay_and_stripIT_E6__typeENS2_IT0_E6__typeEEOS3_OS6_>
    26cf:	48 89 85 30 ff ff ff 	mov    %rax,-0xd0(%rbp)
    26d6:	48 8d 95 30 ff ff ff 	lea    -0xd0(%rbp),%rdx
    26dd:	48 8d 85 40 ff ff ff 	lea    -0xc0(%rbp),%rax
    26e4:	48 89 d6             	mov    %rdx,%rsi
    26e7:	48 89 c7             	mov    %rax,%rdi
    26ea:	e8 35 35 00 00       	callq  5c24 <_ZNSt6vectorISt4pairIiiESaIS1_EE9push_backEOS1_>
    26ef:	8b 95 9c fe ff ff    	mov    -0x164(%rbp),%edx
    26f5:	8b 8d a0 fe ff ff    	mov    -0x160(%rbp),%ecx
    26fb:	48 8d 85 60 ff ff ff 	lea    -0xa0(%rbp),%rax
    2702:	89 ce                	mov    %ecx,%esi
    2704:	48 89 c7             	mov    %rax,%rdi
    2707:	e8 84 28 00 00       	callq  4f90 <_ZN9HashTableIiiE5writeEii>
    270c:	83 85 a4 fe ff ff 01 	addl   $0x1,-0x15c(%rbp)
    2713:	e9 7a ff ff ff       	jmpq   2692 <_Z23singlePurposeThreadTestv+0x42d>
    2718:	c7 85 a4 fe ff ff 00 	movl   $0x0,-0x15c(%rbp)
    271f:	00 00 00 
    2722:	c7 85 ac fe ff ff 00 	movl   $0x0,-0x154(%rbp)
    2729:	00 00 00 
    272c:	eb 01                	jmp    272f <_Z23singlePurposeThreadTestv+0x4ca>
    272e:	90                   	nop
    272f:	8b 85 c4 fe ff ff    	mov    -0x13c(%rbp),%eax
    2735:	0f af 85 bc fe ff ff 	imul   -0x144(%rbp),%eax
    273c:	39 85 ac fe ff ff    	cmp    %eax,-0x154(%rbp)
    2742:	0f 8d f4 00 00 00    	jge    283c <_Z23singlePurposeThreadTestv+0x5d7>
    2748:	48 8d 85 40 ff ff ff 	lea    -0xc0(%rbp),%rax
    274f:	48 89 85 00 ff ff ff 	mov    %rax,-0x100(%rbp)
    2756:	48 8b 85 00 ff ff ff 	mov    -0x100(%rbp),%rax
    275d:	48 89 c7             	mov    %rax,%rdi
    2760:	e8 29 27 00 00       	callq  4e8e <_ZNSt6vectorISt4pairIiiESaIS1_EE5beginEv>
    2765:	48 89 85 10 ff ff ff 	mov    %rax,-0xf0(%rbp)
    276c:	48 8b 85 00 ff ff ff 	mov    -0x100(%rbp),%rax
    2773:	48 89 c7             	mov    %rax,%rdi
    2776:	e8 5b 27 00 00       	callq  4ed6 <_ZNSt6vectorISt4pairIiiESaIS1_EE3endEv>
    277b:	48 89 85 20 ff ff ff 	mov    %rax,-0xe0(%rbp)
    2782:	48 8d 95 20 ff ff ff 	lea    -0xe0(%rbp),%rdx
    2789:	48 8d 85 10 ff ff ff 	lea    -0xf0(%rbp),%rax
    2790:	48 89 d6             	mov    %rdx,%rsi
    2793:	48 89 c7             	mov    %rax,%rdi
    2796:	e8 87 27 00 00       	callq  4f22 <_ZN9__gnu_cxxneIPSt4pairIiiESt6vectorIS2_SaIS2_EEEEbRKNS_17__normal_iteratorIT_T0_EESC_>
    279b:	84 c0                	test   %al,%al
    279d:	74 8f                	je     272e <_Z23singlePurposeThreadTestv+0x4c9>
    279f:	48 8d 85 10 ff ff ff 	lea    -0xf0(%rbp),%rax
    27a6:	48 89 c7             	mov    %rax,%rdi
    27a9:	e8 d0 27 00 00       	callq  4f7e <_ZNK9__gnu_cxx17__normal_iteratorIPSt4pairIiiESt6vectorIS2_SaIS2_EEEdeEv>
    27ae:	48 8b 00             	mov    (%rax),%rax
    27b1:	48 89 85 30 ff ff ff 	mov    %rax,-0xd0(%rbp)
    27b8:	8b 85 a4 fe ff ff    	mov    -0x15c(%rbp),%eax
    27be:	48 98                	cltq   
    27c0:	48 c1 e0 05          	shl    $0x5,%rax
    27c4:	48 89 c2             	mov    %rax,%rdx
    27c7:	48 8b 85 f0 fe ff ff 	mov    -0x110(%rbp),%rax
    27ce:	48 01 d0             	add    %rdx,%rax
    27d1:	48 8d 50 08          	lea    0x8(%rax),%rdx
    27d5:	48 8d 85 30 ff ff ff 	lea    -0xd0(%rbp),%rax
    27dc:	48 89 c6             	mov    %rax,%rsi
    27df:	48 89 d7             	mov    %rdx,%rdi
    27e2:	e8 6f 34 00 00       	callq  5c56 <_ZNSt6vectorIiSaIiEE9push_backERKi>
    27e7:	83 85 a4 fe ff ff 01 	addl   $0x1,-0x15c(%rbp)
    27ee:	83 85 ac fe ff ff 01 	addl   $0x1,-0x154(%rbp)
    27f5:	8b 85 a4 fe ff ff    	mov    -0x15c(%rbp),%eax
    27fb:	3b 85 bc fe ff ff    	cmp    -0x144(%rbp),%eax
    2801:	75 0a                	jne    280d <_Z23singlePurposeThreadTestv+0x5a8>
    2803:	c7 85 a4 fe ff ff 00 	movl   $0x0,-0x15c(%rbp)
    280a:	00 00 00 
    280d:	8b 85 c4 fe ff ff    	mov    -0x13c(%rbp),%eax
    2813:	0f af 85 bc fe ff ff 	imul   -0x144(%rbp),%eax
    281a:	39 85 ac fe ff ff    	cmp    %eax,-0x154(%rbp)
    2820:	7f 14                	jg     2836 <_Z23singlePurposeThreadTestv+0x5d1>
    2822:	48 8d 85 10 ff ff ff 	lea    -0xf0(%rbp),%rax
    2829:	48 89 c7             	mov    %rax,%rdi
    282c:	e8 2d 27 00 00       	callq  4f5e <_ZN9__gnu_cxx17__normal_iteratorIPSt4pairIiiESt6vectorIS2_SaIS2_EEEppEv>
    2831:	e9 4c ff ff ff       	jmpq   2782 <_Z23singlePurposeThreadTestv+0x51d>
    2836:	90                   	nop
    2837:	e9 f2 fe ff ff       	jmpq   272e <_Z23singlePurposeThreadTestv+0x4c9>
    283c:	c7 85 a4 fe ff ff 00 	movl   $0x0,-0x15c(%rbp)
    2843:	00 00 00 
    2846:	8b 85 a4 fe ff ff    	mov    -0x15c(%rbp),%eax
    284c:	3b 85 c0 fe ff ff    	cmp    -0x140(%rbp),%eax
    2852:	0f 8d 92 00 00 00    	jge    28ea <_Z23singlePurposeThreadTestv+0x685>
    2858:	c7 85 b0 fe ff ff 00 	movl   $0x0,-0x150(%rbp)
    285f:	00 00 00 
    2862:	8b 85 b0 fe ff ff    	mov    -0x150(%rbp),%eax
    2868:	3b 85 c4 fe ff ff    	cmp    -0x13c(%rbp),%eax
    286e:	7d 6e                	jge    28de <_Z23singlePurposeThreadTestv+0x679>
    2870:	8b 85 a4 fe ff ff    	mov    -0x15c(%rbp),%eax
    2876:	48 98                	cltq   
    2878:	48 c1 e0 05          	shl    $0x5,%rax
    287c:	48 89 c2             	mov    %rax,%rdx
    287f:	48 8b 85 f8 fe ff ff 	mov    -0x108(%rbp),%rax
    2886:	48 01 d0             	add    %rdx,%rax
    2889:	48 8d 58 08          	lea    0x8(%rax),%rbx
    288d:	e8 9e f1 ff ff       	callq  1a30 <rand@plt>
    2892:	4c 63 e0             	movslq %eax,%r12
    2895:	48 8d 85 40 ff ff ff 	lea    -0xc0(%rbp),%rax
    289c:	48 89 c7             	mov    %rax,%rdi
    289f:	e8 2e 34 00 00       	callq  5cd2 <_ZNKSt6vectorISt4pairIiiESaIS1_EE4sizeEv>
    28a4:	48 89 c1             	mov    %rax,%rcx
    28a7:	4c 89 e0             	mov    %r12,%rax
    28aa:	ba 00 00 00 00       	mov    $0x0,%edx
    28af:	48 f7 f1             	div    %rcx
    28b2:	48 89 d1             	mov    %rdx,%rcx
    28b5:	48 89 ca             	mov    %rcx,%rdx
    28b8:	48 8d 85 40 ff ff ff 	lea    -0xc0(%rbp),%rax
    28bf:	48 89 d6             	mov    %rdx,%rsi
    28c2:	48 89 c7             	mov    %rax,%rdi
    28c5:	e8 2c 34 00 00       	callq  5cf6 <_ZNSt6vectorISt4pairIiiESaIS1_EEixEm>
    28ca:	48 89 c6             	mov    %rax,%rsi
    28cd:	48 89 df             	mov    %rbx,%rdi
    28d0:	e8 81 33 00 00       	callq  5c56 <_ZNSt6vectorIiSaIiEE9push_backERKi>
    28d5:	83 85 b0 fe ff ff 01 	addl   $0x1,-0x150(%rbp)
    28dc:	eb 84                	jmp    2862 <_Z23singlePurposeThreadTestv+0x5fd>
    28de:	83 85 a4 fe ff ff 01 	addl   $0x1,-0x15c(%rbp)
    28e5:	e9 5c ff ff ff       	jmpq   2846 <_Z23singlePurposeThreadTestv+0x5e1>
    28ea:	c7 85 a4 fe ff ff 00 	movl   $0x0,-0x15c(%rbp)
    28f1:	00 00 00 
    28f4:	8b 85 a4 fe ff ff    	mov    -0x15c(%rbp),%eax
    28fa:	3b 85 b8 fe ff ff    	cmp    -0x148(%rbp),%eax
    2900:	7d 53                	jge    2955 <_Z23singlePurposeThreadTestv+0x6f0>
    2902:	8b 85 a4 fe ff ff    	mov    -0x15c(%rbp),%eax
    2908:	48 98                	cltq   
    290a:	48 c1 e0 05          	shl    $0x5,%rax
    290e:	48 89 c2             	mov    %rax,%rdx
    2911:	48 8b 85 e8 fe ff ff 	mov    -0x118(%rbp),%rax
    2918:	48 01 c2             	add    %rax,%rdx
    291b:	8b 85 a4 fe ff ff    	mov    -0x15c(%rbp),%eax
    2921:	48 98                	cltq   
    2923:	48 8d 0c c5 00 00 00 	lea    0x0(,%rax,8),%rcx
    292a:	00 
    292b:	48 8b 85 d0 fe ff ff 	mov    -0x130(%rbp),%rax
    2932:	48 01 c8             	add    %rcx,%rax
    2935:	48 89 d1             	mov    %rdx,%rcx
    2938:	48 8d 15 93 f8 ff ff 	lea    -0x76d(%rip),%rdx        # 21d2 <_Z10startWritePv>
    293f:	be 00 00 00 00       	mov    $0x0,%esi
    2944:	48 89 c7             	mov    %rax,%rdi
    2947:	e8 7c f3 ff ff       	callq  1cc8 <pthread_create@plt>
    294c:	83 85 a4 fe ff ff 01 	addl   $0x1,-0x15c(%rbp)
    2953:	eb 9f                	jmp    28f4 <_Z23singlePurposeThreadTestv+0x68f>
    2955:	c7 85 a4 fe ff ff 00 	movl   $0x0,-0x15c(%rbp)
    295c:	00 00 00 
    295f:	8b 85 a4 fe ff ff    	mov    -0x15c(%rbp),%eax
    2965:	3b 85 bc fe ff ff    	cmp    -0x144(%rbp),%eax
    296b:	7d 53                	jge    29c0 <_Z23singlePurposeThreadTestv+0x75b>
    296d:	8b 85 a4 fe ff ff    	mov    -0x15c(%rbp),%eax
    2973:	48 98                	cltq   
    2975:	48 c1 e0 05          	shl    $0x5,%rax
    2979:	48 89 c2             	mov    %rax,%rdx
    297c:	48 8b 85 f0 fe ff ff 	mov    -0x110(%rbp),%rax
    2983:	48 01 c2             	add    %rax,%rdx
    2986:	8b 85 a4 fe ff ff    	mov    -0x15c(%rbp),%eax
    298c:	48 98                	cltq   
    298e:	48 8d 0c c5 00 00 00 	lea    0x0(,%rax,8),%rcx
    2995:	00 
    2996:	48 8b 85 d8 fe ff ff 	mov    -0x128(%rbp),%rax
    299d:	48 01 c8             	add    %rcx,%rax
    29a0:	48 89 d1             	mov    %rdx,%rcx
    29a3:	48 8d 15 59 f8 ff ff 	lea    -0x7a7(%rip),%rdx        # 2203 <_Z9startReadPv>
    29aa:	be 00 00 00 00       	mov    $0x0,%esi
    29af:	48 89 c7             	mov    %rax,%rdi
    29b2:	e8 11 f3 ff ff       	callq  1cc8 <pthread_create@plt>
    29b7:	83 85 a4 fe ff ff 01 	addl   $0x1,-0x15c(%rbp)
    29be:	eb 9f                	jmp    295f <_Z23singlePurposeThreadTestv+0x6fa>
    29c0:	c7 85 a4 fe ff ff 00 	movl   $0x0,-0x15c(%rbp)
    29c7:	00 00 00 
    29ca:	8b 85 a4 fe ff ff    	mov    -0x15c(%rbp),%eax
    29d0:	3b 85 c0 fe ff ff    	cmp    -0x140(%rbp),%eax
    29d6:	7d 53                	jge    2a2b <_Z23singlePurposeThreadTestv+0x7c6>
    29d8:	8b 85 a4 fe ff ff    	mov    -0x15c(%rbp),%eax
    29de:	48 98                	cltq   
    29e0:	48 c1 e0 05          	shl    $0x5,%rax
    29e4:	48 89 c2             	mov    %rax,%rdx
    29e7:	48 8b 85 f8 fe ff ff 	mov    -0x108(%rbp),%rax
    29ee:	48 01 c2             	add    %rax,%rdx
    29f1:	8b 85 a4 fe ff ff    	mov    -0x15c(%rbp),%eax
    29f7:	48 98                	cltq   
    29f9:	48 8d 0c c5 00 00 00 	lea    0x0(,%rax,8),%rcx
    2a00:	00 
    2a01:	48 8b 85 e0 fe ff ff 	mov    -0x120(%rbp),%rax
    2a08:	48 01 c8             	add    %rcx,%rax
    2a0b:	48 89 d1             	mov    %rdx,%rcx
    2a0e:	48 8d 15 1f f8 ff ff 	lea    -0x7e1(%rip),%rdx        # 2234 <_Z11startDeletePv>
    2a15:	be 00 00 00 00       	mov    $0x0,%esi
    2a1a:	48 89 c7             	mov    %rax,%rdi
    2a1d:	e8 a6 f2 ff ff       	callq  1cc8 <pthread_create@plt>
    2a22:	83 85 a4 fe ff ff 01 	addl   $0x1,-0x15c(%rbp)
    2a29:	eb 9f                	jmp    29ca <_Z23singlePurposeThreadTestv+0x765>
    2a2b:	48 8d 85 10 ff ff ff 	lea    -0xf0(%rbp),%rax
    2a32:	48 89 c6             	mov    %rax,%rsi
    2a35:	bf 00 00 00 00       	mov    $0x0,%edi
    2a3a:	e8 f1 f0 ff ff       	callq  1b30 <clock_gettime@plt>
    2a3f:	be 00 00 00 00       	mov    $0x0,%esi
    2a44:	48 8d 3d c5 c5 20 00 	lea    0x20c5c5(%rip),%rdi        # 20f010 <_ZL9not_ready>
    2a4b:	e8 08 1d 00 00       	callq  4758 <_ZNSt6atomicIbEaSEb>
    2a50:	c7 85 a4 fe ff ff 00 	movl   $0x0,-0x15c(%rbp)
    2a57:	00 00 00 
    2a5a:	8b 85 a4 fe ff ff    	mov    -0x15c(%rbp),%eax
    2a60:	3b 85 b8 fe ff ff    	cmp    -0x148(%rbp),%eax
    2a66:	7d 33                	jge    2a9b <_Z23singlePurposeThreadTestv+0x836>
    2a68:	8b 85 a4 fe ff ff    	mov    -0x15c(%rbp),%eax
    2a6e:	48 98                	cltq   
    2a70:	48 8d 14 c5 00 00 00 	lea    0x0(,%rax,8),%rdx
    2a77:	00 
    2a78:	48 8b 85 d0 fe ff ff 	mov    -0x130(%rbp),%rax
    2a7f:	48 01 d0             	add    %rdx,%rax
    2a82:	48 8b 00             	mov    (%rax),%rax
    2a85:	be 00 00 00 00       	mov    $0x0,%esi
    2a8a:	48 89 c7             	mov    %rax,%rdi
    2a8d:	e8 0e f0 ff ff       	callq  1aa0 <pthread_join@plt>
    2a92:	83 85 a4 fe ff ff 01 	addl   $0x1,-0x15c(%rbp)
    2a99:	eb bf                	jmp    2a5a <_Z23singlePurposeThreadTestv+0x7f5>
    2a9b:	c7 85 a4 fe ff ff 00 	movl   $0x0,-0x15c(%rbp)
    2aa2:	00 00 00 
    2aa5:	8b 85 a4 fe ff ff    	mov    -0x15c(%rbp),%eax
    2aab:	3b 85 bc fe ff ff    	cmp    -0x144(%rbp),%eax
    2ab1:	7d 33                	jge    2ae6 <_Z23singlePurposeThreadTestv+0x881>
    2ab3:	8b 85 a4 fe ff ff    	mov    -0x15c(%rbp),%eax
    2ab9:	48 98                	cltq   
    2abb:	48 8d 14 c5 00 00 00 	lea    0x0(,%rax,8),%rdx
    2ac2:	00 
    2ac3:	48 8b 85 d8 fe ff ff 	mov    -0x128(%rbp),%rax
    2aca:	48 01 d0             	add    %rdx,%rax
    2acd:	48 8b 00             	mov    (%rax),%rax
    2ad0:	be 00 00 00 00       	mov    $0x0,%esi
    2ad5:	48 89 c7             	mov    %rax,%rdi
    2ad8:	e8 c3 ef ff ff       	callq  1aa0 <pthread_join@plt>
    2add:	83 85 a4 fe ff ff 01 	addl   $0x1,-0x15c(%rbp)
    2ae4:	eb bf                	jmp    2aa5 <_Z23singlePurposeThreadTestv+0x840>
    2ae6:	c7 85 a4 fe ff ff 00 	movl   $0x0,-0x15c(%rbp)
    2aed:	00 00 00 
    2af0:	8b 85 a4 fe ff ff    	mov    -0x15c(%rbp),%eax
    2af6:	3b 85 c0 fe ff ff    	cmp    -0x140(%rbp),%eax
    2afc:	7d 33                	jge    2b31 <_Z23singlePurposeThreadTestv+0x8cc>
    2afe:	8b 85 a4 fe ff ff    	mov    -0x15c(%rbp),%eax
    2b04:	48 98                	cltq   
    2b06:	48 8d 14 c5 00 00 00 	lea    0x0(,%rax,8),%rdx
    2b0d:	00 
    2b0e:	48 8b 85 e0 fe ff ff 	mov    -0x120(%rbp),%rax
    2b15:	48 01 d0             	add    %rdx,%rax
    2b18:	48 8b 00             	mov    (%rax),%rax
    2b1b:	be 00 00 00 00       	mov    $0x0,%esi
    2b20:	48 89 c7             	mov    %rax,%rdi
    2b23:	e8 78 ef ff ff       	callq  1aa0 <pthread_join@plt>
    2b28:	83 85 a4 fe ff ff 01 	addl   $0x1,-0x15c(%rbp)
    2b2f:	eb bf                	jmp    2af0 <_Z23singlePurposeThreadTestv+0x88b>
    2b31:	48 8d 85 20 ff ff ff 	lea    -0xe0(%rbp),%rax
    2b38:	48 89 c6             	mov    %rax,%rsi
    2b3b:	bf 00 00 00 00       	mov    $0x0,%edi
    2b40:	e8 eb ef ff ff       	callq  1b30 <clock_gettime@plt>
    2b45:	48 8b 95 28 ff ff ff 	mov    -0xd8(%rbp),%rdx
    2b4c:	48 8b 85 18 ff ff ff 	mov    -0xe8(%rbp),%rax
    2b53:	48 29 c2             	sub    %rax,%rdx
    2b56:	48 89 d0             	mov    %rdx,%rax
    2b59:	48 89 85 38 ff ff ff 	mov    %rax,-0xc8(%rbp)
    2b60:	48 8b 95 20 ff ff ff 	mov    -0xe0(%rbp),%rdx
    2b67:	48 8b 85 10 ff ff ff 	mov    -0xf0(%rbp),%rax
    2b6e:	48 29 c2             	sub    %rax,%rdx
    2b71:	48 89 d0             	mov    %rdx,%rax
    2b74:	48 89 85 30 ff ff ff 	mov    %rax,-0xd0(%rbp)
    2b7b:	48 8b 85 30 ff ff ff 	mov    -0xd0(%rbp),%rax
    2b82:	48 69 f0 a0 86 01 00 	imul   $0x186a0,%rax,%rsi
    2b89:	48 8b 8d 38 ff ff ff 	mov    -0xc8(%rbp),%rcx
    2b90:	48 ba cf f7 53 e3 a5 	movabs $0x20c49ba5e353f7cf,%rdx
    2b97:	9b c4 20 
    2b9a:	48 89 c8             	mov    %rcx,%rax
    2b9d:	48 f7 ea             	imul   %rdx
    2ba0:	48 c1 fa 07          	sar    $0x7,%rdx
    2ba4:	48 89 c8             	mov    %rcx,%rax
    2ba7:	48 c1 f8 3f          	sar    $0x3f,%rax
    2bab:	48 29 c2             	sub    %rax,%rdx
    2bae:	48 89 d0             	mov    %rdx,%rax
    2bb1:	48 01 f0             	add    %rsi,%rax
    2bb4:	48 89 85 08 ff ff ff 	mov    %rax,-0xf8(%rbp)
    2bbb:	48 83 bd d8 fe ff ff 	cmpq   $0x0,-0x128(%rbp)
    2bc2:	00 
    2bc3:	74 0f                	je     2bd4 <_Z23singlePurposeThreadTestv+0x96f>
    2bc5:	48 8b 85 d8 fe ff ff 	mov    -0x128(%rbp),%rax
    2bcc:	48 89 c7             	mov    %rax,%rdi
    2bcf:	e8 cc ef ff ff       	callq  1ba0 <_ZdaPv@plt>
    2bd4:	48 83 bd d0 fe ff ff 	cmpq   $0x0,-0x130(%rbp)
    2bdb:	00 
    2bdc:	74 0f                	je     2bed <_Z23singlePurposeThreadTestv+0x988>
    2bde:	48 8b 85 d0 fe ff ff 	mov    -0x130(%rbp),%rax
    2be5:	48 89 c7             	mov    %rax,%rdi
    2be8:	e8 b3 ef ff ff       	callq  1ba0 <_ZdaPv@plt>
    2bed:	48 83 bd e0 fe ff ff 	cmpq   $0x0,-0x120(%rbp)
    2bf4:	00 
    2bf5:	74 0f                	je     2c06 <_Z23singlePurposeThreadTestv+0x9a1>
    2bf7:	48 8b 85 e0 fe ff ff 	mov    -0x120(%rbp),%rax
    2bfe:	48 89 c7             	mov    %rax,%rdi
    2c01:	e8 9a ef ff ff       	callq  1ba0 <_ZdaPv@plt>
    2c06:	48 83 bd e8 fe ff ff 	cmpq   $0x0,-0x118(%rbp)
    2c0d:	00 
    2c0e:	74 63                	je     2c73 <_Z23singlePurposeThreadTestv+0xa0e>
    2c10:	48 8b 85 e8 fe ff ff 	mov    -0x118(%rbp),%rax
    2c17:	48 83 e8 08          	sub    $0x8,%rax
    2c1b:	48 8b 00             	mov    (%rax),%rax
    2c1e:	48 c1 e0 05          	shl    $0x5,%rax
    2c22:	48 89 c2             	mov    %rax,%rdx
    2c25:	48 8b 85 e8 fe ff ff 	mov    -0x118(%rbp),%rax
    2c2c:	48 8d 1c 02          	lea    (%rdx,%rax,1),%rbx
    2c30:	48 3b 9d e8 fe ff ff 	cmp    -0x118(%rbp),%rbx
    2c37:	74 0e                	je     2c47 <_Z23singlePurposeThreadTestv+0x9e2>
    2c39:	48 83 eb 20          	sub    $0x20,%rbx
    2c3d:	48 89 df             	mov    %rbx,%rdi
    2c40:	e8 fb 1b 00 00       	callq  4840 <_ZN6w_dataD1Ev>
    2c45:	eb e9                	jmp    2c30 <_Z23singlePurposeThreadTestv+0x9cb>
    2c47:	48 8b 85 e8 fe ff ff 	mov    -0x118(%rbp),%rax
    2c4e:	48 83 e8 08          	sub    $0x8,%rax
    2c52:	48 8b 00             	mov    (%rax),%rax
    2c55:	48 c1 e0 05          	shl    $0x5,%rax
    2c59:	48 8d 50 08          	lea    0x8(%rax),%rdx
    2c5d:	48 8b 85 e8 fe ff ff 	mov    -0x118(%rbp),%rax
    2c64:	48 83 e8 08          	sub    $0x8,%rax
    2c68:	48 89 d6             	mov    %rdx,%rsi
    2c6b:	48 89 c7             	mov    %rax,%rdi
    2c6e:	e8 3d f0 ff ff       	callq  1cb0 <_ZdaPvm@plt>
    2c73:	48 83 bd f0 fe ff ff 	cmpq   $0x0,-0x110(%rbp)
    2c7a:	00 
    2c7b:	74 63                	je     2ce0 <_Z23singlePurposeThreadTestv+0xa7b>
    2c7d:	48 8b 85 f0 fe ff ff 	mov    -0x110(%rbp),%rax
    2c84:	48 83 e8 08          	sub    $0x8,%rax
    2c88:	48 8b 00             	mov    (%rax),%rax
    2c8b:	48 c1 e0 05          	shl    $0x5,%rax
    2c8f:	48 89 c2             	mov    %rax,%rdx
    2c92:	48 8b 85 f0 fe ff ff 	mov    -0x110(%rbp),%rax
    2c99:	48 8d 1c 02          	lea    (%rdx,%rax,1),%rbx
    2c9d:	48 3b 9d f0 fe ff ff 	cmp    -0x110(%rbp),%rbx
    2ca4:	74 0e                	je     2cb4 <_Z23singlePurposeThreadTestv+0xa4f>
    2ca6:	48 83 eb 20          	sub    $0x20,%rbx
    2caa:	48 89 df             	mov    %rbx,%rdi
    2cad:	e8 22 1c 00 00       	callq  48d4 <_ZN6r_dataD1Ev>
    2cb2:	eb e9                	jmp    2c9d <_Z23singlePurposeThreadTestv+0xa38>
    2cb4:	48 8b 85 f0 fe ff ff 	mov    -0x110(%rbp),%rax
    2cbb:	48 83 e8 08          	sub    $0x8,%rax
    2cbf:	48 8b 00             	mov    (%rax),%rax
    2cc2:	48 c1 e0 05          	shl    $0x5,%rax
    2cc6:	48 8d 50 08          	lea    0x8(%rax),%rdx
    2cca:	48 8b 85 f0 fe ff ff 	mov    -0x110(%rbp),%rax
    2cd1:	48 83 e8 08          	sub    $0x8,%rax
    2cd5:	48 89 d6             	mov    %rdx,%rsi
    2cd8:	48 89 c7             	mov    %rax,%rdi
    2cdb:	e8 d0 ef ff ff       	callq  1cb0 <_ZdaPvm@plt>
    2ce0:	48 83 bd f8 fe ff ff 	cmpq   $0x0,-0x108(%rbp)
    2ce7:	00 
    2ce8:	74 63                	je     2d4d <_Z23singlePurposeThreadTestv+0xae8>
    2cea:	48 8b 85 f8 fe ff ff 	mov    -0x108(%rbp),%rax
    2cf1:	48 83 e8 08          	sub    $0x8,%rax
    2cf5:	48 8b 00             	mov    (%rax),%rax
    2cf8:	48 c1 e0 05          	shl    $0x5,%rax
    2cfc:	48 89 c2             	mov    %rax,%rdx
    2cff:	48 8b 85 f8 fe ff ff 	mov    -0x108(%rbp),%rax
    2d06:	48 8d 1c 02          	lea    (%rdx,%rax,1),%rbx
    2d0a:	48 3b 9d f8 fe ff ff 	cmp    -0x108(%rbp),%rbx
    2d11:	74 0e                	je     2d21 <_Z23singlePurposeThreadTestv+0xabc>
    2d13:	48 83 eb 20          	sub    $0x20,%rbx
    2d17:	48 89 df             	mov    %rbx,%rdi
    2d1a:	e8 f5 1b 00 00       	callq  4914 <_ZN6d_dataD1Ev>
    2d1f:	eb e9                	jmp    2d0a <_Z23singlePurposeThreadTestv+0xaa5>
    2d21:	48 8b 85 f8 fe ff ff 	mov    -0x108(%rbp),%rax
    2d28:	48 83 e8 08          	sub    $0x8,%rax
    2d2c:	48 8b 00             	mov    (%rax),%rax
    2d2f:	48 c1 e0 05          	shl    $0x5,%rax
    2d33:	48 8d 50 08          	lea    0x8(%rax),%rdx
    2d37:	48 8b 85 f8 fe ff ff 	mov    -0x108(%rbp),%rax
    2d3e:	48 83 e8 08          	sub    $0x8,%rax
    2d42:	48 89 d6             	mov    %rdx,%rsi
    2d45:	48 89 c7             	mov    %rax,%rdi
    2d48:	e8 63 ef ff ff       	callq  1cb0 <_ZdaPvm@plt>
    2d4d:	48 8b 9d 08 ff ff ff 	mov    -0xf8(%rbp),%rbx
    2d54:	48 8d 85 40 ff ff ff 	lea    -0xc0(%rbp),%rax
    2d5b:	48 89 c7             	mov    %rax,%rdi
    2d5e:	e8 ff 28 00 00       	callq  5662 <_ZNSt6vectorISt4pairIiiESaIS1_EED1Ev>
    2d63:	48 8d 85 60 ff ff ff 	lea    -0xa0(%rbp),%rax
    2d6a:	48 89 c7             	mov    %rax,%rdi
    2d6d:	e8 22 2d 00 00       	callq  5a94 <_ZN9HashTableIiiED1Ev>
    2d72:	48 89 d8             	mov    %rbx,%rax
    2d75:	48 8b 4d d8          	mov    -0x28(%rbp),%rcx
    2d79:	64 48 33 0c 25 28 00 	xor    %fs:0x28,%rcx
    2d80:	00 00 
    2d82:	74 33                	je     2db7 <_Z23singlePurposeThreadTestv+0xb52>
    2d84:	eb 2c                	jmp    2db2 <_Z23singlePurposeThreadTestv+0xb4d>
    2d86:	48 89 c3             	mov    %rax,%rbx
    2d89:	48 8d 85 40 ff ff ff 	lea    -0xc0(%rbp),%rax
    2d90:	48 89 c7             	mov    %rax,%rdi
    2d93:	e8 ca 28 00 00       	callq  5662 <_ZNSt6vectorISt4pairIiiESaIS1_EED1Ev>
    2d98:	48 8d 85 60 ff ff ff 	lea    -0xa0(%rbp),%rax
    2d9f:	48 89 c7             	mov    %rax,%rdi
    2da2:	e8 ed 2c 00 00       	callq  5a94 <_ZN9HashTableIiiED1Ev>
    2da7:	48 89 d8             	mov    %rbx,%rax
    2daa:	48 89 c7             	mov    %rax,%rdi
    2dad:	e8 ae ee ff ff       	callq  1c60 <_Unwind_Resume@plt>
    2db2:	e8 d9 ed ff ff       	callq  1b90 <__stack_chk_fail@plt>
    2db7:	48 81 c4 58 01 00 00 	add    $0x158,%rsp
    2dbe:	5b                   	pop    %rbx
    2dbf:	41 5c                	pop    %r12
    2dc1:	41 5d                	pop    %r13
    2dc3:	5d                   	pop    %rbp
    2dc4:	c3                   	retq   

0000000000002dc5 <_Z22multiPurposeThreadTestim>:
    2dc5:	55                   	push   %rbp
    2dc6:	48 89 e5             	mov    %rsp,%rbp
    2dc9:	41 55                	push   %r13
    2dcb:	41 54                	push   %r12
    2dcd:	53                   	push   %rbx
    2dce:	48 81 ec 38 01 00 00 	sub    $0x138,%rsp
    2dd5:	89 bd bc fe ff ff    	mov    %edi,-0x144(%rbp)
    2ddb:	48 89 b5 b0 fe ff ff 	mov    %rsi,-0x150(%rbp)
    2de2:	64 48 8b 04 25 28 00 	mov    %fs:0x28,%rax
    2de9:	00 00 
    2deb:	48 89 45 d8          	mov    %rax,-0x28(%rbp)
    2def:	31 c0                	xor    %eax,%eax
    2df1:	8b 85 bc fe ff ff    	mov    -0x144(%rbp),%eax
    2df7:	48 63 c8             	movslq %eax,%rcx
    2dfa:	48 8b 85 b0 fe ff ff 	mov    -0x150(%rbp),%rax
    2e01:	ba 00 00 00 00       	mov    $0x0,%edx
    2e06:	48 f7 f1             	div    %rcx
    2e09:	89 85 d8 fe ff ff    	mov    %eax,-0x128(%rbp)
    2e0f:	c7 85 dc fe ff ff 40 	movl   $0x30d40,-0x124(%rbp)
    2e16:	0d 03 00 
    2e19:	c7 85 e0 fe ff ff 00 	movl   $0x80000,-0x120(%rbp)
    2e20:	00 08 00 
    2e23:	8b 85 bc fe ff ff    	mov    -0x144(%rbp),%eax
    2e29:	48 98                	cltq   
    2e2b:	48 ba ff ff ff ff ff 	movabs $0xfffffffffffffff,%rdx
    2e32:	ff ff 0f 
    2e35:	48 39 d0             	cmp    %rdx,%rax
    2e38:	77 2d                	ja     2e67 <_Z22multiPurposeThreadTestim+0xa2>
    2e3a:	48 c1 e0 03          	shl    $0x3,%rax
    2e3e:	48 89 c7             	mov    %rax,%rdi
    2e41:	e8 ca eb ff ff       	callq  1a10 <_Znam@plt>
    2e46:	48 89 85 f0 fe ff ff 	mov    %rax,-0x110(%rbp)
    2e4d:	8b 85 bc fe ff ff    	mov    -0x144(%rbp),%eax
    2e53:	48 63 d8             	movslq %eax,%rbx
    2e56:	48 b8 99 99 99 99 99 	movabs $0x199999999999999,%rax
    2e5d:	99 99 01 
    2e60:	48 39 c3             	cmp    %rax,%rbx
    2e63:	77 1b                	ja     2e80 <_Z22multiPurposeThreadTestim+0xbb>
    2e65:	eb 05                	jmp    2e6c <_Z22multiPurposeThreadTestim+0xa7>
    2e67:	e8 54 ed ff ff       	callq  1bc0 <__cxa_throw_bad_array_new_length@plt>
    2e6c:	48 89 d8             	mov    %rbx,%rax
    2e6f:	48 c1 e0 02          	shl    $0x2,%rax
    2e73:	48 01 d8             	add    %rbx,%rax
    2e76:	48 c1 e0 04          	shl    $0x4,%rax
    2e7a:	48 83 c0 08          	add    $0x8,%rax
    2e7e:	eb 07                	jmp    2e87 <_Z22multiPurposeThreadTestim+0xc2>
    2e80:	48 c7 c0 ff ff ff ff 	mov    $0xffffffffffffffff,%rax
    2e87:	48 89 c7             	mov    %rax,%rdi
    2e8a:	e8 81 eb ff ff       	callq  1a10 <_Znam@plt>
    2e8f:	49 89 c4             	mov    %rax,%r12
    2e92:	49 89 1c 24          	mov    %rbx,(%r12)
    2e96:	49 8d 44 24 08       	lea    0x8(%r12),%rax
    2e9b:	48 8d 53 ff          	lea    -0x1(%rbx),%rdx
    2e9f:	48 89 d3             	mov    %rdx,%rbx
    2ea2:	49 89 c5             	mov    %rax,%r13
    2ea5:	48 85 db             	test   %rbx,%rbx
    2ea8:	78 12                	js     2ebc <_Z22multiPurposeThreadTestim+0xf7>
    2eaa:	4c 89 ef             	mov    %r13,%rdi
    2ead:	e8 82 1a 00 00       	callq  4934 <_ZN8all_dataC1Ev>
    2eb2:	49 83 c5 50          	add    $0x50,%r13
    2eb6:	48 83 eb 01          	sub    $0x1,%rbx
    2eba:	eb e9                	jmp    2ea5 <_Z22multiPurposeThreadTestim+0xe0>
    2ebc:	49 8d 44 24 08       	lea    0x8(%r12),%rax
    2ec1:	48 89 85 f8 fe ff ff 	mov    %rax,-0x108(%rbp)
    2ec8:	8b 85 e0 fe ff ff    	mov    -0x120(%rbp),%eax
    2ece:	48 63 d0             	movslq %eax,%rdx
    2ed1:	48 8d 85 60 ff ff ff 	lea    -0xa0(%rbp),%rax
    2ed8:	48 89 d6             	mov    %rdx,%rsi
    2edb:	48 89 c7             	mov    %rax,%rdi
    2ede:	e8 cf 29 00 00       	callq  58b2 <_ZN9HashTableIiiEC1Em>
    2ee3:	c7 85 cc fe ff ff 00 	movl   $0x0,-0x134(%rbp)
    2eea:	00 00 00 
    2eed:	8b 85 cc fe ff ff    	mov    -0x134(%rbp),%eax
    2ef3:	3b 85 bc fe ff ff    	cmp    -0x144(%rbp),%eax
    2ef9:	7d 37                	jge    2f32 <_Z22multiPurposeThreadTestim+0x16d>
    2efb:	8b 85 cc fe ff ff    	mov    -0x134(%rbp),%eax
    2f01:	48 63 d0             	movslq %eax,%rdx
    2f04:	48 89 d0             	mov    %rdx,%rax
    2f07:	48 c1 e0 02          	shl    $0x2,%rax
    2f0b:	48 01 d0             	add    %rdx,%rax
    2f0e:	48 c1 e0 04          	shl    $0x4,%rax
    2f12:	48 89 c2             	mov    %rax,%rdx
    2f15:	48 8b 85 f8 fe ff ff 	mov    -0x108(%rbp),%rax
    2f1c:	48 01 c2             	add    %rax,%rdx
    2f1f:	48 8d 85 60 ff ff ff 	lea    -0xa0(%rbp),%rax
    2f26:	48 89 02             	mov    %rax,(%rdx)
    2f29:	83 85 cc fe ff ff 01 	addl   $0x1,-0x134(%rbp)
    2f30:	eb bb                	jmp    2eed <_Z22multiPurposeThreadTestim+0x128>
    2f32:	48 8d 85 40 ff ff ff 	lea    -0xc0(%rbp),%rax
    2f39:	48 89 c7             	mov    %rax,%rdi
    2f3c:	e8 c3 18 00 00       	callq  4804 <_ZNSt6vectorISt4pairIiiESaIS1_EEC1Ev>
    2f41:	8b 85 bc fe ff ff    	mov    -0x144(%rbp),%eax
    2f47:	0f af 85 d8 fe ff ff 	imul   -0x128(%rbp),%eax
    2f4e:	89 c2                	mov    %eax,%edx
    2f50:	8b 85 dc fe ff ff    	mov    -0x124(%rbp),%eax
    2f56:	01 d0                	add    %edx,%eax
    2f58:	48 63 d0             	movslq %eax,%rdx
    2f5b:	48 8d 85 40 ff ff ff 	lea    -0xc0(%rbp),%rax
    2f62:	48 89 d6             	mov    %rdx,%rsi
    2f65:	48 89 c7             	mov    %rax,%rdi
    2f68:	e8 a9 2d 00 00       	callq  5d16 <_ZNSt6vectorISt4pairIiiESaIS1_EE7reserveEm>
    2f6d:	c7 85 cc fe ff ff 00 	movl   $0x0,-0x134(%rbp)
    2f74:	00 00 00 
    2f77:	8b 85 cc fe ff ff    	mov    -0x134(%rbp),%eax
    2f7d:	3b 85 dc fe ff ff    	cmp    -0x124(%rbp),%eax
    2f83:	7d 6a                	jge    2fef <_Z22multiPurposeThreadTestim+0x22a>
    2f85:	e8 a6 ea ff ff       	callq  1a30 <rand@plt>
    2f8a:	89 85 c8 fe ff ff    	mov    %eax,-0x138(%rbp)
    2f90:	48 8d 95 c8 fe ff ff 	lea    -0x138(%rbp),%rdx
    2f97:	48 8d 85 c8 fe ff ff 	lea    -0x138(%rbp),%rax
    2f9e:	48 89 d6             	mov    %rdx,%rsi
    2fa1:	48 89 c7             	mov    %rax,%rdi
    2fa4:	e8 0c 2c 00 00       	callq  5bb5 <_ZSt9make_pairIRiS0_ESt4pairINSt17__decay_and_stripIT_E6__typeENS2_IT0_E6__typeEEOS3_OS6_>
    2fa9:	48 89 85 30 ff ff ff 	mov    %rax,-0xd0(%rbp)
    2fb0:	48 8d 95 30 ff ff ff 	lea    -0xd0(%rbp),%rdx
    2fb7:	48 8d 85 40 ff ff ff 	lea    -0xc0(%rbp),%rax
    2fbe:	48 89 d6             	mov    %rdx,%rsi
    2fc1:	48 89 c7             	mov    %rax,%rdi
    2fc4:	e8 5b 2c 00 00       	callq  5c24 <_ZNSt6vectorISt4pairIiiESaIS1_EE9push_backEOS1_>
    2fc9:	8b 95 c8 fe ff ff    	mov    -0x138(%rbp),%edx
    2fcf:	8b 8d c8 fe ff ff    	mov    -0x138(%rbp),%ecx
    2fd5:	48 8d 85 60 ff ff ff 	lea    -0xa0(%rbp),%rax
    2fdc:	89 ce                	mov    %ecx,%esi
    2fde:	48 89 c7             	mov    %rax,%rdi
    2fe1:	e8 aa 1f 00 00       	callq  4f90 <_ZN9HashTableIiiE5writeEii>
    2fe6:	83 85 cc fe ff ff 01 	addl   $0x1,-0x134(%rbp)
    2fed:	eb 88                	jmp    2f77 <_Z22multiPurposeThreadTestim+0x1b2>
    2fef:	c7 85 d0 fe ff ff 00 	movl   $0x0,-0x130(%rbp)
    2ff6:	00 00 00 
    2ff9:	c7 85 cc fe ff ff 00 	movl   $0x0,-0x134(%rbp)
    3000:	00 00 00 
    3003:	8b 85 cc fe ff ff    	mov    -0x134(%rbp),%eax
    3009:	3b 85 bc fe ff ff    	cmp    -0x144(%rbp),%eax
    300f:	0f 8d 73 01 00 00    	jge    3188 <_Z22multiPurposeThreadTestim+0x3c3>
    3015:	8b 85 cc fe ff ff    	mov    -0x134(%rbp),%eax
    301b:	48 63 d0             	movslq %eax,%rdx
    301e:	48 89 d0             	mov    %rdx,%rax
    3021:	48 c1 e0 02          	shl    $0x2,%rax
    3025:	48 01 d0             	add    %rdx,%rax
    3028:	48 c1 e0 04          	shl    $0x4,%rax
    302c:	48 89 c2             	mov    %rax,%rdx
    302f:	48 8b 85 f8 fe ff ff 	mov    -0x108(%rbp),%rax
    3036:	48 01 d0             	add    %rdx,%rax
    3039:	48 8d 50 38          	lea    0x38(%rax),%rdx
    303d:	8b 85 d8 fe ff ff    	mov    -0x128(%rbp),%eax
    3043:	48 98                	cltq   
    3045:	48 89 c6             	mov    %rax,%rsi
    3048:	48 89 d7             	mov    %rdx,%rdi
    304b:	e8 de 2d 00 00       	callq  5e2e <_ZNSt6vectorIiSaIiEE7reserveEm>
    3050:	48 8d 85 40 ff ff ff 	lea    -0xc0(%rbp),%rax
    3057:	48 89 c7             	mov    %rax,%rdi
    305a:	e8 2f 1e 00 00       	callq  4e8e <_ZNSt6vectorISt4pairIiiESaIS1_EE5beginEv>
    305f:	48 89 85 e8 fe ff ff 	mov    %rax,-0x118(%rbp)
    3066:	48 8d 85 40 ff ff ff 	lea    -0xc0(%rbp),%rax
    306d:	48 89 c7             	mov    %rax,%rdi
    3070:	e8 61 1e 00 00       	callq  4ed6 <_ZNSt6vectorISt4pairIiiESaIS1_EE3endEv>
    3075:	48 89 85 30 ff ff ff 	mov    %rax,-0xd0(%rbp)
    307c:	48 8d 95 30 ff ff ff 	lea    -0xd0(%rbp),%rdx
    3083:	48 8d 85 e8 fe ff ff 	lea    -0x118(%rbp),%rax
    308a:	48 89 d6             	mov    %rdx,%rsi
    308d:	48 89 c7             	mov    %rax,%rdi
    3090:	e8 8d 1e 00 00       	callq  4f22 <_ZN9__gnu_cxxneIPSt4pairIiiESt6vectorIS2_SaIS2_EEEEbRKNS_17__normal_iteratorIT_T0_EESC_>
    3095:	84 c0                	test   %al,%al
    3097:	0f 84 df 00 00 00    	je     317c <_Z22multiPurposeThreadTestim+0x3b7>
    309d:	8b 85 cc fe ff ff    	mov    -0x134(%rbp),%eax
    30a3:	48 63 d0             	movslq %eax,%rdx
    30a6:	48 89 d0             	mov    %rdx,%rax
    30a9:	48 c1 e0 02          	shl    $0x2,%rax
    30ad:	48 01 d0             	add    %rdx,%rax
    30b0:	48 c1 e0 04          	shl    $0x4,%rax
    30b4:	48 89 c2             	mov    %rax,%rdx
    30b7:	48 8b 85 f8 fe ff ff 	mov    -0x108(%rbp),%rax
    30be:	48 01 d0             	add    %rdx,%rax
    30c1:	48 8d 58 38          	lea    0x38(%rax),%rbx
    30c5:	48 8d 85 e8 fe ff ff 	lea    -0x118(%rbp),%rax
    30cc:	48 89 c7             	mov    %rax,%rdi
    30cf:	e8 aa 1e 00 00       	callq  4f7e <_ZNK9__gnu_cxx17__normal_iteratorIPSt4pairIiiESt6vectorIS2_SaIS2_EEEdeEv>
    30d4:	48 89 c6             	mov    %rax,%rsi
    30d7:	48 89 df             	mov    %rbx,%rdi
    30da:	e8 77 2b 00 00       	callq  5c56 <_ZNSt6vectorIiSaIiEE9push_backERKi>
    30df:	83 85 d0 fe ff ff 01 	addl   $0x1,-0x130(%rbp)
    30e6:	8b 85 d0 fe ff ff    	mov    -0x130(%rbp),%eax
    30ec:	3b 85 d8 fe ff ff    	cmp    -0x128(%rbp),%eax
    30f2:	75 74                	jne    3168 <_Z22multiPurposeThreadTestim+0x3a3>
    30f4:	48 8d 95 e8 fe ff ff 	lea    -0x118(%rbp),%rdx
    30fb:	48 8d 85 30 ff ff ff 	lea    -0xd0(%rbp),%rax
    3102:	48 89 d6             	mov    %rdx,%rsi
    3105:	48 89 c7             	mov    %rax,%rdi
    3108:	e8 39 2e 00 00       	callq  5f46 <_ZN9__gnu_cxx17__normal_iteratorIPKSt4pairIiiESt6vectorIS2_SaIS2_EEEC1IPS2_EERKNS0_IT_NS_11__enable_ifIXsrSt10__are_sameISB_SA_E7__valueES7_E6__typeEEE>
    310d:	48 8d 85 40 ff ff ff 	lea    -0xc0(%rbp),%rax
    3114:	48 89 c7             	mov    %rax,%rdi
    3117:	e8 72 1d 00 00       	callq  4e8e <_ZNSt6vectorISt4pairIiiESaIS1_EE5beginEv>
    311c:	48 89 85 10 ff ff ff 	mov    %rax,-0xf0(%rbp)
    3123:	48 8d 95 10 ff ff ff 	lea    -0xf0(%rbp),%rdx
    312a:	48 8d 85 20 ff ff ff 	lea    -0xe0(%rbp),%rax
    3131:	48 89 d6             	mov    %rdx,%rsi
    3134:	48 89 c7             	mov    %rax,%rdi
    3137:	e8 0a 2e 00 00       	callq  5f46 <_ZN9__gnu_cxx17__normal_iteratorIPKSt4pairIiiESt6vectorIS2_SaIS2_EEEC1IPS2_EERKNS0_IT_NS_11__enable_ifIXsrSt10__are_sameISB_SA_E7__valueES7_E6__typeEEE>
    313c:	48 8b 95 30 ff ff ff 	mov    -0xd0(%rbp),%rdx
    3143:	48 8b 8d 20 ff ff ff 	mov    -0xe0(%rbp),%rcx
    314a:	48 8d 85 40 ff ff ff 	lea    -0xc0(%rbp),%rax
    3151:	48 89 ce             	mov    %rcx,%rsi
    3154:	48 89 c7             	mov    %rax,%rdi
    3157:	e8 14 2e 00 00       	callq  5f70 <_ZNSt6vectorISt4pairIiiESaIS1_EE5eraseEN9__gnu_cxx17__normal_iteratorIPKS1_S3_EES8_>
    315c:	c7 85 d0 fe ff ff 00 	movl   $0x0,-0x130(%rbp)
    3163:	00 00 00 
    3166:	eb 14                	jmp    317c <_Z22multiPurposeThreadTestim+0x3b7>
    3168:	48 8d 85 e8 fe ff ff 	lea    -0x118(%rbp),%rax
    316f:	48 89 c7             	mov    %rax,%rdi
    3172:	e8 e7 1d 00 00       	callq  4f5e <_ZN9__gnu_cxx17__normal_iteratorIPSt4pairIiiESt6vectorIS2_SaIS2_EEEppEv>
    3177:	e9 ea fe ff ff       	jmpq   3066 <_Z22multiPurposeThreadTestim+0x2a1>
    317c:	83 85 cc fe ff ff 01 	addl   $0x1,-0x134(%rbp)
    3183:	e9 7b fe ff ff       	jmpq   3003 <_Z22multiPurposeThreadTestim+0x23e>
    3188:	c7 85 cc fe ff ff 00 	movl   $0x0,-0x134(%rbp)
    318f:	00 00 00 
    3192:	8b 85 cc fe ff ff    	mov    -0x134(%rbp),%eax
    3198:	3b 85 bc fe ff ff    	cmp    -0x144(%rbp),%eax
    319e:	7d 47                	jge    31e7 <_Z22multiPurposeThreadTestim+0x422>
    31a0:	8b 85 cc fe ff ff    	mov    -0x134(%rbp),%eax
    31a6:	48 63 d0             	movslq %eax,%rdx
    31a9:	48 89 d0             	mov    %rdx,%rax
    31ac:	48 c1 e0 02          	shl    $0x2,%rax
    31b0:	48 01 d0             	add    %rdx,%rax
    31b3:	48 c1 e0 04          	shl    $0x4,%rax
    31b7:	48 89 c2             	mov    %rax,%rdx
    31ba:	48 8b 85 f8 fe ff ff 	mov    -0x108(%rbp),%rax
    31c1:	48 01 d0             	add    %rdx,%rax
    31c4:	48 8d 50 20          	lea    0x20(%rax),%rdx
    31c8:	8b 85 d8 fe ff ff    	mov    -0x128(%rbp),%eax
    31ce:	c1 e0 03             	shl    $0x3,%eax
    31d1:	48 98                	cltq   
    31d3:	48 89 c6             	mov    %rax,%rsi
    31d6:	48 89 d7             	mov    %rdx,%rdi
    31d9:	e8 50 2c 00 00       	callq  5e2e <_ZNSt6vectorIiSaIiEE7reserveEm>
    31de:	83 85 cc fe ff ff 01 	addl   $0x1,-0x134(%rbp)
    31e5:	eb ab                	jmp    3192 <_Z22multiPurposeThreadTestim+0x3cd>
    31e7:	c7 85 cc fe ff ff 00 	movl   $0x0,-0x134(%rbp)
    31ee:	00 00 00 
    31f1:	c7 85 d0 fe ff ff 00 	movl   $0x0,-0x130(%rbp)
    31f8:	00 00 00 
    31fb:	8b 85 d8 fe ff ff    	mov    -0x128(%rbp),%eax
    3201:	0f af 85 bc fe ff ff 	imul   -0x144(%rbp),%eax
    3208:	c1 e0 03             	shl    $0x3,%eax
    320b:	89 85 e4 fe ff ff    	mov    %eax,-0x11c(%rbp)
    3211:	eb 01                	jmp    3214 <_Z22multiPurposeThreadTestim+0x44f>
    3213:	90                   	nop
    3214:	8b 85 d0 fe ff ff    	mov    -0x130(%rbp),%eax
    321a:	3b 85 e4 fe ff ff    	cmp    -0x11c(%rbp),%eax
    3220:	0f 8d f8 00 00 00    	jge    331e <_Z22multiPurposeThreadTestim+0x559>
    3226:	48 8d 85 40 ff ff ff 	lea    -0xc0(%rbp),%rax
    322d:	48 89 85 00 ff ff ff 	mov    %rax,-0x100(%rbp)
    3234:	48 8b 85 00 ff ff ff 	mov    -0x100(%rbp),%rax
    323b:	48 89 c7             	mov    %rax,%rdi
    323e:	e8 4b 1c 00 00       	callq  4e8e <_ZNSt6vectorISt4pairIiiESaIS1_EE5beginEv>
    3243:	48 89 85 10 ff ff ff 	mov    %rax,-0xf0(%rbp)
    324a:	48 8b 85 00 ff ff ff 	mov    -0x100(%rbp),%rax
    3251:	48 89 c7             	mov    %rax,%rdi
    3254:	e8 7d 1c 00 00       	callq  4ed6 <_ZNSt6vectorISt4pairIiiESaIS1_EE3endEv>
    3259:	48 89 85 20 ff ff ff 	mov    %rax,-0xe0(%rbp)
    3260:	48 8d 95 20 ff ff ff 	lea    -0xe0(%rbp),%rdx
    3267:	48 8d 85 10 ff ff ff 	lea    -0xf0(%rbp),%rax
    326e:	48 89 d6             	mov    %rdx,%rsi
    3271:	48 89 c7             	mov    %rax,%rdi
    3274:	e8 a9 1c 00 00       	callq  4f22 <_ZN9__gnu_cxxneIPSt4pairIiiESt6vectorIS2_SaIS2_EEEEbRKNS_17__normal_iteratorIT_T0_EESC_>
    3279:	84 c0                	test   %al,%al
    327b:	74 96                	je     3213 <_Z22multiPurposeThreadTestim+0x44e>
    327d:	48 8d 85 10 ff ff ff 	lea    -0xf0(%rbp),%rax
    3284:	48 89 c7             	mov    %rax,%rdi
    3287:	e8 f2 1c 00 00       	callq  4f7e <_ZNK9__gnu_cxx17__normal_iteratorIPSt4pairIiiESt6vectorIS2_SaIS2_EEEdeEv>
    328c:	48 8b 00             	mov    (%rax),%rax
    328f:	48 89 85 30 ff ff ff 	mov    %rax,-0xd0(%rbp)
    3296:	8b 85 cc fe ff ff    	mov    -0x134(%rbp),%eax
    329c:	48 63 d0             	movslq %eax,%rdx
    329f:	48 89 d0             	mov    %rdx,%rax
    32a2:	48 c1 e0 02          	shl    $0x2,%rax
    32a6:	48 01 d0             	add    %rdx,%rax
    32a9:	48 c1 e0 04          	shl    $0x4,%rax
    32ad:	48 89 c2             	mov    %rax,%rdx
    32b0:	48 8b 85 f8 fe ff ff 	mov    -0x108(%rbp),%rax
    32b7:	48 01 d0             	add    %rdx,%rax
    32ba:	48 8d 50 20          	lea    0x20(%rax),%rdx
    32be:	48 8d 85 30 ff ff ff 	lea    -0xd0(%rbp),%rax
    32c5:	48 89 c6             	mov    %rax,%rsi
    32c8:	48 89 d7             	mov    %rdx,%rdi
    32cb:	e8 86 29 00 00       	callq  5c56 <_ZNSt6vectorIiSaIiEE9push_backERKi>
    32d0:	83 85 cc fe ff ff 01 	addl   $0x1,-0x134(%rbp)
    32d7:	83 85 d0 fe ff ff 01 	addl   $0x1,-0x130(%rbp)
    32de:	8b 85 cc fe ff ff    	mov    -0x134(%rbp),%eax
    32e4:	3b 85 bc fe ff ff    	cmp    -0x144(%rbp),%eax
    32ea:	75 0a                	jne    32f6 <_Z22multiPurposeThreadTestim+0x531>
    32ec:	c7 85 cc fe ff ff 00 	movl   $0x0,-0x134(%rbp)
    32f3:	00 00 00 
    32f6:	8b 85 d0 fe ff ff    	mov    -0x130(%rbp),%eax
    32fc:	3b 85 e4 fe ff ff    	cmp    -0x11c(%rbp),%eax
    3302:	7f 14                	jg     3318 <_Z22multiPurposeThreadTestim+0x553>
    3304:	48 8d 85 10 ff ff ff 	lea    -0xf0(%rbp),%rax
    330b:	48 89 c7             	mov    %rax,%rdi
    330e:	e8 4b 1c 00 00       	callq  4f5e <_ZN9__gnu_cxx17__normal_iteratorIPSt4pairIiiESt6vectorIS2_SaIS2_EEEppEv>
    3313:	e9 48 ff ff ff       	jmpq   3260 <_Z22multiPurposeThreadTestim+0x49b>
    3318:	90                   	nop
    3319:	e9 f5 fe ff ff       	jmpq   3213 <_Z22multiPurposeThreadTestim+0x44e>
    331e:	c7 85 cc fe ff ff 00 	movl   $0x0,-0x134(%rbp)
    3325:	00 00 00 
    3328:	8b 85 cc fe ff ff    	mov    -0x134(%rbp),%eax
    332e:	3b 85 bc fe ff ff    	cmp    -0x144(%rbp),%eax
    3334:	0f 8d 0d 01 00 00    	jge    3447 <_Z22multiPurposeThreadTestim+0x682>
    333a:	8b 85 cc fe ff ff    	mov    -0x134(%rbp),%eax
    3340:	48 63 d0             	movslq %eax,%rdx
    3343:	48 89 d0             	mov    %rdx,%rax
    3346:	48 c1 e0 02          	shl    $0x2,%rax
    334a:	48 01 d0             	add    %rdx,%rax
    334d:	48 c1 e0 04          	shl    $0x4,%rax
    3351:	48 89 c2             	mov    %rax,%rdx
    3354:	48 8b 85 f8 fe ff ff 	mov    -0x108(%rbp),%rax
    335b:	48 01 d0             	add    %rdx,%rax
    335e:	48 8d 50 08          	lea    0x8(%rax),%rdx
    3362:	8b 85 d8 fe ff ff    	mov    -0x128(%rbp),%eax
    3368:	48 98                	cltq   
    336a:	48 89 c6             	mov    %rax,%rsi
    336d:	48 89 d7             	mov    %rdx,%rdi
    3370:	e8 a1 29 00 00       	callq  5d16 <_ZNSt6vectorISt4pairIiiESaIS1_EE7reserveEm>
    3375:	c7 85 d4 fe ff ff 00 	movl   $0x0,-0x12c(%rbp)
    337c:	00 00 00 
    337f:	8b 85 d4 fe ff ff    	mov    -0x12c(%rbp),%eax
    3385:	3b 85 d8 fe ff ff    	cmp    -0x128(%rbp),%eax
    338b:	0f 8d aa 00 00 00    	jge    343b <_Z22multiPurposeThreadTestim+0x676>
    3391:	e8 9a e6 ff ff       	callq  1a30 <rand@plt>
    3396:	89 85 e8 fe ff ff    	mov    %eax,-0x118(%rbp)
    339c:	8b 85 cc fe ff ff    	mov    -0x134(%rbp),%eax
    33a2:	48 63 d0             	movslq %eax,%rdx
    33a5:	48 89 d0             	mov    %rdx,%rax
    33a8:	48 c1 e0 02          	shl    $0x2,%rax
    33ac:	48 01 d0             	add    %rdx,%rax
    33af:	48 c1 e0 04          	shl    $0x4,%rax
    33b3:	48 89 c2             	mov    %rax,%rdx
    33b6:	48 8b 85 f8 fe ff ff 	mov    -0x108(%rbp),%rax
    33bd:	48 01 d0             	add    %rdx,%rax
    33c0:	48 8d 58 08          	lea    0x8(%rax),%rbx
    33c4:	48 8d 95 e8 fe ff ff 	lea    -0x118(%rbp),%rdx
    33cb:	48 8d 85 e8 fe ff ff 	lea    -0x118(%rbp),%rax
    33d2:	48 89 d6             	mov    %rdx,%rsi
    33d5:	48 89 c7             	mov    %rax,%rdi
    33d8:	e8 d8 27 00 00       	callq  5bb5 <_ZSt9make_pairIRiS0_ESt4pairINSt17__decay_and_stripIT_E6__typeENS2_IT0_E6__typeEEOS3_OS6_>
    33dd:	48 89 85 30 ff ff ff 	mov    %rax,-0xd0(%rbp)
    33e4:	48 8d 85 30 ff ff ff 	lea    -0xd0(%rbp),%rax
    33eb:	48 89 c6             	mov    %rax,%rsi
    33ee:	48 89 df             	mov    %rbx,%rdi
    33f1:	e8 2e 28 00 00       	callq  5c24 <_ZNSt6vectorISt4pairIiiESaIS1_EE9push_backEOS1_>
    33f6:	48 8d 95 e8 fe ff ff 	lea    -0x118(%rbp),%rdx
    33fd:	48 8d 85 e8 fe ff ff 	lea    -0x118(%rbp),%rax
    3404:	48 89 d6             	mov    %rdx,%rsi
    3407:	48 89 c7             	mov    %rax,%rdi
    340a:	e8 a6 27 00 00       	callq  5bb5 <_ZSt9make_pairIRiS0_ESt4pairINSt17__decay_and_stripIT_E6__typeENS2_IT0_E6__typeEEOS3_OS6_>
    340f:	48 89 85 30 ff ff ff 	mov    %rax,-0xd0(%rbp)
    3416:	48 8d 95 30 ff ff ff 	lea    -0xd0(%rbp),%rdx
    341d:	48 8d 85 40 ff ff ff 	lea    -0xc0(%rbp),%rax
    3424:	48 89 d6             	mov    %rdx,%rsi
    3427:	48 89 c7             	mov    %rax,%rdi
    342a:	e8 f5 27 00 00       	callq  5c24 <_ZNSt6vectorISt4pairIiiESaIS1_EE9push_backEOS1_>
    342f:	83 85 d4 fe ff ff 01 	addl   $0x1,-0x12c(%rbp)
    3436:	e9 44 ff ff ff       	jmpq   337f <_Z22multiPurposeThreadTestim+0x5ba>
    343b:	83 85 cc fe ff ff 01 	addl   $0x1,-0x134(%rbp)
    3442:	e9 e1 fe ff ff       	jmpq   3328 <_Z22multiPurposeThreadTestim+0x563>
    3447:	c7 85 cc fe ff ff 00 	movl   $0x0,-0x134(%rbp)
    344e:	00 00 00 
    3451:	8b 85 cc fe ff ff    	mov    -0x134(%rbp),%eax
    3457:	3b 85 bc fe ff ff    	cmp    -0x144(%rbp),%eax
    345d:	7d 5e                	jge    34bd <_Z22multiPurposeThreadTestim+0x6f8>
    345f:	8b 85 cc fe ff ff    	mov    -0x134(%rbp),%eax
    3465:	48 63 d0             	movslq %eax,%rdx
    3468:	48 89 d0             	mov    %rdx,%rax
    346b:	48 c1 e0 02          	shl    $0x2,%rax
    346f:	48 01 d0             	add    %rdx,%rax
    3472:	48 c1 e0 04          	shl    $0x4,%rax
    3476:	48 89 c2             	mov    %rax,%rdx
    3479:	48 8b 85 f8 fe ff ff 	mov    -0x108(%rbp),%rax
    3480:	48 01 c2             	add    %rax,%rdx
    3483:	8b 85 cc fe ff ff    	mov    -0x134(%rbp),%eax
    3489:	48 98                	cltq   
    348b:	48 8d 0c c5 00 00 00 	lea    0x0(,%rax,8),%rcx
    3492:	00 
    3493:	48 8b 85 f0 fe ff ff 	mov    -0x110(%rbp),%rax
    349a:	48 01 c8             	add    %rcx,%rax
    349d:	48 89 d1             	mov    %rdx,%rcx
    34a0:	48 8d 15 64 eb ff ff 	lea    -0x149c(%rip),%rdx        # 200b <_Z10all_in_onePv>
    34a7:	be 00 00 00 00       	mov    $0x0,%esi
    34ac:	48 89 c7             	mov    %rax,%rdi
    34af:	e8 14 e8 ff ff       	callq  1cc8 <pthread_create@plt>
    34b4:	83 85 cc fe ff ff 01 	addl   $0x1,-0x134(%rbp)
    34bb:	eb 94                	jmp    3451 <_Z22multiPurposeThreadTestim+0x68c>
    34bd:	48 8d 85 10 ff ff ff 	lea    -0xf0(%rbp),%rax
    34c4:	48 89 c6             	mov    %rax,%rsi
    34c7:	bf 00 00 00 00       	mov    $0x0,%edi
    34cc:	e8 5f e6 ff ff       	callq  1b30 <clock_gettime@plt>
    34d1:	c7 85 cc fe ff ff 00 	movl   $0x0,-0x134(%rbp)
    34d8:	00 00 00 
    34db:	8b 85 cc fe ff ff    	mov    -0x134(%rbp),%eax
    34e1:	3b 85 bc fe ff ff    	cmp    -0x144(%rbp),%eax
    34e7:	7d 33                	jge    351c <_Z22multiPurposeThreadTestim+0x757>
    34e9:	8b 85 cc fe ff ff    	mov    -0x134(%rbp),%eax
    34ef:	48 98                	cltq   
    34f1:	48 8d 14 c5 00 00 00 	lea    0x0(,%rax,8),%rdx
    34f8:	00 
    34f9:	48 8b 85 f0 fe ff ff 	mov    -0x110(%rbp),%rax
    3500:	48 01 d0             	add    %rdx,%rax
    3503:	48 8b 00             	mov    (%rax),%rax
    3506:	be 00 00 00 00       	mov    $0x0,%esi
    350b:	48 89 c7             	mov    %rax,%rdi
    350e:	e8 8d e5 ff ff       	callq  1aa0 <pthread_join@plt>
    3513:	83 85 cc fe ff ff 01 	addl   $0x1,-0x134(%rbp)
    351a:	eb bf                	jmp    34db <_Z22multiPurposeThreadTestim+0x716>
    351c:	48 8d 85 20 ff ff ff 	lea    -0xe0(%rbp),%rax
    3523:	48 89 c6             	mov    %rax,%rsi
    3526:	bf 00 00 00 00       	mov    $0x0,%edi
    352b:	e8 00 e6 ff ff       	callq  1b30 <clock_gettime@plt>
    3530:	48 8b 95 28 ff ff ff 	mov    -0xd8(%rbp),%rdx
    3537:	48 8b 85 18 ff ff ff 	mov    -0xe8(%rbp),%rax
    353e:	48 29 c2             	sub    %rax,%rdx
    3541:	48 89 d0             	mov    %rdx,%rax
    3544:	48 89 85 38 ff ff ff 	mov    %rax,-0xc8(%rbp)
    354b:	48 8b 95 20 ff ff ff 	mov    -0xe0(%rbp),%rdx
    3552:	48 8b 85 10 ff ff ff 	mov    -0xf0(%rbp),%rax
    3559:	48 29 c2             	sub    %rax,%rdx
    355c:	48 89 d0             	mov    %rdx,%rax
    355f:	48 89 85 30 ff ff ff 	mov    %rax,-0xd0(%rbp)
    3566:	48 8b 85 30 ff ff ff 	mov    -0xd0(%rbp),%rax
    356d:	48 69 f0 a0 86 01 00 	imul   $0x186a0,%rax,%rsi
    3574:	48 8b 8d 38 ff ff ff 	mov    -0xc8(%rbp),%rcx
    357b:	48 ba cf f7 53 e3 a5 	movabs $0x20c49ba5e353f7cf,%rdx
    3582:	9b c4 20 
    3585:	48 89 c8             	mov    %rcx,%rax
    3588:	48 f7 ea             	imul   %rdx
    358b:	48 c1 fa 07          	sar    $0x7,%rdx
    358f:	48 89 c8             	mov    %rcx,%rax
    3592:	48 c1 f8 3f          	sar    $0x3f,%rax
    3596:	48 29 c2             	sub    %rax,%rdx
    3599:	48 89 d0             	mov    %rdx,%rax
    359c:	48 01 f0             	add    %rsi,%rax
    359f:	48 89 85 08 ff ff ff 	mov    %rax,-0xf8(%rbp)
    35a6:	48 83 bd f0 fe ff ff 	cmpq   $0x0,-0x110(%rbp)
    35ad:	00 
    35ae:	74 0f                	je     35bf <_Z22multiPurposeThreadTestim+0x7fa>
    35b0:	48 8b 85 f0 fe ff ff 	mov    -0x110(%rbp),%rax
    35b7:	48 89 c7             	mov    %rax,%rdi
    35ba:	e8 e1 e5 ff ff       	callq  1ba0 <_ZdaPv@plt>
    35bf:	48 83 bd f8 fe ff ff 	cmpq   $0x0,-0x108(%rbp)
    35c6:	00 
    35c7:	74 77                	je     3640 <_Z22multiPurposeThreadTestim+0x87b>
    35c9:	48 8b 85 f8 fe ff ff 	mov    -0x108(%rbp),%rax
    35d0:	48 83 e8 08          	sub    $0x8,%rax
    35d4:	48 8b 10             	mov    (%rax),%rdx
    35d7:	48 89 d0             	mov    %rdx,%rax
    35da:	48 c1 e0 02          	shl    $0x2,%rax
    35de:	48 01 d0             	add    %rdx,%rax
    35e1:	48 c1 e0 04          	shl    $0x4,%rax
    35e5:	48 89 c2             	mov    %rax,%rdx
    35e8:	48 8b 85 f8 fe ff ff 	mov    -0x108(%rbp),%rax
    35ef:	48 8d 1c 02          	lea    (%rdx,%rax,1),%rbx
    35f3:	48 3b 9d f8 fe ff ff 	cmp    -0x108(%rbp),%rbx
    35fa:	74 0e                	je     360a <_Z22multiPurposeThreadTestim+0x845>
    35fc:	48 83 eb 50          	sub    $0x50,%rbx
    3600:	48 89 df             	mov    %rbx,%rdi
    3603:	e8 6c 13 00 00       	callq  4974 <_ZN8all_dataD1Ev>
    3608:	eb e9                	jmp    35f3 <_Z22multiPurposeThreadTestim+0x82e>
    360a:	48 8b 85 f8 fe ff ff 	mov    -0x108(%rbp),%rax
    3611:	48 83 e8 08          	sub    $0x8,%rax
    3615:	48 8b 10             	mov    (%rax),%rdx
    3618:	48 89 d0             	mov    %rdx,%rax
    361b:	48 c1 e0 02          	shl    $0x2,%rax
    361f:	48 01 d0             	add    %rdx,%rax
    3622:	48 c1 e0 04          	shl    $0x4,%rax
    3626:	48 8d 50 08          	lea    0x8(%rax),%rdx
    362a:	48 8b 85 f8 fe ff ff 	mov    -0x108(%rbp),%rax
    3631:	48 83 e8 08          	sub    $0x8,%rax
    3635:	48 89 d6             	mov    %rdx,%rsi
    3638:	48 89 c7             	mov    %rax,%rdi
    363b:	e8 70 e6 ff ff       	callq  1cb0 <_ZdaPvm@plt>
    3640:	48 8b 9d 08 ff ff ff 	mov    -0xf8(%rbp),%rbx
    3647:	48 8d 85 40 ff ff ff 	lea    -0xc0(%rbp),%rax
    364e:	48 89 c7             	mov    %rax,%rdi
    3651:	e8 0c 20 00 00       	callq  5662 <_ZNSt6vectorISt4pairIiiESaIS1_EED1Ev>
    3656:	48 8d 85 60 ff ff ff 	lea    -0xa0(%rbp),%rax
    365d:	48 89 c7             	mov    %rax,%rdi
    3660:	e8 2f 24 00 00       	callq  5a94 <_ZN9HashTableIiiED1Ev>
    3665:	48 89 d8             	mov    %rbx,%rax
    3668:	48 8b 4d d8          	mov    -0x28(%rbp),%rcx
    366c:	64 48 33 0c 25 28 00 	xor    %fs:0x28,%rcx
    3673:	00 00 
    3675:	74 33                	je     36aa <_Z22multiPurposeThreadTestim+0x8e5>
    3677:	eb 2c                	jmp    36a5 <_Z22multiPurposeThreadTestim+0x8e0>
    3679:	48 89 c3             	mov    %rax,%rbx
    367c:	48 8d 85 40 ff ff ff 	lea    -0xc0(%rbp),%rax
    3683:	48 89 c7             	mov    %rax,%rdi
    3686:	e8 d7 1f 00 00       	callq  5662 <_ZNSt6vectorISt4pairIiiESaIS1_EED1Ev>
    368b:	48 8d 85 60 ff ff ff 	lea    -0xa0(%rbp),%rax
    3692:	48 89 c7             	mov    %rax,%rdi
    3695:	e8 fa 23 00 00       	callq  5a94 <_ZN9HashTableIiiED1Ev>
    369a:	48 89 d8             	mov    %rbx,%rax
    369d:	48 89 c7             	mov    %rax,%rdi
    36a0:	e8 bb e5 ff ff       	callq  1c60 <_Unwind_Resume@plt>
    36a5:	e8 e6 e4 ff ff       	callq  1b90 <__stack_chk_fail@plt>
    36aa:	48 81 c4 38 01 00 00 	add    $0x138,%rsp
    36b1:	5b                   	pop    %rbx
    36b2:	41 5c                	pop    %r12
    36b4:	41 5d                	pop    %r13
    36b6:	5d                   	pop    %rbp
    36b7:	c3                   	retq   

00000000000036b8 <_Z18nbr_of_thread_compv>:
    36b8:	55                   	push   %rbp
    36b9:	48 89 e5             	mov    %rsp,%rbp
    36bc:	41 55                	push   %r13
    36be:	41 54                	push   %r12
    36c0:	53                   	push   %rbx
    36c1:	48 83 ec 78          	sub    $0x78,%rsp
    36c5:	64 48 8b 04 25 28 00 	mov    %fs:0x28,%rax
    36cc:	00 00 
    36ce:	48 89 45 d8          	mov    %rax,-0x28(%rbp)
    36d2:	31 c0                	xor    %eax,%eax
    36d4:	c7 45 d0 08 00 00 00 	movl   $0x8,-0x30(%rbp)
    36db:	c7 45 d4 10 00 00 00 	movl   $0x10,-0x2c(%rbp)
    36e2:	48 8d 45 d0          	lea    -0x30(%rbp),%rax
    36e6:	49 89 c4             	mov    %rax,%r12
    36e9:	41 bd 02 00 00 00    	mov    $0x2,%r13d
    36ef:	48 8d 45 88          	lea    -0x78(%rbp),%rax
    36f3:	48 89 c7             	mov    %rax,%rdi
    36f6:	e8 37 29 00 00       	callq  6032 <_ZNSaIiEC1Ev>
    36fb:	48 8d 55 88          	lea    -0x78(%rbp),%rdx
    36ff:	4c 89 e6             	mov    %r12,%rsi
    3702:	4c 89 ef             	mov    %r13,%rdi
    3705:	4c 89 e1             	mov    %r12,%rcx
    3708:	4c 89 eb             	mov    %r13,%rbx
    370b:	48 89 df             	mov    %rbx,%rdi
    370e:	48 8d 45 b0          	lea    -0x50(%rbp),%rax
    3712:	48 89 d1             	mov    %rdx,%rcx
    3715:	48 89 fa             	mov    %rdi,%rdx
    3718:	48 89 c7             	mov    %rax,%rdi
    371b:	e8 2e 29 00 00       	callq  604e <_ZNSt6vectorIiSaIiEEC1ESt16initializer_listIiERKS0_>
    3720:	48 8d 45 88          	lea    -0x78(%rbp),%rax
    3724:	48 89 c7             	mov    %rax,%rdi
    3727:	e8 a2 1f 00 00       	callq  56ce <_ZNSaIiED1Ev>
    372c:	48 c7 45 90 00 00 00 	movq   $0x0,-0x70(%rbp)
    3733:	00 
    3734:	48 c7 45 98 c8 00 00 	movq   $0xc8,-0x68(%rbp)
    373b:	00 
    373c:	48 8d 45 b0          	lea    -0x50(%rbp),%rax
    3740:	48 89 45 a0          	mov    %rax,-0x60(%rbp)
    3744:	48 8b 45 a0          	mov    -0x60(%rbp),%rax
    3748:	48 89 c7             	mov    %rax,%rdi
    374b:	e8 64 13 00 00       	callq  4ab4 <_ZNSt6vectorIiSaIiEE5beginEv>
    3750:	48 89 45 80          	mov    %rax,-0x80(%rbp)
    3754:	48 8b 45 a0          	mov    -0x60(%rbp),%rax
    3758:	48 89 c7             	mov    %rax,%rdi
    375b:	e8 9c 13 00 00       	callq  4afc <_ZNSt6vectorIiSaIiEE3endEv>
    3760:	48 89 45 88          	mov    %rax,-0x78(%rbp)
    3764:	48 8d 55 88          	lea    -0x78(%rbp),%rdx
    3768:	48 8d 45 80          	lea    -0x80(%rbp),%rax
    376c:	48 89 d6             	mov    %rdx,%rsi
    376f:	48 89 c7             	mov    %rax,%rdi
    3772:	e8 d1 13 00 00       	callq  4b48 <_ZN9__gnu_cxxneIPiSt6vectorIiSaIiEEEEbRKNS_17__normal_iteratorIT_T0_EESA_>
    3777:	84 c0                	test   %al,%al
    3779:	0f 84 1a 01 00 00    	je     3899 <_Z18nbr_of_thread_compv+0x1e1>
    377f:	48 8d 45 80          	lea    -0x80(%rbp),%rax
    3783:	48 89 c7             	mov    %rax,%rdi
    3786:	e8 19 14 00 00       	callq  4ba4 <_ZNK9__gnu_cxx17__normal_iteratorIPiSt6vectorIiSaIiEEEdeEv>
    378b:	8b 00                	mov    (%rax),%eax
    378d:	89 85 7c ff ff ff    	mov    %eax,-0x84(%rbp)
    3793:	48 c7 45 90 00 00 00 	movq   $0x0,-0x70(%rbp)
    379a:	00 
    379b:	8b 85 7c ff ff ff    	mov    -0x84(%rbp),%eax
    37a1:	89 c6                	mov    %eax,%esi
    37a3:	48 8d 3d 76 b9 20 00 	lea    0x20b976(%rip),%rdi        # 20f120 <_ZSt4cout@@GLIBCXX_3.4>
    37aa:	e8 a1 e4 ff ff       	callq  1c50 <_ZNSolsEi@plt>
    37af:	48 8d 35 ba 64 00 00 	lea    0x64ba(%rip),%rsi        # 9c70 <_ZN6__pstl9execution2v1L5unseqE+0x41>
    37b6:	48 89 c7             	mov    %rax,%rdi
    37b9:	e8 92 e3 ff ff       	callq  1b50 <_ZStlsISt11char_traitsIcEERSt13basic_ostreamIcT_ES5_PKc@plt>
    37be:	48 89 c2             	mov    %rax,%rdx
    37c1:	48 8b 05 e0 b7 20 00 	mov    0x20b7e0(%rip),%rax        # 20efa8 <_ZSt4endlIcSt11char_traitsIcEERSt13basic_ostreamIT_T0_ES6_@GLIBCXX_3.4>
    37c8:	48 89 c6             	mov    %rax,%rsi
    37cb:	48 89 d7             	mov    %rdx,%rdi
    37ce:	e8 ad e3 ff ff       	callq  1b80 <_ZNSolsEPFRSoS_E@plt>
    37d3:	c7 85 78 ff ff ff 00 	movl   $0x0,-0x88(%rbp)
    37da:	00 00 00 
    37dd:	8b 85 78 ff ff ff    	mov    -0x88(%rbp),%eax
    37e3:	48 98                	cltq   
    37e5:	48 39 45 98          	cmp    %rax,-0x68(%rbp)
    37e9:	7e 47                	jle    3832 <_Z18nbr_of_thread_compv+0x17a>
    37eb:	8b 85 7c ff ff ff    	mov    -0x84(%rbp),%eax
    37f1:	be a0 86 01 00       	mov    $0x186a0,%esi
    37f6:	89 c7                	mov    %eax,%edi
    37f8:	e8 c8 f5 ff ff       	callq  2dc5 <_Z22multiPurposeThreadTestim>
    37fd:	48 89 45 a8          	mov    %rax,-0x58(%rbp)
    3801:	48 b8 30 7b 38 98 b0 	movabs $0x12c16b098387b30,%rax
    3808:	16 2c 01 
    380b:	48 39 45 a8          	cmp    %rax,-0x58(%rbp)
    380f:	7f 07                	jg     3818 <_Z18nbr_of_thread_compv+0x160>
    3811:	48 83 7d a8 00       	cmpq   $0x0,-0x58(%rbp)
    3816:	79 09                	jns    3821 <_Z18nbr_of_thread_compv+0x169>
    3818:	83 ad 78 ff ff ff 01 	subl   $0x1,-0x88(%rbp)
    381f:	eb 08                	jmp    3829 <_Z18nbr_of_thread_compv+0x171>
    3821:	48 8b 45 a8          	mov    -0x58(%rbp),%rax
    3825:	48 01 45 90          	add    %rax,-0x70(%rbp)
    3829:	83 85 78 ff ff ff 01 	addl   $0x1,-0x88(%rbp)
    3830:	eb ab                	jmp    37dd <_Z18nbr_of_thread_compv+0x125>
    3832:	48 8d 35 41 64 00 00 	lea    0x6441(%rip),%rsi        # 9c7a <_ZN6__pstl9execution2v1L5unseqE+0x4b>
    3839:	48 8d 3d e0 b8 20 00 	lea    0x20b8e0(%rip),%rdi        # 20f120 <_ZSt4cout@@GLIBCXX_3.4>
    3840:	e8 0b e3 ff ff       	callq  1b50 <_ZStlsISt11char_traitsIcEERSt13basic_ostreamIcT_ES5_PKc@plt>
    3845:	48 89 c1             	mov    %rax,%rcx
    3848:	48 8b 45 90          	mov    -0x70(%rbp),%rax
    384c:	48 99                	cqto   
    384e:	48 f7 7d 98          	idivq  -0x68(%rbp)
    3852:	48 89 c6             	mov    %rax,%rsi
    3855:	48 89 cf             	mov    %rcx,%rdi
    3858:	e8 13 e4 ff ff       	callq  1c70 <_ZNSolsEl@plt>
    385d:	48 89 c2             	mov    %rax,%rdx
    3860:	48 8b 05 41 b7 20 00 	mov    0x20b741(%rip),%rax        # 20efa8 <_ZSt4endlIcSt11char_traitsIcEERSt13basic_ostreamIT_T0_ES6_@GLIBCXX_3.4>
    3867:	48 89 c6             	mov    %rax,%rsi
    386a:	48 89 d7             	mov    %rdx,%rdi
    386d:	e8 0e e3 ff ff       	callq  1b80 <_ZNSolsEPFRSoS_E@plt>
    3872:	48 8b 05 2f b7 20 00 	mov    0x20b72f(%rip),%rax        # 20efa8 <_ZSt4endlIcSt11char_traitsIcEERSt13basic_ostreamIT_T0_ES6_@GLIBCXX_3.4>
    3879:	48 89 c6             	mov    %rax,%rsi
    387c:	48 8d 3d 9d b8 20 00 	lea    0x20b89d(%rip),%rdi        # 20f120 <_ZSt4cout@@GLIBCXX_3.4>
    3883:	e8 f8 e2 ff ff       	callq  1b80 <_ZNSolsEPFRSoS_E@plt>
    3888:	48 8d 45 80          	lea    -0x80(%rbp),%rax
    388c:	48 89 c7             	mov    %rax,%rdi
    388f:	e8 f0 12 00 00       	callq  4b84 <_ZN9__gnu_cxx17__normal_iteratorIPiSt6vectorIiSaIiEEEppEv>
    3894:	e9 cb fe ff ff       	jmpq   3764 <_Z18nbr_of_thread_compv+0xac>
    3899:	48 8d 45 b0          	lea    -0x50(%rbp),%rax
    389d:	48 89 c7             	mov    %rax,%rdi
    38a0:	e8 93 1e 00 00       	callq  5738 <_ZNSt6vectorIiSaIiEED1Ev>
    38a5:	90                   	nop
    38a6:	48 8b 45 d8          	mov    -0x28(%rbp),%rax
    38aa:	64 48 33 04 25 28 00 	xor    %fs:0x28,%rax
    38b1:	00 00 
    38b3:	74 3b                	je     38f0 <_Z18nbr_of_thread_compv+0x238>
    38b5:	eb 34                	jmp    38eb <_Z18nbr_of_thread_compv+0x233>
    38b7:	48 89 c3             	mov    %rax,%rbx
    38ba:	48 8d 45 88          	lea    -0x78(%rbp),%rax
    38be:	48 89 c7             	mov    %rax,%rdi
    38c1:	e8 08 1e 00 00       	callq  56ce <_ZNSaIiED1Ev>
    38c6:	48 89 d8             	mov    %rbx,%rax
    38c9:	48 89 c7             	mov    %rax,%rdi
    38cc:	e8 8f e3 ff ff       	callq  1c60 <_Unwind_Resume@plt>
    38d1:	48 89 c3             	mov    %rax,%rbx
    38d4:	48 8d 45 b0          	lea    -0x50(%rbp),%rax
    38d8:	48 89 c7             	mov    %rax,%rdi
    38db:	e8 58 1e 00 00       	callq  5738 <_ZNSt6vectorIiSaIiEED1Ev>
    38e0:	48 89 d8             	mov    %rbx,%rax
    38e3:	48 89 c7             	mov    %rax,%rdi
    38e6:	e8 75 e3 ff ff       	callq  1c60 <_Unwind_Resume@plt>
    38eb:	e8 a0 e2 ff ff       	callq  1b90 <__stack_chk_fail@plt>
    38f0:	48 83 c4 78          	add    $0x78,%rsp
    38f4:	5b                   	pop    %rbx
    38f5:	41 5c                	pop    %r12
    38f7:	41 5d                	pop    %r13
    38f9:	5d                   	pop    %rbp
    38fa:	c3                   	retq   

00000000000038fb <_Z9load_compv>:
    38fb:	55                   	push   %rbp
    38fc:	48 89 e5             	mov    %rsp,%rbp
    38ff:	41 55                	push   %r13
    3901:	41 54                	push   %r12
    3903:	53                   	push   %rbx
    3904:	48 81 ec 98 00 00 00 	sub    $0x98,%rsp
    390b:	64 48 8b 04 25 28 00 	mov    %fs:0x28,%rax
    3912:	00 00 
    3914:	48 89 45 d8          	mov    %rax,-0x28(%rbp)
    3918:	31 c0                	xor    %eax,%eax
    391a:	48 c7 45 b0 a0 86 01 	movq   $0x186a0,-0x50(%rbp)
    3921:	00 
    3922:	48 c7 45 b8 40 0d 03 	movq   $0x30d40,-0x48(%rbp)
    3929:	00 
    392a:	48 c7 45 c0 80 1a 06 	movq   $0x61a80,-0x40(%rbp)
    3931:	00 
    3932:	48 c7 45 c8 00 35 0c 	movq   $0xc3500,-0x38(%rbp)
    3939:	00 
    393a:	48 8d 45 b0          	lea    -0x50(%rbp),%rax
    393e:	49 89 c4             	mov    %rax,%r12
    3941:	41 bd 04 00 00 00    	mov    $0x4,%r13d
    3947:	48 8d 85 68 ff ff ff 	lea    -0x98(%rbp),%rax
    394e:	48 89 c7             	mov    %rax,%rdi
    3951:	e8 a4 27 00 00       	callq  60fa <_ZNSaImEC1Ev>
    3956:	48 8d 95 68 ff ff ff 	lea    -0x98(%rbp),%rdx
    395d:	4c 89 e6             	mov    %r12,%rsi
    3960:	4c 89 ef             	mov    %r13,%rdi
    3963:	4c 89 e1             	mov    %r12,%rcx
    3966:	4c 89 eb             	mov    %r13,%rbx
    3969:	48 89 df             	mov    %rbx,%rdi
    396c:	48 8d 45 90          	lea    -0x70(%rbp),%rax
    3970:	48 89 d1             	mov    %rdx,%rcx
    3973:	48 89 fa             	mov    %rdi,%rdx
    3976:	48 89 c7             	mov    %rax,%rdi
    3979:	e8 b4 27 00 00       	callq  6132 <_ZNSt6vectorImSaImEEC1ESt16initializer_listImERKS0_>
    397e:	48 8d 85 68 ff ff ff 	lea    -0x98(%rbp),%rax
    3985:	48 89 c7             	mov    %rax,%rdi
    3988:	e8 89 27 00 00       	callq  6116 <_ZNSaImED1Ev>
    398d:	48 c7 85 70 ff ff ff 	movq   $0x0,-0x90(%rbp)
    3994:	00 00 00 00 
    3998:	48 c7 85 78 ff ff ff 	movq   $0xc8,-0x88(%rbp)
    399f:	c8 00 00 00 
    39a3:	48 8d 45 90          	lea    -0x70(%rbp),%rax
    39a7:	48 89 45 80          	mov    %rax,-0x80(%rbp)
    39ab:	48 8b 45 80          	mov    -0x80(%rbp),%rax
    39af:	48 89 c7             	mov    %rax,%rdi
    39b2:	e8 6b 28 00 00       	callq  6222 <_ZNSt6vectorImSaImEE5beginEv>
    39b7:	48 89 85 60 ff ff ff 	mov    %rax,-0xa0(%rbp)
    39be:	48 8b 45 80          	mov    -0x80(%rbp),%rax
    39c2:	48 89 c7             	mov    %rax,%rdi
    39c5:	e8 a0 28 00 00       	callq  626a <_ZNSt6vectorImSaImEE3endEv>
    39ca:	48 89 85 68 ff ff ff 	mov    %rax,-0x98(%rbp)
    39d1:	48 8d 95 68 ff ff ff 	lea    -0x98(%rbp),%rdx
    39d8:	48 8d 85 60 ff ff ff 	lea    -0xa0(%rbp),%rax
    39df:	48 89 d6             	mov    %rdx,%rsi
    39e2:	48 89 c7             	mov    %rax,%rdi
    39e5:	e8 cc 28 00 00       	callq  62b6 <_ZN9__gnu_cxxneIPmSt6vectorImSaImEEEEbRKNS_17__normal_iteratorIT_T0_EESA_>
    39ea:	84 c0                	test   %al,%al
    39ec:	0f 84 33 01 00 00    	je     3b25 <_Z9load_compv+0x22a>
    39f2:	48 8d 85 60 ff ff ff 	lea    -0xa0(%rbp),%rax
    39f9:	48 89 c7             	mov    %rax,%rdi
    39fc:	e8 11 29 00 00       	callq  6312 <_ZNK9__gnu_cxx17__normal_iteratorIPmSt6vectorImSaImEEEdeEv>
    3a01:	48 8b 00             	mov    (%rax),%rax
    3a04:	89 85 5c ff ff ff    	mov    %eax,-0xa4(%rbp)
    3a0a:	48 c7 85 70 ff ff ff 	movq   $0x0,-0x90(%rbp)
    3a11:	00 00 00 00 
    3a15:	8b 85 5c ff ff ff    	mov    -0xa4(%rbp),%eax
    3a1b:	89 c6                	mov    %eax,%esi
    3a1d:	48 8d 3d fc b6 20 00 	lea    0x20b6fc(%rip),%rdi        # 20f120 <_ZSt4cout@@GLIBCXX_3.4>
    3a24:	e8 27 e2 ff ff       	callq  1c50 <_ZNSolsEi@plt>
    3a29:	48 8d 35 50 62 00 00 	lea    0x6250(%rip),%rsi        # 9c80 <_ZN6__pstl9execution2v1L5unseqE+0x51>
    3a30:	48 89 c7             	mov    %rax,%rdi
    3a33:	e8 18 e1 ff ff       	callq  1b50 <_ZStlsISt11char_traitsIcEERSt13basic_ostreamIcT_ES5_PKc@plt>
    3a38:	48 89 c2             	mov    %rax,%rdx
    3a3b:	48 8b 05 66 b5 20 00 	mov    0x20b566(%rip),%rax        # 20efa8 <_ZSt4endlIcSt11char_traitsIcEERSt13basic_ostreamIT_T0_ES6_@GLIBCXX_3.4>
    3a42:	48 89 c6             	mov    %rax,%rsi
    3a45:	48 89 d7             	mov    %rdx,%rdi
    3a48:	e8 33 e1 ff ff       	callq  1b80 <_ZNSolsEPFRSoS_E@plt>
    3a4d:	c7 85 58 ff ff ff 00 	movl   $0x0,-0xa8(%rbp)
    3a54:	00 00 00 
    3a57:	8b 85 58 ff ff ff    	mov    -0xa8(%rbp),%eax
    3a5d:	48 98                	cltq   
    3a5f:	48 39 85 78 ff ff ff 	cmp    %rax,-0x88(%rbp)
    3a66:	7e 4d                	jle    3ab5 <_Z9load_compv+0x1ba>
    3a68:	8b 85 5c ff ff ff    	mov    -0xa4(%rbp),%eax
    3a6e:	48 98                	cltq   
    3a70:	48 89 c6             	mov    %rax,%rsi
    3a73:	bf 08 00 00 00       	mov    $0x8,%edi
    3a78:	e8 48 f3 ff ff       	callq  2dc5 <_Z22multiPurposeThreadTestim>
    3a7d:	48 89 45 88          	mov    %rax,-0x78(%rbp)
    3a81:	48 b8 30 7b 38 98 b0 	movabs $0x12c16b098387b30,%rax
    3a88:	16 2c 01 
    3a8b:	48 39 45 88          	cmp    %rax,-0x78(%rbp)
    3a8f:	7f 07                	jg     3a98 <_Z9load_compv+0x19d>
    3a91:	48 83 7d 88 00       	cmpq   $0x0,-0x78(%rbp)
    3a96:	79 09                	jns    3aa1 <_Z9load_compv+0x1a6>
    3a98:	83 ad 58 ff ff ff 01 	subl   $0x1,-0xa8(%rbp)
    3a9f:	eb 0b                	jmp    3aac <_Z9load_compv+0x1b1>
    3aa1:	48 8b 45 88          	mov    -0x78(%rbp),%rax
    3aa5:	48 01 85 70 ff ff ff 	add    %rax,-0x90(%rbp)
    3aac:	83 85 58 ff ff ff 01 	addl   $0x1,-0xa8(%rbp)
    3ab3:	eb a2                	jmp    3a57 <_Z9load_compv+0x15c>
    3ab5:	48 8d 35 be 61 00 00 	lea    0x61be(%rip),%rsi        # 9c7a <_ZN6__pstl9execution2v1L5unseqE+0x4b>
    3abc:	48 8d 3d 5d b6 20 00 	lea    0x20b65d(%rip),%rdi        # 20f120 <_ZSt4cout@@GLIBCXX_3.4>
    3ac3:	e8 88 e0 ff ff       	callq  1b50 <_ZStlsISt11char_traitsIcEERSt13basic_ostreamIcT_ES5_PKc@plt>
    3ac8:	48 89 c1             	mov    %rax,%rcx
    3acb:	48 8b 85 70 ff ff ff 	mov    -0x90(%rbp),%rax
    3ad2:	48 99                	cqto   
    3ad4:	48 f7 bd 78 ff ff ff 	idivq  -0x88(%rbp)
    3adb:	48 89 c6             	mov    %rax,%rsi
    3ade:	48 89 cf             	mov    %rcx,%rdi
    3ae1:	e8 8a e1 ff ff       	callq  1c70 <_ZNSolsEl@plt>
    3ae6:	48 89 c2             	mov    %rax,%rdx
    3ae9:	48 8b 05 b8 b4 20 00 	mov    0x20b4b8(%rip),%rax        # 20efa8 <_ZSt4endlIcSt11char_traitsIcEERSt13basic_ostreamIT_T0_ES6_@GLIBCXX_3.4>
    3af0:	48 89 c6             	mov    %rax,%rsi
    3af3:	48 89 d7             	mov    %rdx,%rdi
    3af6:	e8 85 e0 ff ff       	callq  1b80 <_ZNSolsEPFRSoS_E@plt>
    3afb:	48 8b 05 a6 b4 20 00 	mov    0x20b4a6(%rip),%rax        # 20efa8 <_ZSt4endlIcSt11char_traitsIcEERSt13basic_ostreamIT_T0_ES6_@GLIBCXX_3.4>
    3b02:	48 89 c6             	mov    %rax,%rsi
    3b05:	48 8d 3d 14 b6 20 00 	lea    0x20b614(%rip),%rdi        # 20f120 <_ZSt4cout@@GLIBCXX_3.4>
    3b0c:	e8 6f e0 ff ff       	callq  1b80 <_ZNSolsEPFRSoS_E@plt>
    3b11:	48 8d 85 60 ff ff ff 	lea    -0xa0(%rbp),%rax
    3b18:	48 89 c7             	mov    %rax,%rdi
    3b1b:	e8 d2 27 00 00       	callq  62f2 <_ZN9__gnu_cxx17__normal_iteratorIPmSt6vectorImSaImEEEppEv>
    3b20:	e9 ac fe ff ff       	jmpq   39d1 <_Z9load_compv+0xd6>
    3b25:	48 8d 45 90          	lea    -0x70(%rbp),%rax
    3b29:	48 89 c7             	mov    %rax,%rdi
    3b2c:	e8 ad 26 00 00       	callq  61de <_ZNSt6vectorImSaImEED1Ev>
    3b31:	90                   	nop
    3b32:	48 8b 45 d8          	mov    -0x28(%rbp),%rax
    3b36:	64 48 33 04 25 28 00 	xor    %fs:0x28,%rax
    3b3d:	00 00 
    3b3f:	74 3e                	je     3b7f <_Z9load_compv+0x284>
    3b41:	eb 37                	jmp    3b7a <_Z9load_compv+0x27f>
    3b43:	48 89 c3             	mov    %rax,%rbx
    3b46:	48 8d 85 68 ff ff ff 	lea    -0x98(%rbp),%rax
    3b4d:	48 89 c7             	mov    %rax,%rdi
    3b50:	e8 c1 25 00 00       	callq  6116 <_ZNSaImED1Ev>
    3b55:	48 89 d8             	mov    %rbx,%rax
    3b58:	48 89 c7             	mov    %rax,%rdi
    3b5b:	e8 00 e1 ff ff       	callq  1c60 <_Unwind_Resume@plt>
    3b60:	48 89 c3             	mov    %rax,%rbx
    3b63:	48 8d 45 90          	lea    -0x70(%rbp),%rax
    3b67:	48 89 c7             	mov    %rax,%rdi
    3b6a:	e8 6f 26 00 00       	callq  61de <_ZNSt6vectorImSaImEED1Ev>
    3b6f:	48 89 d8             	mov    %rbx,%rax
    3b72:	48 89 c7             	mov    %rax,%rdi
    3b75:	e8 e6 e0 ff ff       	callq  1c60 <_Unwind_Resume@plt>
    3b7a:	e8 11 e0 ff ff       	callq  1b90 <__stack_chk_fail@plt>
    3b7f:	48 81 c4 98 00 00 00 	add    $0x98,%rsp
    3b86:	5b                   	pop    %rbx
    3b87:	41 5c                	pop    %r12
    3b89:	41 5d                	pop    %r13
    3b8b:	5d                   	pop    %rbp
    3b8c:	c3                   	retq   

0000000000003b8d <main>:
    3b8d:	55                   	push   %rbp
    3b8e:	48 89 e5             	mov    %rsp,%rbp
    3b91:	48 8d 35 ef 60 00 00 	lea    0x60ef(%rip),%rsi        # 9c87 <_ZN6__pstl9execution2v1L5unseqE+0x58>
    3b98:	48 8d 3d 81 b5 20 00 	lea    0x20b581(%rip),%rdi        # 20f120 <_ZSt4cout@@GLIBCXX_3.4>
    3b9f:	e8 ac df ff ff       	callq  1b50 <_ZStlsISt11char_traitsIcEERSt13basic_ostreamIcT_ES5_PKc@plt>
    3ba4:	48 8d 35 f0 60 00 00 	lea    0x60f0(%rip),%rsi        # 9c9b <_ZN6__pstl9execution2v1L5unseqE+0x6c>
    3bab:	48 89 c7             	mov    %rax,%rdi
    3bae:	e8 9d df ff ff       	callq  1b50 <_ZStlsISt11char_traitsIcEERSt13basic_ostreamIcT_ES5_PKc@plt>
    3bb3:	48 89 c2             	mov    %rax,%rdx
    3bb6:	48 8b 05 eb b3 20 00 	mov    0x20b3eb(%rip),%rax        # 20efa8 <_ZSt4endlIcSt11char_traitsIcEERSt13basic_ostreamIT_T0_ES6_@GLIBCXX_3.4>
    3bbd:	48 89 c6             	mov    %rax,%rsi
    3bc0:	48 89 d7             	mov    %rdx,%rdi
    3bc3:	e8 b8 df ff ff       	callq  1b80 <_ZNSolsEPFRSoS_E@plt>
    3bc8:	e8 2e fd ff ff       	callq  38fb <_Z9load_compv>
    3bcd:	b8 00 00 00 00       	mov    $0x0,%eax
    3bd2:	5d                   	pop    %rbp
    3bd3:	c3                   	retq   

0000000000003bd4 <_Z41__static_initialization_and_destruction_0ii>:
    3bd4:	55                   	push   %rbp
    3bd5:	48 89 e5             	mov    %rsp,%rbp
    3bd8:	48 83 ec 10          	sub    $0x10,%rsp
    3bdc:	89 7d fc             	mov    %edi,-0x4(%rbp)
    3bdf:	89 75 f8             	mov    %esi,-0x8(%rbp)
    3be2:	83 7d fc 01          	cmpl   $0x1,-0x4(%rbp)
    3be6:	75 32                	jne    3c1a <_Z41__static_initialization_and_destruction_0ii+0x46>
    3be8:	81 7d f8 ff ff 00 00 	cmpl   $0xffff,-0x8(%rbp)
    3bef:	75 29                	jne    3c1a <_Z41__static_initialization_and_destruction_0ii+0x46>
    3bf1:	48 8d 3d 39 b6 20 00 	lea    0x20b639(%rip),%rdi        # 20f231 <_ZStL8__ioinit>
    3bf8:	e8 f3 df ff ff       	callq  1bf0 <_ZNSt8ios_base4InitC1Ev@plt>
    3bfd:	48 8d 15 04 b4 20 00 	lea    0x20b404(%rip),%rdx        # 20f008 <__dso_handle>
    3c04:	48 8d 35 26 b6 20 00 	lea    0x20b626(%rip),%rsi        # 20f231 <_ZStL8__ioinit>
    3c0b:	48 8b 05 ce b3 20 00 	mov    0x20b3ce(%rip),%rax        # 20efe0 <_ZNSt8ios_base4InitD1Ev@GLIBCXX_3.4>
    3c12:	48 89 c7             	mov    %rax,%rdi
    3c15:	e8 f6 de ff ff       	callq  1b10 <__cxa_atexit@plt>
    3c1a:	90                   	nop
    3c1b:	c9                   	leaveq 
    3c1c:	c3                   	retq   

0000000000003c1d <_GLOBAL__sub_I__Z9mapDeletePv>:
    3c1d:	55                   	push   %rbp
    3c1e:	48 89 e5             	mov    %rsp,%rbp
    3c21:	be ff ff 00 00       	mov    $0xffff,%esi
    3c26:	bf 01 00 00 00       	mov    $0x1,%edi
    3c2b:	e8 a4 ff ff ff       	callq  3bd4 <_Z41__static_initialization_and_destruction_0ii>
    3c30:	5d                   	pop    %rbp
    3c31:	c3                   	retq   

0000000000003c32 <_ZGTtN8HashNodeIiiE8getValueEv>:
    3c32:	55                   	push   %rbp
    3c33:	48 89 e5             	mov    %rsp,%rbp
    3c36:	48 89 7d f8          	mov    %rdi,-0x8(%rbp)
    3c3a:	48 8b 45 f8          	mov    -0x8(%rbp),%rax
    3c3e:	48 83 c0 0c          	add    $0xc,%rax
    3c42:	5d                   	pop    %rbp
    3c43:	c3                   	retq   

0000000000003c44 <_ZGTtN8HashNodeIiiE8setValueEi>:
    3c44:	55                   	push   %rbp
    3c45:	48 89 e5             	mov    %rsp,%rbp
    3c48:	48 83 ec 10          	sub    $0x10,%rsp
    3c4c:	48 89 7d f8          	mov    %rdi,-0x8(%rbp)
    3c50:	89 75 f4             	mov    %esi,-0xc(%rbp)
    3c53:	48 8d 45 f4          	lea    -0xc(%rbp),%rax
    3c57:	48 89 c7             	mov    %rax,%rdi
    3c5a:	e8 33 02 00 00       	callq  3e92 <_ZGTtSt4moveIRiEONSt16remove_referenceIT_E4typeEOS2_>
    3c5f:	48 89 c7             	mov    %rax,%rdi
    3c62:	e8 69 df ff ff       	callq  1bd0 <_ITM_RU4@plt>
    3c67:	89 c2                	mov    %eax,%edx
    3c69:	48 8b 45 f8          	mov    -0x8(%rbp),%rax
    3c6d:	48 83 c0 0c          	add    $0xc,%rax
    3c71:	89 d6                	mov    %edx,%esi
    3c73:	48 89 c7             	mov    %rax,%rdi
    3c76:	e8 a5 dd ff ff       	callq  1a20 <_ITM_WU4@plt>
    3c7b:	90                   	nop
    3c7c:	c9                   	leaveq 
    3c7d:	c3                   	retq   

0000000000003c7e <_ZGTtN8HashNodeIiiE7getNextEv>:
    3c7e:	55                   	push   %rbp
    3c7f:	48 89 e5             	mov    %rsp,%rbp
    3c82:	48 83 ec 10          	sub    $0x10,%rsp
    3c86:	48 89 7d f8          	mov    %rdi,-0x8(%rbp)
    3c8a:	48 8b 45 f8          	mov    -0x8(%rbp),%rax
    3c8e:	48 89 c7             	mov    %rax,%rdi
    3c91:	e8 ea dd ff ff       	callq  1a80 <_ITM_RU8@plt>
    3c96:	c9                   	leaveq 
    3c97:	c3                   	retq   

0000000000003c98 <_ZGTtN8HashNodeIiiE6getKeyEv>:
    3c98:	55                   	push   %rbp
    3c99:	48 89 e5             	mov    %rsp,%rbp
    3c9c:	48 89 7d f8          	mov    %rdi,-0x8(%rbp)
    3ca0:	48 8b 45 f8          	mov    -0x8(%rbp),%rax
    3ca4:	48 83 c0 08          	add    $0x8,%rax
    3ca8:	5d                   	pop    %rbp
    3ca9:	c3                   	retq   

0000000000003caa <_ZGTtN8HashNodeI9tm_stringS0_E10insertNextEPS1_>:
    3caa:	55                   	push   %rbp
    3cab:	48 89 e5             	mov    %rsp,%rbp
    3cae:	48 83 ec 10          	sub    $0x10,%rsp
    3cb2:	48 89 7d f8          	mov    %rdi,-0x8(%rbp)
    3cb6:	48 89 75 f0          	mov    %rsi,-0x10(%rbp)
    3cba:	48 8b 55 f0          	mov    -0x10(%rbp),%rdx
    3cbe:	48 8b 45 f8          	mov    -0x8(%rbp),%rax
    3cc2:	48 89 d6             	mov    %rdx,%rsi
    3cc5:	48 89 c7             	mov    %rax,%rdi
    3cc8:	e8 33 de ff ff       	callq  1b00 <_ITM_WU8@plt>
    3ccd:	90                   	nop
    3cce:	c9                   	leaveq 
    3ccf:	c3                   	retq   

0000000000003cd0 <_ZGTtN8HashNodeIi9tm_stringE10insertNextEPS1_>:
    3cd0:	55                   	push   %rbp
    3cd1:	48 89 e5             	mov    %rsp,%rbp
    3cd4:	48 83 ec 10          	sub    $0x10,%rsp
    3cd8:	48 89 7d f8          	mov    %rdi,-0x8(%rbp)
    3cdc:	48 89 75 f0          	mov    %rsi,-0x10(%rbp)
    3ce0:	48 8b 55 f0          	mov    -0x10(%rbp),%rdx
    3ce4:	48 8b 45 f8          	mov    -0x8(%rbp),%rax
    3ce8:	48 89 d6             	mov    %rdx,%rsi
    3ceb:	48 89 c7             	mov    %rax,%rdi
    3cee:	e8 0d de ff ff       	callq  1b00 <_ITM_WU8@plt>
    3cf3:	90                   	nop
    3cf4:	c9                   	leaveq 
    3cf5:	c3                   	retq   

0000000000003cf6 <_ZGTtN8HashNodeI9tm_stringiE10insertNextEPS1_>:
    3cf6:	55                   	push   %rbp
    3cf7:	48 89 e5             	mov    %rsp,%rbp
    3cfa:	48 83 ec 10          	sub    $0x10,%rsp
    3cfe:	48 89 7d f8          	mov    %rdi,-0x8(%rbp)
    3d02:	48 89 75 f0          	mov    %rsi,-0x10(%rbp)
    3d06:	48 8b 55 f0          	mov    -0x10(%rbp),%rdx
    3d0a:	48 8b 45 f8          	mov    -0x8(%rbp),%rax
    3d0e:	48 89 d6             	mov    %rdx,%rsi
    3d11:	48 89 c7             	mov    %rax,%rdi
    3d14:	e8 e7 dd ff ff       	callq  1b00 <_ITM_WU8@plt>
    3d19:	90                   	nop
    3d1a:	c9                   	leaveq 
    3d1b:	c3                   	retq   

0000000000003d1c <_ZGTtN8HashNodeIiiE10insertNextEPS0_>:
    3d1c:	55                   	push   %rbp
    3d1d:	48 89 e5             	mov    %rsp,%rbp
    3d20:	48 83 ec 10          	sub    $0x10,%rsp
    3d24:	48 89 7d f8          	mov    %rdi,-0x8(%rbp)
    3d28:	48 89 75 f0          	mov    %rsi,-0x10(%rbp)
    3d2c:	48 8b 55 f0          	mov    -0x10(%rbp),%rdx
    3d30:	48 8b 45 f8          	mov    -0x8(%rbp),%rax
    3d34:	48 89 d6             	mov    %rdx,%rsi
    3d37:	48 89 c7             	mov    %rax,%rdi
    3d3a:	e8 c1 dd ff ff       	callq  1b00 <_ITM_WU8@plt>
    3d3f:	90                   	nop
    3d40:	c9                   	leaveq 
    3d41:	c3                   	retq   

0000000000003d42 <_ZGTtN6BucketI9tm_stringS0_E6appendEP8HashNodeIS0_S0_E>:
    3d42:	55                   	push   %rbp
    3d43:	48 89 e5             	mov    %rsp,%rbp
    3d46:	48 83 ec 10          	sub    $0x10,%rsp
    3d4a:	48 89 7d f8          	mov    %rdi,-0x8(%rbp)
    3d4e:	48 89 75 f0          	mov    %rsi,-0x10(%rbp)
    3d52:	48 8b 45 f8          	mov    -0x8(%rbp),%rax
    3d56:	48 89 c7             	mov    %rax,%rdi
    3d59:	e8 22 dd ff ff       	callq  1a80 <_ITM_RU8@plt>
    3d5e:	48 89 c2             	mov    %rax,%rdx
    3d61:	48 8b 45 f0          	mov    -0x10(%rbp),%rax
    3d65:	48 89 d6             	mov    %rdx,%rsi
    3d68:	48 89 c7             	mov    %rax,%rdi
    3d6b:	e8 3a ff ff ff       	callq  3caa <_ZGTtN8HashNodeI9tm_stringS0_E10insertNextEPS1_>
    3d70:	48 8b 55 f0          	mov    -0x10(%rbp),%rdx
    3d74:	48 8b 45 f8          	mov    -0x8(%rbp),%rax
    3d78:	48 89 d6             	mov    %rdx,%rsi
    3d7b:	48 89 c7             	mov    %rax,%rdi
    3d7e:	e8 7d dd ff ff       	callq  1b00 <_ITM_WU8@plt>
    3d83:	90                   	nop
    3d84:	c9                   	leaveq 
    3d85:	c3                   	retq   

0000000000003d86 <_ZGTtN6BucketIi9tm_stringE6appendEP8HashNodeIiS0_E>:
    3d86:	55                   	push   %rbp
    3d87:	48 89 e5             	mov    %rsp,%rbp
    3d8a:	48 83 ec 10          	sub    $0x10,%rsp
    3d8e:	48 89 7d f8          	mov    %rdi,-0x8(%rbp)
    3d92:	48 89 75 f0          	mov    %rsi,-0x10(%rbp)
    3d96:	48 8b 45 f8          	mov    -0x8(%rbp),%rax
    3d9a:	48 89 c7             	mov    %rax,%rdi
    3d9d:	e8 de dc ff ff       	callq  1a80 <_ITM_RU8@plt>
    3da2:	48 89 c2             	mov    %rax,%rdx
    3da5:	48 8b 45 f0          	mov    -0x10(%rbp),%rax
    3da9:	48 89 d6             	mov    %rdx,%rsi
    3dac:	48 89 c7             	mov    %rax,%rdi
    3daf:	e8 1c ff ff ff       	callq  3cd0 <_ZGTtN8HashNodeIi9tm_stringE10insertNextEPS1_>
    3db4:	48 8b 55 f0          	mov    -0x10(%rbp),%rdx
    3db8:	48 8b 45 f8          	mov    -0x8(%rbp),%rax
    3dbc:	48 89 d6             	mov    %rdx,%rsi
    3dbf:	48 89 c7             	mov    %rax,%rdi
    3dc2:	e8 39 dd ff ff       	callq  1b00 <_ITM_WU8@plt>
    3dc7:	90                   	nop
    3dc8:	c9                   	leaveq 
    3dc9:	c3                   	retq   

0000000000003dca <_ZGTtN6BucketI9tm_stringiE6appendEP8HashNodeIS0_iE>:
    3dca:	55                   	push   %rbp
    3dcb:	48 89 e5             	mov    %rsp,%rbp
    3dce:	48 83 ec 10          	sub    $0x10,%rsp
    3dd2:	48 89 7d f8          	mov    %rdi,-0x8(%rbp)
    3dd6:	48 89 75 f0          	mov    %rsi,-0x10(%rbp)
    3dda:	48 8b 45 f8          	mov    -0x8(%rbp),%rax
    3dde:	48 89 c7             	mov    %rax,%rdi
    3de1:	e8 9a dc ff ff       	callq  1a80 <_ITM_RU8@plt>
    3de6:	48 89 c2             	mov    %rax,%rdx
    3de9:	48 8b 45 f0          	mov    -0x10(%rbp),%rax
    3ded:	48 89 d6             	mov    %rdx,%rsi
    3df0:	48 89 c7             	mov    %rax,%rdi
    3df3:	e8 fe fe ff ff       	callq  3cf6 <_ZGTtN8HashNodeI9tm_stringiE10insertNextEPS1_>
    3df8:	48 8b 55 f0          	mov    -0x10(%rbp),%rdx
    3dfc:	48 8b 45 f8          	mov    -0x8(%rbp),%rax
    3e00:	48 89 d6             	mov    %rdx,%rsi
    3e03:	48 89 c7             	mov    %rax,%rdi
    3e06:	e8 f5 dc ff ff       	callq  1b00 <_ITM_WU8@plt>
    3e0b:	90                   	nop
    3e0c:	c9                   	leaveq 
    3e0d:	c3                   	retq   

0000000000003e0e <_ZGTtN6BucketIiiE6appendEP8HashNodeIiiE>:
    3e0e:	55                   	push   %rbp
    3e0f:	48 89 e5             	mov    %rsp,%rbp
    3e12:	48 83 ec 10          	sub    $0x10,%rsp
    3e16:	48 89 7d f8          	mov    %rdi,-0x8(%rbp)
    3e1a:	48 89 75 f0          	mov    %rsi,-0x10(%rbp)
    3e1e:	48 8b 45 f8          	mov    -0x8(%rbp),%rax
    3e22:	48 89 c7             	mov    %rax,%rdi
    3e25:	e8 56 dc ff ff       	callq  1a80 <_ITM_RU8@plt>
    3e2a:	48 89 c2             	mov    %rax,%rdx
    3e2d:	48 8b 45 f0          	mov    -0x10(%rbp),%rax
    3e31:	48 89 d6             	mov    %rdx,%rsi
    3e34:	48 89 c7             	mov    %rax,%rdi
    3e37:	e8 e0 fe ff ff       	callq  3d1c <_ZGTtN8HashNodeIiiE10insertNextEPS0_>
    3e3c:	48 8b 55 f0          	mov    -0x10(%rbp),%rdx
    3e40:	48 8b 45 f8          	mov    -0x8(%rbp),%rax
    3e44:	48 89 d6             	mov    %rdx,%rsi
    3e47:	48 89 c7             	mov    %rax,%rdi
    3e4a:	e8 b1 dc ff ff       	callq  1b00 <_ITM_WU8@plt>
    3e4f:	90                   	nop
    3e50:	c9                   	leaveq 
    3e51:	c3                   	retq   

0000000000003e52 <_ZGTtN6BucketIiiE7getNodeEv>:
    3e52:	55                   	push   %rbp
    3e53:	48 89 e5             	mov    %rsp,%rbp
    3e56:	48 83 ec 10          	sub    $0x10,%rsp
    3e5a:	48 89 7d f8          	mov    %rdi,-0x8(%rbp)
    3e5e:	48 8b 45 f8          	mov    -0x8(%rbp),%rax
    3e62:	48 89 c7             	mov    %rax,%rdi
    3e65:	e8 16 dc ff ff       	callq  1a80 <_ITM_RU8@plt>
    3e6a:	c9                   	leaveq 
    3e6b:	c3                   	retq   

0000000000003e6c <_ZGTtN6BucketIiiE7setNodeEP8HashNodeIiiE>:
    3e6c:	55                   	push   %rbp
    3e6d:	48 89 e5             	mov    %rsp,%rbp
    3e70:	48 83 ec 10          	sub    $0x10,%rsp
    3e74:	48 89 7d f8          	mov    %rdi,-0x8(%rbp)
    3e78:	48 89 75 f0          	mov    %rsi,-0x10(%rbp)
    3e7c:	48 8b 55 f0          	mov    -0x10(%rbp),%rdx
    3e80:	48 8b 45 f8          	mov    -0x8(%rbp),%rax
    3e84:	48 89 d6             	mov    %rdx,%rsi
    3e87:	48 89 c7             	mov    %rax,%rdi
    3e8a:	e8 71 dc ff ff       	callq  1b00 <_ITM_WU8@plt>
    3e8f:	90                   	nop
    3e90:	c9                   	leaveq 
    3e91:	c3                   	retq   

0000000000003e92 <_ZGTtSt4moveIRiEONSt16remove_referenceIT_E4typeEOS2_>:
    3e92:	55                   	push   %rbp
    3e93:	48 89 e5             	mov    %rsp,%rbp
    3e96:	48 89 7d f8          	mov    %rdi,-0x8(%rbp)
    3e9a:	48 8b 45 f8          	mov    -0x8(%rbp),%rax
    3e9e:	5d                   	pop    %rbp
    3e9f:	c3                   	retq   

0000000000003ea0 <_ZNSt9exceptionC1Ev>:
    3ea0:	55                   	push   %rbp
    3ea1:	48 89 e5             	mov    %rsp,%rbp
    3ea4:	48 89 7d f8          	mov    %rdi,-0x8(%rbp)
    3ea8:	48 8d 15 e9 ac 20 00 	lea    0x20ace9(%rip),%rdx        # 20eb98 <_ZTVSt9exception@@GLIBCXX_3.4+0x10>
    3eaf:	48 8b 45 f8          	mov    -0x8(%rbp),%rax
    3eb3:	48 89 10             	mov    %rdx,(%rax)
    3eb6:	90                   	nop
    3eb7:	5d                   	pop    %rbp
    3eb8:	c3                   	retq   

0000000000003eb9 <_ZnwmPv>:
    3eb9:	55                   	push   %rbp
    3eba:	48 89 e5             	mov    %rsp,%rbp
    3ebd:	48 89 7d f8          	mov    %rdi,-0x8(%rbp)
    3ec1:	48 89 75 f0          	mov    %rsi,-0x10(%rbp)
    3ec5:	48 8b 45 f0          	mov    -0x10(%rbp),%rax
    3ec9:	5d                   	pop    %rbp
    3eca:	c3                   	retq   

0000000000003ecb <_ZL20__gthread_mutex_lockP15pthread_mutex_t>:
    3ecb:	55                   	push   %rbp
    3ecc:	48 89 e5             	mov    %rsp,%rbp
    3ecf:	48 83 ec 10          	sub    $0x10,%rsp
    3ed3:	48 89 7d f8          	mov    %rdi,-0x8(%rbp)
    3ed7:	e8 da de ff ff       	callq  1db6 <_ZL18__gthread_active_pv>
    3edc:	85 c0                	test   %eax,%eax
    3ede:	0f 95 c0             	setne  %al
    3ee1:	84 c0                	test   %al,%al
    3ee3:	74 0e                	je     3ef3 <_ZL20__gthread_mutex_lockP15pthread_mutex_t+0x28>
    3ee5:	48 8b 45 f8          	mov    -0x8(%rbp),%rax
    3ee9:	48 89 c7             	mov    %rax,%rdi
    3eec:	e8 ef dc ff ff       	callq  1be0 <pthread_mutex_lock@plt>
    3ef1:	eb 05                	jmp    3ef8 <_ZL20__gthread_mutex_lockP15pthread_mutex_t+0x2d>
    3ef3:	b8 00 00 00 00       	mov    $0x0,%eax
    3ef8:	c9                   	leaveq 
    3ef9:	c3                   	retq   

0000000000003efa <_ZL22__gthread_mutex_unlockP15pthread_mutex_t>:
    3efa:	55                   	push   %rbp
    3efb:	48 89 e5             	mov    %rsp,%rbp
    3efe:	48 83 ec 10          	sub    $0x10,%rsp
    3f02:	48 89 7d f8          	mov    %rdi,-0x8(%rbp)
    3f06:	e8 ab de ff ff       	callq  1db6 <_ZL18__gthread_active_pv>
    3f0b:	85 c0                	test   %eax,%eax
    3f0d:	0f 95 c0             	setne  %al
    3f10:	84 c0                	test   %al,%al
    3f12:	74 0e                	je     3f22 <_ZL22__gthread_mutex_unlockP15pthread_mutex_t+0x28>
    3f14:	48 8b 45 f8          	mov    -0x8(%rbp),%rax
    3f18:	48 89 c7             	mov    %rax,%rdi
    3f1b:	e8 c0 db ff ff       	callq  1ae0 <pthread_mutex_unlock@plt>
    3f20:	eb 05                	jmp    3f27 <_ZL22__gthread_mutex_unlockP15pthread_mutex_t+0x2d>
    3f22:	b8 00 00 00 00       	mov    $0x0,%eax
    3f27:	c9                   	leaveq 
    3f28:	c3                   	retq   
    3f29:	90                   	nop

0000000000003f2a <_ZNKSt4hashIiEclEi>:
    3f2a:	55                   	push   %rbp
    3f2b:	48 89 e5             	mov    %rsp,%rbp
    3f2e:	48 89 7d f8          	mov    %rdi,-0x8(%rbp)
    3f32:	89 75 f4             	mov    %esi,-0xc(%rbp)
    3f35:	8b 45 f4             	mov    -0xc(%rbp),%eax
    3f38:	48 98                	cltq   
    3f3a:	5d                   	pop    %rbp
    3f3b:	c3                   	retq   

0000000000003f3c <_ZNK19InvalidReadExeption4whatEv>:
    3f3c:	55                   	push   %rbp
    3f3d:	48 89 e5             	mov    %rsp,%rbp
    3f40:	48 89 7d f8          	mov    %rdi,-0x8(%rbp)
    3f44:	48 8d 05 bd 5c 00 00 	lea    0x5cbd(%rip),%rax        # 9c08 <_IO_stdin_used+0x8>
    3f4b:	5d                   	pop    %rbp
    3f4c:	c3                   	retq   

0000000000003f4d <_ZStanSt12memory_orderSt23__memory_order_modifier>:
    3f4d:	55                   	push   %rbp
    3f4e:	48 89 e5             	mov    %rsp,%rbp
    3f51:	89 7d fc             	mov    %edi,-0x4(%rbp)
    3f54:	89 75 f8             	mov    %esi,-0x8(%rbp)
    3f57:	8b 55 fc             	mov    -0x4(%rbp),%edx
    3f5a:	8b 45 f8             	mov    -0x8(%rbp),%eax
    3f5d:	21 d0                	and    %edx,%eax
    3f5f:	5d                   	pop    %rbp
    3f60:	c3                   	retq   
    3f61:	90                   	nop

0000000000003f62 <_ZNSt11atomic_flagC1Eb>:
    3f62:	55                   	push   %rbp
    3f63:	48 89 e5             	mov    %rsp,%rbp
    3f66:	48 83 ec 10          	sub    $0x10,%rsp
    3f6a:	48 89 7d f8          	mov    %rdi,-0x8(%rbp)
    3f6e:	89 f0                	mov    %esi,%eax
    3f70:	88 45 f4             	mov    %al,-0xc(%rbp)
    3f73:	0f b6 45 f4          	movzbl -0xc(%rbp),%eax
    3f77:	89 c7                	mov    %eax,%edi
    3f79:	e8 09 00 00 00       	callq  3f87 <_ZNSt11atomic_flag7_S_initEb>
    3f7e:	48 8b 55 f8          	mov    -0x8(%rbp),%rdx
    3f82:	88 02                	mov    %al,(%rdx)
    3f84:	90                   	nop
    3f85:	c9                   	leaveq 
    3f86:	c3                   	retq   

0000000000003f87 <_ZNSt11atomic_flag7_S_initEb>:
    3f87:	55                   	push   %rbp
    3f88:	48 89 e5             	mov    %rsp,%rbp
    3f8b:	89 f8                	mov    %edi,%eax
    3f8d:	88 45 fc             	mov    %al,-0x4(%rbp)
    3f90:	80 7d fc 00          	cmpb   $0x0,-0x4(%rbp)
    3f94:	74 07                	je     3f9d <_ZNSt11atomic_flag7_S_initEb+0x16>
    3f96:	b8 01 00 00 00       	mov    $0x1,%eax
    3f9b:	eb 05                	jmp    3fa2 <_ZNSt11atomic_flag7_S_initEb+0x1b>
    3f9d:	b8 00 00 00 00       	mov    $0x0,%eax
    3fa2:	85 c0                	test   %eax,%eax
    3fa4:	0f 95 c0             	setne  %al
    3fa7:	5d                   	pop    %rbp
    3fa8:	c3                   	retq   

0000000000003fa9 <_ZSt3minImERKT_S2_S2_>:
    3fa9:	55                   	push   %rbp
    3faa:	48 89 e5             	mov    %rsp,%rbp
    3fad:	48 89 7d f8          	mov    %rdi,-0x8(%rbp)
    3fb1:	48 89 75 f0          	mov    %rsi,-0x10(%rbp)
    3fb5:	48 8b 45 f0          	mov    -0x10(%rbp),%rax
    3fb9:	48 8b 10             	mov    (%rax),%rdx
    3fbc:	48 8b 45 f8          	mov    -0x8(%rbp),%rax
    3fc0:	48 8b 00             	mov    (%rax),%rax
    3fc3:	48 39 c2             	cmp    %rax,%rdx
    3fc6:	73 06                	jae    3fce <_ZSt3minImERKT_S2_S2_+0x25>
    3fc8:	48 8b 45 f0          	mov    -0x10(%rbp),%rax
    3fcc:	eb 04                	jmp    3fd2 <_ZSt3minImERKT_S2_S2_+0x29>
    3fce:	48 8b 45 f8          	mov    -0x8(%rbp),%rax
    3fd2:	5d                   	pop    %rbp
    3fd3:	c3                   	retq   

0000000000003fd4 <_ZNSt6thread2idC1Ev>:
    3fd4:	55                   	push   %rbp
    3fd5:	48 89 e5             	mov    %rsp,%rbp
    3fd8:	48 89 7d f8          	mov    %rdi,-0x8(%rbp)
    3fdc:	48 8b 45 f8          	mov    -0x8(%rbp),%rax
    3fe0:	48 c7 00 00 00 00 00 	movq   $0x0,(%rax)
    3fe7:	90                   	nop
    3fe8:	5d                   	pop    %rbp
    3fe9:	c3                   	retq   

0000000000003fea <_ZNSt6threadD1Ev>:
    3fea:	55                   	push   %rbp
    3feb:	48 89 e5             	mov    %rsp,%rbp
    3fee:	48 83 ec 10          	sub    $0x10,%rsp
    3ff2:	48 89 7d f8          	mov    %rdi,-0x8(%rbp)
    3ff6:	48 8b 45 f8          	mov    -0x8(%rbp),%rax
    3ffa:	48 89 c7             	mov    %rax,%rdi
    3ffd:	e8 70 00 00 00       	callq  4072 <_ZNKSt6thread8joinableEv>
    4002:	84 c0                	test   %al,%al
    4004:	74 05                	je     400b <_ZNSt6threadD1Ev+0x21>
    4006:	e8 35 da ff ff       	callq  1a40 <_ZSt9terminatev@plt>
    400b:	90                   	nop
    400c:	c9                   	leaveq 
    400d:	c3                   	retq   

000000000000400e <_ZNSt6threadaSEOS_>:
    400e:	55                   	push   %rbp
    400f:	48 89 e5             	mov    %rsp,%rbp
    4012:	48 83 ec 10          	sub    $0x10,%rsp
    4016:	48 89 7d f8          	mov    %rdi,-0x8(%rbp)
    401a:	48 89 75 f0          	mov    %rsi,-0x10(%rbp)
    401e:	48 8b 45 f8          	mov    -0x8(%rbp),%rax
    4022:	48 89 c7             	mov    %rax,%rdi
    4025:	e8 48 00 00 00       	callq  4072 <_ZNKSt6thread8joinableEv>
    402a:	84 c0                	test   %al,%al
    402c:	74 05                	je     4033 <_ZNSt6threadaSEOS_+0x25>
    402e:	e8 0d da ff ff       	callq  1a40 <_ZSt9terminatev@plt>
    4033:	48 8b 55 f0          	mov    -0x10(%rbp),%rdx
    4037:	48 8b 45 f8          	mov    -0x8(%rbp),%rax
    403b:	48 89 d6             	mov    %rdx,%rsi
    403e:	48 89 c7             	mov    %rax,%rdi
    4041:	e8 06 00 00 00       	callq  404c <_ZNSt6thread4swapERS_>
    4046:	48 8b 45 f8          	mov    -0x8(%rbp),%rax
    404a:	c9                   	leaveq 
    404b:	c3                   	retq   

000000000000404c <_ZNSt6thread4swapERS_>:
    404c:	55                   	push   %rbp
    404d:	48 89 e5             	mov    %rsp,%rbp
    4050:	48 83 ec 10          	sub    $0x10,%rsp
    4054:	48 89 7d f8          	mov    %rdi,-0x8(%rbp)
    4058:	48 89 75 f0          	mov    %rsi,-0x10(%rbp)
    405c:	48 8b 55 f0          	mov    -0x10(%rbp),%rdx
    4060:	48 8b 45 f8          	mov    -0x8(%rbp),%rax
    4064:	48 89 d6             	mov    %rdx,%rsi
    4067:	48 89 c7             	mov    %rax,%rdi
    406a:	e8 7d 09 00 00       	callq  49ec <_ZSt4swapINSt6thread2idEENSt9enable_ifIXsrSt6__and_IJSt6__not_ISt15__is_tuple_likeIT_EESt21is_move_constructibleIS6_ESt18is_move_assignableIS6_EEE5valueEvE4typeERS6_SG_>
    406f:	90                   	nop
    4070:	c9                   	leaveq 
    4071:	c3                   	retq   

0000000000004072 <_ZNKSt6thread8joinableEv>:
    4072:	55                   	push   %rbp
    4073:	48 89 e5             	mov    %rsp,%rbp
    4076:	48 83 ec 20          	sub    $0x20,%rsp
    407a:	48 89 7d e8          	mov    %rdi,-0x18(%rbp)
    407e:	64 48 8b 04 25 28 00 	mov    %fs:0x28,%rax
    4085:	00 00 
    4087:	48 89 45 f8          	mov    %rax,-0x8(%rbp)
    408b:	31 c0                	xor    %eax,%eax
    408d:	48 8d 45 f0          	lea    -0x10(%rbp),%rax
    4091:	48 89 c7             	mov    %rax,%rdi
    4094:	e8 3b ff ff ff       	callq  3fd4 <_ZNSt6thread2idC1Ev>
    4099:	48 8b 45 f0          	mov    -0x10(%rbp),%rax
    409d:	48 8b 55 e8          	mov    -0x18(%rbp),%rdx
    40a1:	48 89 c6             	mov    %rax,%rsi
    40a4:	48 8b 3a             	mov    (%rdx),%rdi
    40a7:	e8 19 00 00 00       	callq  40c5 <_ZSteqNSt6thread2idES0_>
    40ac:	83 f0 01             	xor    $0x1,%eax
    40af:	48 8b 4d f8          	mov    -0x8(%rbp),%rcx
    40b3:	64 48 33 0c 25 28 00 	xor    %fs:0x28,%rcx
    40ba:	00 00 
    40bc:	74 05                	je     40c3 <_ZNKSt6thread8joinableEv+0x51>
    40be:	e8 cd da ff ff       	callq  1b90 <__stack_chk_fail@plt>
    40c3:	c9                   	leaveq 
    40c4:	c3                   	retq   

00000000000040c5 <_ZSteqNSt6thread2idES0_>:
    40c5:	55                   	push   %rbp
    40c6:	48 89 e5             	mov    %rsp,%rbp
    40c9:	48 89 7d f8          	mov    %rdi,-0x8(%rbp)
    40cd:	48 89 75 f0          	mov    %rsi,-0x10(%rbp)
    40d1:	48 8b 55 f8          	mov    -0x8(%rbp),%rdx
    40d5:	48 8b 45 f0          	mov    -0x10(%rbp),%rax
    40d9:	48 39 c2             	cmp    %rax,%rdx
    40dc:	0f 94 c0             	sete   %al
    40df:	5d                   	pop    %rbp
    40e0:	c3                   	retq   
    40e1:	90                   	nop

00000000000040e2 <_ZNSt5mutex4lockEv>:
    40e2:	55                   	push   %rbp
    40e3:	48 89 e5             	mov    %rsp,%rbp
    40e6:	48 83 ec 20          	sub    $0x20,%rsp
    40ea:	48 89 7d e8          	mov    %rdi,-0x18(%rbp)
    40ee:	48 8b 45 e8          	mov    -0x18(%rbp),%rax
    40f2:	48 89 c7             	mov    %rax,%rdi
    40f5:	e8 d1 fd ff ff       	callq  3ecb <_ZL20__gthread_mutex_lockP15pthread_mutex_t>
    40fa:	89 45 fc             	mov    %eax,-0x4(%rbp)
    40fd:	83 7d fc 00          	cmpl   $0x0,-0x4(%rbp)
    4101:	74 0a                	je     410d <_ZNSt5mutex4lockEv+0x2b>
    4103:	8b 45 fc             	mov    -0x4(%rbp),%eax
    4106:	89 c7                	mov    %eax,%edi
    4108:	e8 b3 d9 ff ff       	callq  1ac0 <_ZSt20__throw_system_errori@plt>
    410d:	90                   	nop
    410e:	c9                   	leaveq 
    410f:	c3                   	retq   

0000000000004110 <_ZNSt5mutex6unlockEv>:
    4110:	55                   	push   %rbp
    4111:	48 89 e5             	mov    %rsp,%rbp
    4114:	48 83 ec 10          	sub    $0x10,%rsp
    4118:	48 89 7d f8          	mov    %rdi,-0x8(%rbp)
    411c:	48 8b 45 f8          	mov    -0x8(%rbp),%rax
    4120:	48 89 c7             	mov    %rax,%rdi
    4123:	e8 d2 fd ff ff       	callq  3efa <_ZL22__gthread_mutex_unlockP15pthread_mutex_t>
    4128:	90                   	nop
    4129:	c9                   	leaveq 
    412a:	c3                   	retq   

000000000000412b <_ZStL23__glibcxx_rwlock_rdlockP16pthread_rwlock_t>:
    412b:	55                   	push   %rbp
    412c:	48 89 e5             	mov    %rsp,%rbp
    412f:	48 83 ec 10          	sub    $0x10,%rsp
    4133:	48 89 7d f8          	mov    %rdi,-0x8(%rbp)
    4137:	e8 7a dc ff ff       	callq  1db6 <_ZL18__gthread_active_pv>
    413c:	85 c0                	test   %eax,%eax
    413e:	0f 95 c0             	setne  %al
    4141:	84 c0                	test   %al,%al
    4143:	74 0e                	je     4153 <_ZStL23__glibcxx_rwlock_rdlockP16pthread_rwlock_t+0x28>
    4145:	48 8b 45 f8          	mov    -0x8(%rbp),%rax
    4149:	48 89 c7             	mov    %rax,%rdi
    414c:	e8 5f da ff ff       	callq  1bb0 <pthread_rwlock_rdlock@plt>
    4151:	eb 05                	jmp    4158 <_ZStL23__glibcxx_rwlock_rdlockP16pthread_rwlock_t+0x2d>
    4153:	b8 00 00 00 00       	mov    $0x0,%eax
    4158:	c9                   	leaveq 
    4159:	c3                   	retq   

000000000000415a <_ZStL23__glibcxx_rwlock_wrlockP16pthread_rwlock_t>:
    415a:	55                   	push   %rbp
    415b:	48 89 e5             	mov    %rsp,%rbp
    415e:	48 83 ec 10          	sub    $0x10,%rsp
    4162:	48 89 7d f8          	mov    %rdi,-0x8(%rbp)
    4166:	e8 4b dc ff ff       	callq  1db6 <_ZL18__gthread_active_pv>
    416b:	85 c0                	test   %eax,%eax
    416d:	0f 95 c0             	setne  %al
    4170:	84 c0                	test   %al,%al
    4172:	74 0e                	je     4182 <_ZStL23__glibcxx_rwlock_wrlockP16pthread_rwlock_t+0x28>
    4174:	48 8b 45 f8          	mov    -0x8(%rbp),%rax
    4178:	48 89 c7             	mov    %rax,%rdi
    417b:	e8 70 d9 ff ff       	callq  1af0 <pthread_rwlock_wrlock@plt>
    4180:	eb 05                	jmp    4187 <_ZStL23__glibcxx_rwlock_wrlockP16pthread_rwlock_t+0x2d>
    4182:	b8 00 00 00 00       	mov    $0x0,%eax
    4187:	c9                   	leaveq 
    4188:	c3                   	retq   

0000000000004189 <_ZStL23__glibcxx_rwlock_unlockP16pthread_rwlock_t>:
    4189:	55                   	push   %rbp
    418a:	48 89 e5             	mov    %rsp,%rbp
    418d:	48 83 ec 10          	sub    $0x10,%rsp
    4191:	48 89 7d f8          	mov    %rdi,-0x8(%rbp)
    4195:	e8 1c dc ff ff       	callq  1db6 <_ZL18__gthread_active_pv>
    419a:	85 c0                	test   %eax,%eax
    419c:	0f 95 c0             	setne  %al
    419f:	84 c0                	test   %al,%al
    41a1:	74 0e                	je     41b1 <_ZStL23__glibcxx_rwlock_unlockP16pthread_rwlock_t+0x28>
    41a3:	48 8b 45 f8          	mov    -0x8(%rbp),%rax
    41a7:	48 89 c7             	mov    %rax,%rdi
    41aa:	e8 61 da ff ff       	callq  1c10 <pthread_rwlock_unlock@plt>
    41af:	eb 05                	jmp    41b6 <_ZStL23__glibcxx_rwlock_unlockP16pthread_rwlock_t+0x2d>
    41b1:	b8 00 00 00 00       	mov    $0x0,%eax
    41b6:	c9                   	leaveq 
    41b7:	c3                   	retq   

00000000000041b8 <_ZNSt22__shared_mutex_pthread4lockEv>:
    41b8:	55                   	push   %rbp
    41b9:	48 89 e5             	mov    %rsp,%rbp
    41bc:	48 83 ec 20          	sub    $0x20,%rsp
    41c0:	48 89 7d e8          	mov    %rdi,-0x18(%rbp)
    41c4:	48 8b 45 e8          	mov    -0x18(%rbp),%rax
    41c8:	48 89 c7             	mov    %rax,%rdi
    41cb:	e8 8a ff ff ff       	callq  415a <_ZStL23__glibcxx_rwlock_wrlockP16pthread_rwlock_t>
    41d0:	89 45 fc             	mov    %eax,-0x4(%rbp)
    41d3:	83 7d fc 23          	cmpl   $0x23,-0x4(%rbp)
    41d7:	75 0a                	jne    41e3 <_ZNSt22__shared_mutex_pthread4lockEv+0x2b>
    41d9:	bf 23 00 00 00       	mov    $0x23,%edi
    41de:	e8 dd d8 ff ff       	callq  1ac0 <_ZSt20__throw_system_errori@plt>
    41e3:	90                   	nop
    41e4:	c9                   	leaveq 
    41e5:	c3                   	retq   

00000000000041e6 <_ZNSt22__shared_mutex_pthread6unlockEv>:
    41e6:	55                   	push   %rbp
    41e7:	48 89 e5             	mov    %rsp,%rbp
    41ea:	48 83 ec 20          	sub    $0x20,%rsp
    41ee:	48 89 7d e8          	mov    %rdi,-0x18(%rbp)
    41f2:	48 8b 45 e8          	mov    -0x18(%rbp),%rax
    41f6:	48 89 c7             	mov    %rax,%rdi
    41f9:	e8 8b ff ff ff       	callq  4189 <_ZStL23__glibcxx_rwlock_unlockP16pthread_rwlock_t>
    41fe:	89 45 fc             	mov    %eax,-0x4(%rbp)
    4201:	90                   	nop
    4202:	c9                   	leaveq 
    4203:	c3                   	retq   

0000000000004204 <_ZNSt22__shared_mutex_pthread11lock_sharedEv>:
    4204:	55                   	push   %rbp
    4205:	48 89 e5             	mov    %rsp,%rbp
    4208:	48 83 ec 20          	sub    $0x20,%rsp
    420c:	48 89 7d e8          	mov    %rdi,-0x18(%rbp)
    4210:	eb 01                	jmp    4213 <_ZNSt22__shared_mutex_pthread11lock_sharedEv+0xf>
    4212:	90                   	nop
    4213:	48 8b 45 e8          	mov    -0x18(%rbp),%rax
    4217:	48 89 c7             	mov    %rax,%rdi
    421a:	e8 0c ff ff ff       	callq  412b <_ZStL23__glibcxx_rwlock_rdlockP16pthread_rwlock_t>
    421f:	89 45 fc             	mov    %eax,-0x4(%rbp)
    4222:	83 7d fc 0b          	cmpl   $0xb,-0x4(%rbp)
    4226:	74 ea                	je     4212 <_ZNSt22__shared_mutex_pthread11lock_sharedEv+0xe>
    4228:	83 7d fc 23          	cmpl   $0x23,-0x4(%rbp)
    422c:	75 0a                	jne    4238 <_ZNSt22__shared_mutex_pthread11lock_sharedEv+0x34>
    422e:	bf 23 00 00 00       	mov    $0x23,%edi
    4233:	e8 88 d8 ff ff       	callq  1ac0 <_ZSt20__throw_system_errori@plt>
    4238:	90                   	nop
    4239:	c9                   	leaveq 
    423a:	c3                   	retq   
    423b:	90                   	nop

000000000000423c <_ZNSt22__shared_mutex_pthread13unlock_sharedEv>:
    423c:	55                   	push   %rbp
    423d:	48 89 e5             	mov    %rsp,%rbp
    4240:	48 83 ec 10          	sub    $0x10,%rsp
    4244:	48 89 7d f8          	mov    %rdi,-0x8(%rbp)
    4248:	48 8b 45 f8          	mov    -0x8(%rbp),%rax
    424c:	48 89 c7             	mov    %rax,%rdi
    424f:	e8 92 ff ff ff       	callq  41e6 <_ZNSt22__shared_mutex_pthread6unlockEv>
    4254:	90                   	nop
    4255:	c9                   	leaveq 
    4256:	c3                   	retq   
    4257:	90                   	nop

0000000000004258 <_ZNSt18shared_timed_mutex4lockEv>:
    4258:	55                   	push   %rbp
    4259:	48 89 e5             	mov    %rsp,%rbp
    425c:	48 83 ec 10          	sub    $0x10,%rsp
    4260:	48 89 7d f8          	mov    %rdi,-0x8(%rbp)
    4264:	48 8b 45 f8          	mov    -0x8(%rbp),%rax
    4268:	48 89 c7             	mov    %rax,%rdi
    426b:	e8 48 ff ff ff       	callq  41b8 <_ZNSt22__shared_mutex_pthread4lockEv>
    4270:	90                   	nop
    4271:	c9                   	leaveq 
    4272:	c3                   	retq   
    4273:	90                   	nop

0000000000004274 <_ZNSt18shared_timed_mutex6unlockEv>:
    4274:	55                   	push   %rbp
    4275:	48 89 e5             	mov    %rsp,%rbp
    4278:	48 83 ec 10          	sub    $0x10,%rsp
    427c:	48 89 7d f8          	mov    %rdi,-0x8(%rbp)
    4280:	48 8b 45 f8          	mov    -0x8(%rbp),%rax
    4284:	48 89 c7             	mov    %rax,%rdi
    4287:	e8 5a ff ff ff       	callq  41e6 <_ZNSt22__shared_mutex_pthread6unlockEv>
    428c:	90                   	nop
    428d:	c9                   	leaveq 
    428e:	c3                   	retq   
    428f:	90                   	nop

0000000000004290 <_ZNSt18shared_timed_mutex11lock_sharedEv>:
    4290:	55                   	push   %rbp
    4291:	48 89 e5             	mov    %rsp,%rbp
    4294:	48 83 ec 10          	sub    $0x10,%rsp
    4298:	48 89 7d f8          	mov    %rdi,-0x8(%rbp)
    429c:	48 8b 45 f8          	mov    -0x8(%rbp),%rax
    42a0:	48 89 c7             	mov    %rax,%rdi
    42a3:	e8 5c ff ff ff       	callq  4204 <_ZNSt22__shared_mutex_pthread11lock_sharedEv>
    42a8:	90                   	nop
    42a9:	c9                   	leaveq 
    42aa:	c3                   	retq   
    42ab:	90                   	nop

00000000000042ac <_ZNSt18shared_timed_mutex13unlock_sharedEv>:
    42ac:	55                   	push   %rbp
    42ad:	48 89 e5             	mov    %rsp,%rbp
    42b0:	48 83 ec 10          	sub    $0x10,%rsp
    42b4:	48 89 7d f8          	mov    %rdi,-0x8(%rbp)
    42b8:	48 8b 45 f8          	mov    -0x8(%rbp),%rax
    42bc:	48 89 c7             	mov    %rax,%rdi
    42bf:	e8 78 ff ff ff       	callq  423c <_ZNSt22__shared_mutex_pthread13unlock_sharedEv>
    42c4:	90                   	nop
    42c5:	c9                   	leaveq 
    42c6:	c3                   	retq   
    42c7:	90                   	nop

00000000000042c8 <_ZN6BucketIiiE7setNodeEP8HashNodeIiiE>:
    42c8:	55                   	push   %rbp
    42c9:	48 89 e5             	mov    %rsp,%rbp
    42cc:	48 89 7d f8          	mov    %rdi,-0x8(%rbp)
    42d0:	48 89 75 f0          	mov    %rsi,-0x10(%rbp)
    42d4:	48 8b 45 f8          	mov    -0x8(%rbp),%rax
    42d8:	48 8b 55 f0          	mov    -0x10(%rbp),%rdx
    42dc:	48 89 10             	mov    %rdx,(%rax)
    42df:	90                   	nop
    42e0:	5d                   	pop    %rbp
    42e1:	c3                   	retq   

00000000000042e2 <_ZN6BucketIiiE7getNodeEv>:
    42e2:	55                   	push   %rbp
    42e3:	48 89 e5             	mov    %rsp,%rbp
    42e6:	48 89 7d f8          	mov    %rdi,-0x8(%rbp)
    42ea:	48 8b 45 f8          	mov    -0x8(%rbp),%rax
    42ee:	48 8b 00             	mov    (%rax),%rax
    42f1:	5d                   	pop    %rbp
    42f2:	c3                   	retq   
    42f3:	90                   	nop

00000000000042f4 <_ZN6BucketIiiE5emptyEv>:
    42f4:	55                   	push   %rbp
    42f5:	48 89 e5             	mov    %rsp,%rbp
    42f8:	48 89 7d f8          	mov    %rdi,-0x8(%rbp)
    42fc:	48 8b 45 f8          	mov    -0x8(%rbp),%rax
    4300:	48 8b 00             	mov    (%rax),%rax
    4303:	48 85 c0             	test   %rax,%rax
    4306:	0f 94 c0             	sete   %al
    4309:	5d                   	pop    %rbp
    430a:	c3                   	retq   
    430b:	90                   	nop

000000000000430c <_ZN6BucketIiiE6appendEP8HashNodeIiiE>:
    430c:	55                   	push   %rbp
    430d:	48 89 e5             	mov    %rsp,%rbp
    4310:	48 83 ec 10          	sub    $0x10,%rsp
    4314:	48 89 7d f8          	mov    %rdi,-0x8(%rbp)
    4318:	48 89 75 f0          	mov    %rsi,-0x10(%rbp)
    431c:	48 8b 45 f8          	mov    -0x8(%rbp),%rax
    4320:	48 8b 10             	mov    (%rax),%rdx
    4323:	48 8b 45 f0          	mov    -0x10(%rbp),%rax
    4327:	48 89 d6             	mov    %rdx,%rsi
    432a:	48 89 c7             	mov    %rax,%rdi
    432d:	e8 00 20 00 00       	callq  6332 <_ZN8HashNodeIiiE10insertNextEPS0_>
    4332:	48 8b 45 f8          	mov    -0x8(%rbp),%rax
    4336:	48 8b 55 f0          	mov    -0x10(%rbp),%rdx
    433a:	48 89 10             	mov    %rdx,(%rax)
    433d:	90                   	nop
    433e:	c9                   	leaveq 
    433f:	c3                   	retq   

0000000000004340 <_ZN6BucketIiiEC1Ev>:
    4340:	55                   	push   %rbp
    4341:	48 89 e5             	mov    %rsp,%rbp
    4344:	48 89 7d f8          	mov    %rdi,-0x8(%rbp)
    4348:	48 8b 45 f8          	mov    -0x8(%rbp),%rax
    434c:	48 c7 00 00 00 00 00 	movq   $0x0,(%rax)
    4353:	90                   	nop
    4354:	5d                   	pop    %rbp
    4355:	c3                   	retq   

0000000000004356 <_ZN6BucketIiiEC1EP8HashNodeIiiE>:
    4356:	55                   	push   %rbp
    4357:	48 89 e5             	mov    %rsp,%rbp
    435a:	48 89 7d f8          	mov    %rdi,-0x8(%rbp)
    435e:	48 89 75 f0          	mov    %rsi,-0x10(%rbp)
    4362:	48 8b 45 f8          	mov    -0x8(%rbp),%rax
    4366:	48 8b 55 f0          	mov    -0x10(%rbp),%rdx
    436a:	48 89 10             	mov    %rdx,(%rax)
    436d:	90                   	nop
    436e:	5d                   	pop    %rbp
    436f:	c3                   	retq   

0000000000004370 <_ZN6BucketIiiEC1ERKS0_>:
    4370:	55                   	push   %rbp
    4371:	48 89 e5             	mov    %rsp,%rbp
    4374:	48 89 7d f8          	mov    %rdi,-0x8(%rbp)
    4378:	48 89 75 f0          	mov    %rsi,-0x10(%rbp)
    437c:	48 8b 45 f0          	mov    -0x10(%rbp),%rax
    4380:	48 8b 10             	mov    (%rax),%rdx
    4383:	48 8b 45 f8          	mov    -0x8(%rbp),%rax
    4387:	48 89 10             	mov    %rdx,(%rax)
    438a:	90                   	nop
    438b:	5d                   	pop    %rbp
    438c:	c3                   	retq   
    438d:	90                   	nop

000000000000438e <_ZN6BucketIiiEaSES0_>:
    438e:	55                   	push   %rbp
    438f:	48 89 e5             	mov    %rsp,%rbp
    4392:	48 89 7d f8          	mov    %rdi,-0x8(%rbp)
    4396:	48 89 75 f0          	mov    %rsi,-0x10(%rbp)
    439a:	48 8b 45 f0          	mov    -0x10(%rbp),%rax
    439e:	48 8b 10             	mov    (%rax),%rdx
    43a1:	48 8b 45 f8          	mov    -0x8(%rbp),%rax
    43a5:	48 89 10             	mov    %rdx,(%rax)
    43a8:	48 8b 45 f8          	mov    -0x8(%rbp),%rax
    43ac:	5d                   	pop    %rbp
    43ad:	c3                   	retq   

00000000000043ae <_ZN6BucketIiiEC1EOS0_>:
    43ae:	55                   	push   %rbp
    43af:	48 89 e5             	mov    %rsp,%rbp
    43b2:	48 89 7d f8          	mov    %rdi,-0x8(%rbp)
    43b6:	48 89 75 f0          	mov    %rsi,-0x10(%rbp)
    43ba:	48 8b 45 f0          	mov    -0x10(%rbp),%rax
    43be:	48 8b 10             	mov    (%rax),%rdx
    43c1:	48 8b 45 f8          	mov    -0x8(%rbp),%rax
    43c5:	48 89 10             	mov    %rdx,(%rax)
    43c8:	90                   	nop
    43c9:	5d                   	pop    %rbp
    43ca:	c3                   	retq   
    43cb:	90                   	nop

00000000000043cc <_ZN6BucketIiiEaSEOS0_>:
    43cc:	55                   	push   %rbp
    43cd:	48 89 e5             	mov    %rsp,%rbp
    43d0:	48 89 7d f8          	mov    %rdi,-0x8(%rbp)
    43d4:	48 89 75 f0          	mov    %rsi,-0x10(%rbp)
    43d8:	48 8b 45 f0          	mov    -0x10(%rbp),%rax
    43dc:	48 8b 10             	mov    (%rax),%rdx
    43df:	48 8b 45 f8          	mov    -0x8(%rbp),%rax
    43e3:	48 89 10             	mov    %rdx,(%rax)
    43e6:	48 8b 45 f8          	mov    -0x8(%rbp),%rax
    43ea:	5d                   	pop    %rbp
    43eb:	c3                   	retq   

00000000000043ec <_ZN6BucketI9tm_stringiE7setNodeEP8HashNodeIS0_iE>:
    43ec:	55                   	push   %rbp
    43ed:	48 89 e5             	mov    %rsp,%rbp
    43f0:	48 89 7d f8          	mov    %rdi,-0x8(%rbp)
    43f4:	48 89 75 f0          	mov    %rsi,-0x10(%rbp)
    43f8:	48 8b 45 f8          	mov    -0x8(%rbp),%rax
    43fc:	48 8b 55 f0          	mov    -0x10(%rbp),%rdx
    4400:	48 89 10             	mov    %rdx,(%rax)
    4403:	90                   	nop
    4404:	5d                   	pop    %rbp
    4405:	c3                   	retq   

0000000000004406 <_ZN6BucketI9tm_stringiE7getNodeEv>:
    4406:	55                   	push   %rbp
    4407:	48 89 e5             	mov    %rsp,%rbp
    440a:	48 89 7d f8          	mov    %rdi,-0x8(%rbp)
    440e:	48 8b 45 f8          	mov    -0x8(%rbp),%rax
    4412:	48 8b 00             	mov    (%rax),%rax
    4415:	5d                   	pop    %rbp
    4416:	c3                   	retq   
    4417:	90                   	nop

0000000000004418 <_ZN6BucketI9tm_stringiE5emptyEv>:
    4418:	55                   	push   %rbp
    4419:	48 89 e5             	mov    %rsp,%rbp
    441c:	48 89 7d f8          	mov    %rdi,-0x8(%rbp)
    4420:	48 8b 45 f8          	mov    -0x8(%rbp),%rax
    4424:	48 8b 00             	mov    (%rax),%rax
    4427:	48 85 c0             	test   %rax,%rax
    442a:	0f 94 c0             	sete   %al
    442d:	5d                   	pop    %rbp
    442e:	c3                   	retq   
    442f:	90                   	nop

0000000000004430 <_ZN6BucketI9tm_stringiE6appendEP8HashNodeIS0_iE>:
    4430:	55                   	push   %rbp
    4431:	48 89 e5             	mov    %rsp,%rbp
    4434:	48 83 ec 10          	sub    $0x10,%rsp
    4438:	48 89 7d f8          	mov    %rdi,-0x8(%rbp)
    443c:	48 89 75 f0          	mov    %rsi,-0x10(%rbp)
    4440:	48 8b 45 f8          	mov    -0x8(%rbp),%rax
    4444:	48 8b 10             	mov    (%rax),%rdx
    4447:	48 8b 45 f0          	mov    -0x10(%rbp),%rax
    444b:	48 89 d6             	mov    %rdx,%rsi
    444e:	48 89 c7             	mov    %rax,%rdi
    4451:	e8 f6 1e 00 00       	callq  634c <_ZN8HashNodeI9tm_stringiE10insertNextEPS1_>
    4456:	48 8b 45 f8          	mov    -0x8(%rbp),%rax
    445a:	48 8b 55 f0          	mov    -0x10(%rbp),%rdx
    445e:	48 89 10             	mov    %rdx,(%rax)
    4461:	90                   	nop
    4462:	c9                   	leaveq 
    4463:	c3                   	retq   

0000000000004464 <_ZN6BucketI9tm_stringiEC1Ev>:
    4464:	55                   	push   %rbp
    4465:	48 89 e5             	mov    %rsp,%rbp
    4468:	48 89 7d f8          	mov    %rdi,-0x8(%rbp)
    446c:	48 8b 45 f8          	mov    -0x8(%rbp),%rax
    4470:	48 c7 00 00 00 00 00 	movq   $0x0,(%rax)
    4477:	90                   	nop
    4478:	5d                   	pop    %rbp
    4479:	c3                   	retq   

000000000000447a <_ZN6BucketI9tm_stringiEC1EP8HashNodeIS0_iE>:
    447a:	55                   	push   %rbp
    447b:	48 89 e5             	mov    %rsp,%rbp
    447e:	48 89 7d f8          	mov    %rdi,-0x8(%rbp)
    4482:	48 89 75 f0          	mov    %rsi,-0x10(%rbp)
    4486:	48 8b 45 f8          	mov    -0x8(%rbp),%rax
    448a:	48 8b 55 f0          	mov    -0x10(%rbp),%rdx
    448e:	48 89 10             	mov    %rdx,(%rax)
    4491:	90                   	nop
    4492:	5d                   	pop    %rbp
    4493:	c3                   	retq   

0000000000004494 <_ZN6BucketI9tm_stringiEC1ERKS1_>:
    4494:	55                   	push   %rbp
    4495:	48 89 e5             	mov    %rsp,%rbp
    4498:	48 89 7d f8          	mov    %rdi,-0x8(%rbp)
    449c:	48 89 75 f0          	mov    %rsi,-0x10(%rbp)
    44a0:	48 8b 45 f0          	mov    -0x10(%rbp),%rax
    44a4:	48 8b 10             	mov    (%rax),%rdx
    44a7:	48 8b 45 f8          	mov    -0x8(%rbp),%rax
    44ab:	48 89 10             	mov    %rdx,(%rax)
    44ae:	90                   	nop
    44af:	5d                   	pop    %rbp
    44b0:	c3                   	retq   
    44b1:	90                   	nop

00000000000044b2 <_ZN6BucketI9tm_stringiEaSES1_>:
    44b2:	55                   	push   %rbp
    44b3:	48 89 e5             	mov    %rsp,%rbp
    44b6:	48 89 7d f8          	mov    %rdi,-0x8(%rbp)
    44ba:	48 89 75 f0          	mov    %rsi,-0x10(%rbp)
    44be:	48 8b 45 f0          	mov    -0x10(%rbp),%rax
    44c2:	48 8b 10             	mov    (%rax),%rdx
    44c5:	48 8b 45 f8          	mov    -0x8(%rbp),%rax
    44c9:	48 89 10             	mov    %rdx,(%rax)
    44cc:	48 8b 45 f8          	mov    -0x8(%rbp),%rax
    44d0:	5d                   	pop    %rbp
    44d1:	c3                   	retq   

00000000000044d2 <_ZN6BucketI9tm_stringiEC1EOS1_>:
    44d2:	55                   	push   %rbp
    44d3:	48 89 e5             	mov    %rsp,%rbp
    44d6:	48 89 7d f8          	mov    %rdi,-0x8(%rbp)
    44da:	48 89 75 f0          	mov    %rsi,-0x10(%rbp)
    44de:	48 8b 45 f0          	mov    -0x10(%rbp),%rax
    44e2:	48 8b 10             	mov    (%rax),%rdx
    44e5:	48 8b 45 f8          	mov    -0x8(%rbp),%rax
    44e9:	48 89 10             	mov    %rdx,(%rax)
    44ec:	90                   	nop
    44ed:	5d                   	pop    %rbp
    44ee:	c3                   	retq   
    44ef:	90                   	nop

00000000000044f0 <_ZN6BucketI9tm_stringiEaSEOS1_>:
    44f0:	55                   	push   %rbp
    44f1:	48 89 e5             	mov    %rsp,%rbp
    44f4:	48 89 7d f8          	mov    %rdi,-0x8(%rbp)
    44f8:	48 89 75 f0          	mov    %rsi,-0x10(%rbp)
    44fc:	48 8b 45 f0          	mov    -0x10(%rbp),%rax
    4500:	48 8b 10             	mov    (%rax),%rdx
    4503:	48 8b 45 f8          	mov    -0x8(%rbp),%rax
    4507:	48 89 10             	mov    %rdx,(%rax)
    450a:	48 8b 45 f8          	mov    -0x8(%rbp),%rax
    450e:	5d                   	pop    %rbp
    450f:	c3                   	retq   

0000000000004510 <_ZN6BucketIi9tm_stringE7setNodeEP8HashNodeIiS0_E>:
    4510:	55                   	push   %rbp
    4511:	48 89 e5             	mov    %rsp,%rbp
    4514:	48 89 7d f8          	mov    %rdi,-0x8(%rbp)
    4518:	48 89 75 f0          	mov    %rsi,-0x10(%rbp)
    451c:	48 8b 45 f8          	mov    -0x8(%rbp),%rax
    4520:	48 8b 55 f0          	mov    -0x10(%rbp),%rdx
    4524:	48 89 10             	mov    %rdx,(%rax)
    4527:	90                   	nop
    4528:	5d                   	pop    %rbp
    4529:	c3                   	retq   

000000000000452a <_ZN6BucketIi9tm_stringE7getNodeEv>:
    452a:	55                   	push   %rbp
    452b:	48 89 e5             	mov    %rsp,%rbp
    452e:	48 89 7d f8          	mov    %rdi,-0x8(%rbp)
    4532:	48 8b 45 f8          	mov    -0x8(%rbp),%rax
    4536:	48 8b 00             	mov    (%rax),%rax
    4539:	5d                   	pop    %rbp
    453a:	c3                   	retq   
    453b:	90                   	nop

000000000000453c <_ZN6BucketIi9tm_stringE5emptyEv>:
    453c:	55                   	push   %rbp
    453d:	48 89 e5             	mov    %rsp,%rbp
    4540:	48 89 7d f8          	mov    %rdi,-0x8(%rbp)
    4544:	48 8b 45 f8          	mov    -0x8(%rbp),%rax
    4548:	48 8b 00             	mov    (%rax),%rax
    454b:	48 85 c0             	test   %rax,%rax
    454e:	0f 94 c0             	sete   %al
    4551:	5d                   	pop    %rbp
    4552:	c3                   	retq   
    4553:	90                   	nop

0000000000004554 <_ZN6BucketIi9tm_stringE6appendEP8HashNodeIiS0_E>:
    4554:	55                   	push   %rbp
    4555:	48 89 e5             	mov    %rsp,%rbp
    4558:	48 83 ec 10          	sub    $0x10,%rsp
    455c:	48 89 7d f8          	mov    %rdi,-0x8(%rbp)
    4560:	48 89 75 f0          	mov    %rsi,-0x10(%rbp)
    4564:	48 8b 45 f8          	mov    -0x8(%rbp),%rax
    4568:	48 8b 10             	mov    (%rax),%rdx
    456b:	48 8b 45 f0          	mov    -0x10(%rbp),%rax
    456f:	48 89 d6             	mov    %rdx,%rsi
    4572:	48 89 c7             	mov    %rax,%rdi
    4575:	e8 ec 1d 00 00       	callq  6366 <_ZN8HashNodeIi9tm_stringE10insertNextEPS1_>
    457a:	48 8b 45 f8          	mov    -0x8(%rbp),%rax
    457e:	48 8b 55 f0          	mov    -0x10(%rbp),%rdx
    4582:	48 89 10             	mov    %rdx,(%rax)
    4585:	90                   	nop
    4586:	c9                   	leaveq 
    4587:	c3                   	retq   

0000000000004588 <_ZN6BucketIi9tm_stringEC1Ev>:
    4588:	55                   	push   %rbp
    4589:	48 89 e5             	mov    %rsp,%rbp
    458c:	48 89 7d f8          	mov    %rdi,-0x8(%rbp)
    4590:	48 8b 45 f8          	mov    -0x8(%rbp),%rax
    4594:	48 c7 00 00 00 00 00 	movq   $0x0,(%rax)
    459b:	90                   	nop
    459c:	5d                   	pop    %rbp
    459d:	c3                   	retq   

000000000000459e <_ZN6BucketIi9tm_stringEC1EP8HashNodeIiS0_E>:
    459e:	55                   	push   %rbp
    459f:	48 89 e5             	mov    %rsp,%rbp
    45a2:	48 89 7d f8          	mov    %rdi,-0x8(%rbp)
    45a6:	48 89 75 f0          	mov    %rsi,-0x10(%rbp)
    45aa:	48 8b 45 f8          	mov    -0x8(%rbp),%rax
    45ae:	48 8b 55 f0          	mov    -0x10(%rbp),%rdx
    45b2:	48 89 10             	mov    %rdx,(%rax)
    45b5:	90                   	nop
    45b6:	5d                   	pop    %rbp
    45b7:	c3                   	retq   

00000000000045b8 <_ZN6BucketIi9tm_stringEC1ERKS1_>:
    45b8:	55                   	push   %rbp
    45b9:	48 89 e5             	mov    %rsp,%rbp
    45bc:	48 89 7d f8          	mov    %rdi,-0x8(%rbp)
    45c0:	48 89 75 f0          	mov    %rsi,-0x10(%rbp)
    45c4:	48 8b 45 f0          	mov    -0x10(%rbp),%rax
    45c8:	48 8b 10             	mov    (%rax),%rdx
    45cb:	48 8b 45 f8          	mov    -0x8(%rbp),%rax
    45cf:	48 89 10             	mov    %rdx,(%rax)
    45d2:	90                   	nop
    45d3:	5d                   	pop    %rbp
    45d4:	c3                   	retq   
    45d5:	90                   	nop

00000000000045d6 <_ZN6BucketIi9tm_stringEaSES1_>:
    45d6:	55                   	push   %rbp
    45d7:	48 89 e5             	mov    %rsp,%rbp
    45da:	48 89 7d f8          	mov    %rdi,-0x8(%rbp)
    45de:	48 89 75 f0          	mov    %rsi,-0x10(%rbp)
    45e2:	48 8b 45 f0          	mov    -0x10(%rbp),%rax
    45e6:	48 8b 10             	mov    (%rax),%rdx
    45e9:	48 8b 45 f8          	mov    -0x8(%rbp),%rax
    45ed:	48 89 10             	mov    %rdx,(%rax)
    45f0:	48 8b 45 f8          	mov    -0x8(%rbp),%rax
    45f4:	5d                   	pop    %rbp
    45f5:	c3                   	retq   

00000000000045f6 <_ZN6BucketIi9tm_stringEC1EOS1_>:
    45f6:	55                   	push   %rbp
    45f7:	48 89 e5             	mov    %rsp,%rbp
    45fa:	48 89 7d f8          	mov    %rdi,-0x8(%rbp)
    45fe:	48 89 75 f0          	mov    %rsi,-0x10(%rbp)
    4602:	48 8b 45 f0          	mov    -0x10(%rbp),%rax
    4606:	48 8b 10             	mov    (%rax),%rdx
    4609:	48 8b 45 f8          	mov    -0x8(%rbp),%rax
    460d:	48 89 10             	mov    %rdx,(%rax)
    4610:	90                   	nop
    4611:	5d                   	pop    %rbp
    4612:	c3                   	retq   
    4613:	90                   	nop

0000000000004614 <_ZN6BucketIi9tm_stringEaSEOS1_>:
    4614:	55                   	push   %rbp
    4615:	48 89 e5             	mov    %rsp,%rbp
    4618:	48 89 7d f8          	mov    %rdi,-0x8(%rbp)
    461c:	48 89 75 f0          	mov    %rsi,-0x10(%rbp)
    4620:	48 8b 45 f0          	mov    -0x10(%rbp),%rax
    4624:	48 8b 10             	mov    (%rax),%rdx
    4627:	48 8b 45 f8          	mov    -0x8(%rbp),%rax
    462b:	48 89 10             	mov    %rdx,(%rax)
    462e:	48 8b 45 f8          	mov    -0x8(%rbp),%rax
    4632:	5d                   	pop    %rbp
    4633:	c3                   	retq   

0000000000004634 <_ZN6BucketI9tm_stringS0_E7setNodeEP8HashNodeIS0_S0_E>:
    4634:	55                   	push   %rbp
    4635:	48 89 e5             	mov    %rsp,%rbp
    4638:	48 89 7d f8          	mov    %rdi,-0x8(%rbp)
    463c:	48 89 75 f0          	mov    %rsi,-0x10(%rbp)
    4640:	48 8b 45 f8          	mov    -0x8(%rbp),%rax
    4644:	48 8b 55 f0          	mov    -0x10(%rbp),%rdx
    4648:	48 89 10             	mov    %rdx,(%rax)
    464b:	90                   	nop
    464c:	5d                   	pop    %rbp
    464d:	c3                   	retq   

000000000000464e <_ZN6BucketI9tm_stringS0_E7getNodeEv>:
    464e:	55                   	push   %rbp
    464f:	48 89 e5             	mov    %rsp,%rbp
    4652:	48 89 7d f8          	mov    %rdi,-0x8(%rbp)
    4656:	48 8b 45 f8          	mov    -0x8(%rbp),%rax
    465a:	48 8b 00             	mov    (%rax),%rax
    465d:	5d                   	pop    %rbp
    465e:	c3                   	retq   
    465f:	90                   	nop

0000000000004660 <_ZN6BucketI9tm_stringS0_E5emptyEv>:
    4660:	55                   	push   %rbp
    4661:	48 89 e5             	mov    %rsp,%rbp
    4664:	48 89 7d f8          	mov    %rdi,-0x8(%rbp)
    4668:	48 8b 45 f8          	mov    -0x8(%rbp),%rax
    466c:	48 8b 00             	mov    (%rax),%rax
    466f:	48 85 c0             	test   %rax,%rax
    4672:	0f 94 c0             	sete   %al
    4675:	5d                   	pop    %rbp
    4676:	c3                   	retq   
    4677:	90                   	nop

0000000000004678 <_ZN6BucketI9tm_stringS0_E6appendEP8HashNodeIS0_S0_E>:
    4678:	55                   	push   %rbp
    4679:	48 89 e5             	mov    %rsp,%rbp
    467c:	48 83 ec 10          	sub    $0x10,%rsp
    4680:	48 89 7d f8          	mov    %rdi,-0x8(%rbp)
    4684:	48 89 75 f0          	mov    %rsi,-0x10(%rbp)
    4688:	48 8b 45 f8          	mov    -0x8(%rbp),%rax
    468c:	48 8b 10             	mov    (%rax),%rdx
    468f:	48 8b 45 f0          	mov    -0x10(%rbp),%rax
    4693:	48 89 d6             	mov    %rdx,%rsi
    4696:	48 89 c7             	mov    %rax,%rdi
    4699:	e8 e2 1c 00 00       	callq  6380 <_ZN8HashNodeI9tm_stringS0_E10insertNextEPS1_>
    469e:	48 8b 45 f8          	mov    -0x8(%rbp),%rax
    46a2:	48 8b 55 f0          	mov    -0x10(%rbp),%rdx
    46a6:	48 89 10             	mov    %rdx,(%rax)
    46a9:	90                   	nop
    46aa:	c9                   	leaveq 
    46ab:	c3                   	retq   

00000000000046ac <_ZN6BucketI9tm_stringS0_EC1Ev>:
    46ac:	55                   	push   %rbp
    46ad:	48 89 e5             	mov    %rsp,%rbp
    46b0:	48 89 7d f8          	mov    %rdi,-0x8(%rbp)
    46b4:	48 8b 45 f8          	mov    -0x8(%rbp),%rax
    46b8:	48 c7 00 00 00 00 00 	movq   $0x0,(%rax)
    46bf:	90                   	nop
    46c0:	5d                   	pop    %rbp
    46c1:	c3                   	retq   

00000000000046c2 <_ZN6BucketI9tm_stringS0_EC1EP8HashNodeIS0_S0_E>:
    46c2:	55                   	push   %rbp
    46c3:	48 89 e5             	mov    %rsp,%rbp
    46c6:	48 89 7d f8          	mov    %rdi,-0x8(%rbp)
    46ca:	48 89 75 f0          	mov    %rsi,-0x10(%rbp)
    46ce:	48 8b 45 f8          	mov    -0x8(%rbp),%rax
    46d2:	48 8b 55 f0          	mov    -0x10(%rbp),%rdx
    46d6:	48 89 10             	mov    %rdx,(%rax)
    46d9:	90                   	nop
    46da:	5d                   	pop    %rbp
    46db:	c3                   	retq   

00000000000046dc <_ZN6BucketI9tm_stringS0_EC1ERKS1_>:
    46dc:	55                   	push   %rbp
    46dd:	48 89 e5             	mov    %rsp,%rbp
    46e0:	48 89 7d f8          	mov    %rdi,-0x8(%rbp)
    46e4:	48 89 75 f0          	mov    %rsi,-0x10(%rbp)
    46e8:	48 8b 45 f0          	mov    -0x10(%rbp),%rax
    46ec:	48 8b 10             	mov    (%rax),%rdx
    46ef:	48 8b 45 f8          	mov    -0x8(%rbp),%rax
    46f3:	48 89 10             	mov    %rdx,(%rax)
    46f6:	90                   	nop
    46f7:	5d                   	pop    %rbp
    46f8:	c3                   	retq   
    46f9:	90                   	nop

00000000000046fa <_ZN6BucketI9tm_stringS0_EaSES1_>:
    46fa:	55                   	push   %rbp
    46fb:	48 89 e5             	mov    %rsp,%rbp
    46fe:	48 89 7d f8          	mov    %rdi,-0x8(%rbp)
    4702:	48 89 75 f0          	mov    %rsi,-0x10(%rbp)
    4706:	48 8b 45 f0          	mov    -0x10(%rbp),%rax
    470a:	48 8b 10             	mov    (%rax),%rdx
    470d:	48 8b 45 f8          	mov    -0x8(%rbp),%rax
    4711:	48 89 10             	mov    %rdx,(%rax)
    4714:	48 8b 45 f8          	mov    -0x8(%rbp),%rax
    4718:	5d                   	pop    %rbp
    4719:	c3                   	retq   

000000000000471a <_ZN6BucketI9tm_stringS0_EC1EOS1_>:
    471a:	55                   	push   %rbp
    471b:	48 89 e5             	mov    %rsp,%rbp
    471e:	48 89 7d f8          	mov    %rdi,-0x8(%rbp)
    4722:	48 89 75 f0          	mov    %rsi,-0x10(%rbp)
    4726:	48 8b 45 f0          	mov    -0x10(%rbp),%rax
    472a:	48 8b 10             	mov    (%rax),%rdx
    472d:	48 8b 45 f8          	mov    -0x8(%rbp),%rax
    4731:	48 89 10             	mov    %rdx,(%rax)
    4734:	90                   	nop
    4735:	5d                   	pop    %rbp
    4736:	c3                   	retq   
    4737:	90                   	nop

0000000000004738 <_ZN6BucketI9tm_stringS0_EaSEOS1_>:
    4738:	55                   	push   %rbp
    4739:	48 89 e5             	mov    %rsp,%rbp
    473c:	48 89 7d f8          	mov    %rdi,-0x8(%rbp)
    4740:	48 89 75 f0          	mov    %rsi,-0x10(%rbp)
    4744:	48 8b 45 f0          	mov    -0x10(%rbp),%rax
    4748:	48 8b 10             	mov    (%rax),%rdx
    474b:	48 8b 45 f8          	mov    -0x8(%rbp),%rax
    474f:	48 89 10             	mov    %rdx,(%rax)
    4752:	48 8b 45 f8          	mov    -0x8(%rbp),%rax
    4756:	5d                   	pop    %rbp
    4757:	c3                   	retq   

0000000000004758 <_ZNSt6atomicIbEaSEb>:
    4758:	55                   	push   %rbp
    4759:	48 89 e5             	mov    %rsp,%rbp
    475c:	48 83 ec 10          	sub    $0x10,%rsp
    4760:	48 89 7d f8          	mov    %rdi,-0x8(%rbp)
    4764:	89 f0                	mov    %esi,%eax
    4766:	88 45 f4             	mov    %al,-0xc(%rbp)
    4769:	48 8b 45 f8          	mov    -0x8(%rbp),%rax
    476d:	0f b6 55 f4          	movzbl -0xc(%rbp),%edx
    4771:	89 d6                	mov    %edx,%esi
    4773:	48 89 c7             	mov    %rax,%rdi
    4776:	e8 e7 02 00 00       	callq  4a62 <_ZNSt13__atomic_baseIbEaSEb>
    477b:	c9                   	leaveq 
    477c:	c3                   	retq   
    477d:	90                   	nop

000000000000477e <_ZNKSt6atomicIbEcvbEv>:
    477e:	55                   	push   %rbp
    477f:	48 89 e5             	mov    %rsp,%rbp
    4782:	48 83 ec 20          	sub    $0x20,%rsp
    4786:	48 89 7d e8          	mov    %rdi,-0x18(%rbp)
    478a:	48 8b 45 e8          	mov    -0x18(%rbp),%rax
    478e:	48 89 45 f8          	mov    %rax,-0x8(%rbp)
    4792:	c7 45 f0 05 00 00 00 	movl   $0x5,-0x10(%rbp)
    4799:	8b 45 f0             	mov    -0x10(%rbp),%eax
    479c:	be ff ff 00 00       	mov    $0xffff,%esi
    47a1:	89 c7                	mov    %eax,%edi
    47a3:	e8 a5 f7 ff ff       	callq  3f4d <_ZStanSt12memory_orderSt23__memory_order_modifier>
    47a8:	89 45 f4             	mov    %eax,-0xc(%rbp)
    47ab:	48 8b 45 f8          	mov    -0x8(%rbp),%rax
    47af:	0f b6 00             	movzbl (%rax),%eax
    47b2:	84 c0                	test   %al,%al
    47b4:	0f 95 c0             	setne  %al
    47b7:	c9                   	leaveq 
    47b8:	c3                   	retq   
    47b9:	90                   	nop

00000000000047ba <_ZNK20InvalidSizeException4whatEv>:
    47ba:	55                   	push   %rbp
    47bb:	48 89 e5             	mov    %rsp,%rbp
    47be:	48 89 7d f8          	mov    %rdi,-0x8(%rbp)
    47c2:	48 8d 05 67 54 00 00 	lea    0x5467(%rip),%rax        # 9c30 <_ZN6__pstl9execution2v1L5unseqE+0x1>
    47c9:	5d                   	pop    %rbp
    47ca:	c3                   	retq   
    47cb:	90                   	nop

00000000000047cc <_ZNSt12_Vector_baseISt4pairIiiESaIS1_EE12_Vector_implD1Ev>:
    47cc:	55                   	push   %rbp
    47cd:	48 89 e5             	mov    %rsp,%rbp
    47d0:	48 83 ec 10          	sub    $0x10,%rsp
    47d4:	48 89 7d f8          	mov    %rdi,-0x8(%rbp)
    47d8:	48 8b 45 f8          	mov    -0x8(%rbp),%rax
    47dc:	48 89 c7             	mov    %rax,%rdi
    47df:	e8 14 0e 00 00       	callq  55f8 <_ZNSaISt4pairIiiEED1Ev>
    47e4:	90                   	nop
    47e5:	c9                   	leaveq 
    47e6:	c3                   	retq   
    47e7:	90                   	nop

00000000000047e8 <_ZNSt12_Vector_baseISt4pairIiiESaIS1_EEC1Ev>:
    47e8:	55                   	push   %rbp
    47e9:	48 89 e5             	mov    %rsp,%rbp
    47ec:	48 83 ec 10          	sub    $0x10,%rsp
    47f0:	48 89 7d f8          	mov    %rdi,-0x8(%rbp)
    47f4:	48 8b 45 f8          	mov    -0x8(%rbp),%rax
    47f8:	48 89 c7             	mov    %rax,%rdi
    47fb:	e8 d0 0d 00 00       	callq  55d0 <_ZNSt12_Vector_baseISt4pairIiiESaIS1_EE12_Vector_implC1Ev>
    4800:	90                   	nop
    4801:	c9                   	leaveq 
    4802:	c3                   	retq   
    4803:	90                   	nop

0000000000004804 <_ZNSt6vectorISt4pairIiiESaIS1_EEC1Ev>:
    4804:	55                   	push   %rbp
    4805:	48 89 e5             	mov    %rsp,%rbp
    4808:	48 83 ec 10          	sub    $0x10,%rsp
    480c:	48 89 7d f8          	mov    %rdi,-0x8(%rbp)
    4810:	48 8b 45 f8          	mov    -0x8(%rbp),%rax
    4814:	48 89 c7             	mov    %rax,%rdi
    4817:	e8 cc ff ff ff       	callq  47e8 <_ZNSt12_Vector_baseISt4pairIiiESaIS1_EEC1Ev>
    481c:	90                   	nop
    481d:	c9                   	leaveq 
    481e:	c3                   	retq   
    481f:	90                   	nop

0000000000004820 <_ZN6w_dataC1Ev>:
    4820:	55                   	push   %rbp
    4821:	48 89 e5             	mov    %rsp,%rbp
    4824:	48 83 ec 10          	sub    $0x10,%rsp
    4828:	48 89 7d f8          	mov    %rdi,-0x8(%rbp)
    482c:	48 8b 45 f8          	mov    -0x8(%rbp),%rax
    4830:	48 83 c0 08          	add    $0x8,%rax
    4834:	48 89 c7             	mov    %rax,%rdi
    4837:	e8 c8 ff ff ff       	callq  4804 <_ZNSt6vectorISt4pairIiiESaIS1_EEC1Ev>
    483c:	90                   	nop
    483d:	c9                   	leaveq 
    483e:	c3                   	retq   
    483f:	90                   	nop

0000000000004840 <_ZN6w_dataD1Ev>:
    4840:	55                   	push   %rbp
    4841:	48 89 e5             	mov    %rsp,%rbp
    4844:	48 83 ec 10          	sub    $0x10,%rsp
    4848:	48 89 7d f8          	mov    %rdi,-0x8(%rbp)
    484c:	48 8b 45 f8          	mov    -0x8(%rbp),%rax
    4850:	48 83 c0 08          	add    $0x8,%rax
    4854:	48 89 c7             	mov    %rax,%rdi
    4857:	e8 06 0e 00 00       	callq  5662 <_ZNSt6vectorISt4pairIiiESaIS1_EED1Ev>
    485c:	90                   	nop
    485d:	c9                   	leaveq 
    485e:	c3                   	retq   
    485f:	90                   	nop

0000000000004860 <_ZNSt12_Vector_baseIiSaIiEE12_Vector_implD1Ev>:
    4860:	55                   	push   %rbp
    4861:	48 89 e5             	mov    %rsp,%rbp
    4864:	48 83 ec 10          	sub    $0x10,%rsp
    4868:	48 89 7d f8          	mov    %rdi,-0x8(%rbp)
    486c:	48 8b 45 f8          	mov    -0x8(%rbp),%rax
    4870:	48 89 c7             	mov    %rax,%rdi
    4873:	e8 56 0e 00 00       	callq  56ce <_ZNSaIiED1Ev>
    4878:	90                   	nop
    4879:	c9                   	leaveq 
    487a:	c3                   	retq   
    487b:	90                   	nop

000000000000487c <_ZNSt12_Vector_baseIiSaIiEEC1Ev>:
    487c:	55                   	push   %rbp
    487d:	48 89 e5             	mov    %rsp,%rbp
    4880:	48 83 ec 10          	sub    $0x10,%rsp
    4884:	48 89 7d f8          	mov    %rdi,-0x8(%rbp)
    4888:	48 8b 45 f8          	mov    -0x8(%rbp),%rax
    488c:	48 89 c7             	mov    %rax,%rdi
    488f:	e8 12 0e 00 00       	callq  56a6 <_ZNSt12_Vector_baseIiSaIiEE12_Vector_implC1Ev>
    4894:	90                   	nop
    4895:	c9                   	leaveq 
    4896:	c3                   	retq   
    4897:	90                   	nop

0000000000004898 <_ZNSt6vectorIiSaIiEEC1Ev>:
    4898:	55                   	push   %rbp
    4899:	48 89 e5             	mov    %rsp,%rbp
    489c:	48 83 ec 10          	sub    $0x10,%rsp
    48a0:	48 89 7d f8          	mov    %rdi,-0x8(%rbp)
    48a4:	48 8b 45 f8          	mov    -0x8(%rbp),%rax
    48a8:	48 89 c7             	mov    %rax,%rdi
    48ab:	e8 cc ff ff ff       	callq  487c <_ZNSt12_Vector_baseIiSaIiEEC1Ev>
    48b0:	90                   	nop
    48b1:	c9                   	leaveq 
    48b2:	c3                   	retq   
    48b3:	90                   	nop

00000000000048b4 <_ZN6r_dataC1Ev>:
    48b4:	55                   	push   %rbp
    48b5:	48 89 e5             	mov    %rsp,%rbp
    48b8:	48 83 ec 10          	sub    $0x10,%rsp
    48bc:	48 89 7d f8          	mov    %rdi,-0x8(%rbp)
    48c0:	48 8b 45 f8          	mov    -0x8(%rbp),%rax
    48c4:	48 83 c0 08          	add    $0x8,%rax
    48c8:	48 89 c7             	mov    %rax,%rdi
    48cb:	e8 c8 ff ff ff       	callq  4898 <_ZNSt6vectorIiSaIiEEC1Ev>
    48d0:	90                   	nop
    48d1:	c9                   	leaveq 
    48d2:	c3                   	retq   
    48d3:	90                   	nop

00000000000048d4 <_ZN6r_dataD1Ev>:
    48d4:	55                   	push   %rbp
    48d5:	48 89 e5             	mov    %rsp,%rbp
    48d8:	48 83 ec 10          	sub    $0x10,%rsp
    48dc:	48 89 7d f8          	mov    %rdi,-0x8(%rbp)
    48e0:	48 8b 45 f8          	mov    -0x8(%rbp),%rax
    48e4:	48 83 c0 08          	add    $1ca0 0x8,%rax
    48e8:	48 89 c7             	mov    %rax,%rdi
    48eb:	e8 48 0e 00 00       	callq  5738 <_ZNSt6vectorIiSaIiEED1Ev>
    48f0:	90                   	nop
    48f1:	c9                   	leaveq 
    48f2:	c3                   	retq   
    48f3:	90                   	nop

00000000000048f4 <_ZN6d_dataC1Ev>:
    48f4:	55                   	push   %rbp
    48f5:	48 89 e5             	mov    %rsp,%rbp
    48f8:	48 83 ec 10          	sub    $0x10,%rsp
    48fc:	48 89 7d f8          	mov    %rdi,-0x8(%rbp)
    4900:	48 8b 45 f8          	mov    -0x8(%rbp),%rax
    4904:	48 83 c0 08          	add    $0x8,%rax
    4908:	48 89 c7             	mov    %rax,%rdi
    490b:	e8 88 ff ff ff       	callq  4898 <_ZNSt6vectorIiSaIiEEC1Ev>
    4910:	90                   	nop
    4911:	c9                   	leaveq 
    4912:	c3                   	retq   
    4913:	90                   	nop

0000000000004914 <_ZN6d_dataD1Ev>:
    4914:	55                   	push   %rbp
    4915:	48 89 e5             	mov    %rsp,%rbp
    4918:	48 83 ec 10          	sub    $0x10,%rsp
    491c:	48 89 7d f8          	mov    %rdi,-0x8(%rbp)
    4920:	48 8b 45 f8          	mov    -0x8(%rbp),%rax
    4924:	48 83 c0 08          	add    $0x8,%rax
    4928:	48 89 c7             	mov    %rax,%rdi
    492b:	e8 08 0e 00 00       	callq  5738 <_ZNSt6vectorIiSaIiEED1Ev>
    4930:	90                   	nop
    4931:	c9                   	leaveq 
    4932:	c3                   	retq   
    4933:	90                   	nop

0000000000004934 <_ZN8all_dataC1Ev>:
    4934:	55                   	push   %rbp
    4935:	48 89 e5             	mov    %rsp,%rbp
    4938:	48 83 ec 10          	sub    $0x10,%rsp
    493c:	48 89 7d f8          	mov    %rdi,-0x8(%rbp)
    4940:	48 8b 45 f8          	mov    -0x8(%rbp),%rax
    4944:	48 83 c0 08          	add    $0x8,%rax
    4948:	48 89 c7             	mov    %rax,%rdi
    494b:	e8 b4 fe ff ff       	callq  4804 <_ZNSt6vectorISt4pairIiiESaIS1_EEC1Ev>
    4950:	48 8b 45 f8          	mov    -0x8(%rbp),%rax
    4954:	48 83 c0 20          	add    $0x20,%rax
    4958:	48 89 c7             	mov    %rax,%rdi
    495b:	e8 38 ff ff ff       	callq  4898 <_ZNSt6vectorIiSaIiEEC1Ev>
    4960:	48 8b 45 f8          	mov    -0x8(%rbp),%rax
    4964:	48 83 c0 38          	add    $0x38,%rax
    4968:	48 89 c7             	mov    %rax,%rdi
    496b:	e8 28 ff ff ff       	callq  4898 <_ZNSt6vectorIiSaIiEEC1Ev>
    4970:	90                   	nop
    4971:	c9                   	leaveq 
    4972:	c3                   	retq   
    4973:	90                   	nop

0000000000004974 <_ZN8all_dataD1Ev>:
    4974:	55                   	push   %rbp
    4975:	48 89 e5             	mov    %rsp,%rbp
    4978:	48 83 ec 10          	sub    $0x10,%rsp
    497c:	48 89 7d f8          	mov    %rdi,-0x8(%rbp)
    4980:	48 8b 45 f8          	mov    -0x8(%rbp),%rax
    4984:	48 83 c0 38          	add    $0x38,%rax
    4988:	48 89 c7             	mov    %rax,%rdi
    498b:	e8 a8 0d 00 00       	callq  5738 <_ZNSt6vectorIiSaIiEED1Ev>
    4990:	48 8b 45 f8          	mov    -0x8(%rbp),%rax
    4994:	48 83 c0 20          	add    $0x20,%rax
    4998:	48 89 c7             	mov    %rax,%rdi
    499b:	e8 98 0d 00 00       	callq  5738 <_ZNSt6vectorIiSaIiEED1Ev>
    49a0:	48 8b 45 f8          	mov    -0x8(%rbp),%rax
    49a4:	48 83 c0 08          	add    $0x8,%rax
    49a8:	48 89 c7             	mov    %rax,%rdi
    49ab:	e8 b2 0c 00 00       	callq  5662 <_ZNSt6vectorISt4pairIiiESaIS1_EED1Ev>
    49b0:	90                   	nop
    49b1:	c9                   	leaveq 
    49b2:	c3                   	retq   

00000000000049b3 <_ZSt3maxImERKT_S2_S2_>:
    49b3:	55                   	push   %rbp
    49b4:	48 89 e5             	mov    %rsp,%rbp
    49b7:	48 89 7d f8          	mov    %rdi,-0x8(%rbp)
    49bb:	48 89 75 f0          	mov    %rsi,-0x10(%rbp)
    49bf:	48 8b 45 f8          	mov    -0x8(%rbp),%rax
    49c3:	48 8b 10             	mov    (%rax),%rdx
    49c6:	48 8b 45 f0          	mov    -0x10(%rbp),%rax
    49ca:	48 8b 00             	mov    (%rax),%rax
    49cd:	48 39 c2             	cmp    %rax,%rdx
    49d0:	73 06                	jae    49d8 <_ZSt3maxImERKT_S2_S2_+0x25>
    49d2:	48 8b 45 f0          	mov    -0x10(%rbp),%rax
    49d6:	eb 04                	jmp    49dc <_ZSt3maxImERKT_S2_S2_+0x29>
    49d8:	48 8b 45 f8          	mov    -0x8(%rbp),%rax
    49dc:	5d                   	pop    %rbp
    49dd:	c3                   	retq   

00000000000049de <_ZSt7forwardIiEOT_RNSt16remove_referenceIS0_E4typeE>:
    49de:	55                   	push   %rbp
    49df:	48 89 e5             	mov    %rsp,%rbp
    49e2:	48 89 7d f8          	mov    %rdi,-0x8(%rbp)
    49e6:	48 8b 45 f8          	mov    -0x8(%rbp),%rax
    49ea:	5d                   	pop    %rbp
    49eb:	c3                   	retq   

00000000000049ec <_ZSt4swapINSt6thread2idEENSt9enable_ifIXsrSt6__and_IJSt6__not_ISt15__is_tuple_likeIT_EESt21is_move_constructibleIS6_ESt18is_move_assignableIS6_EEE5valueEvE4typeERS6_SG_>:
    49ec:	55                   	push   %rbp
    49ed:	48 89 e5             	mov    %rsp,%rbp
    49f0:	48 83 ec 20          	sub    $0x20,%rsp
    49f4:	48 89 7d e8          	mov    %rdi,-0x18(%rbp)
    49f8:	48 89 75 e0          	mov    %rsi,-0x20(%rbp)
    49fc:	64 48 8b 04 25 28 00 	mov    %fs:0x28,%rax
    4a03:	00 00 
    4a05:	48 89 45 f8          	mov    %rax,-0x8(%rbp)
    4a09:	31 c0                	xor    %eax,%eax
    4a0b:	48 8b 45 e8          	mov    -0x18(%rbp),%rax
    4a0f:	48 89 c7             	mov    %rax,%rdi
    4a12:	e8 0c 19 00 00       	callq  6323 <_ZSt4moveIRNSt6thread2idEEONSt16remove_referenceIT_E4typeEOS4_>
    4a17:	48 8b 00             	mov    (%rax),%rax
    4a1a:	48 89 45 f0          	mov    %rax,-0x10(%rbp)
    4a1e:	48 8b 45 e0          	mov    -0x20(%rbp),%rax
    4a22:	48 89 c7             	mov    %rax,%rdi
    4a25:	e8 f9 18 00 00       	callq  6323 <_ZSt4moveIRNSt6thread2idEEONSt16remove_referenceIT_E4typeEOS4_>
    4a2a:	48 8b 55 e8          	mov    -0x18(%rbp),%rdx
    4a2e:	48 8b 00             	mov    (%rax),%rax
    4a31:	48 89 02             	mov    %rax,(%rdx)
    4a34:	48 8d 45 f0          	lea    -0x10(%rbp),%rax
    4a38:	48 89 c7             	mov    %rax,%rdi
    4a3b:	e8 e3 18 00 00       	callq  6323 <_ZSt4moveIRNSt6thread2idEEONSt16remove_referenceIT_E4typeEOS4_>
    4a40:	48 8b 55 e0          	mov    -0x20(%rbp),%rdx
    4a44:	48 8b 00             	mov    (%rax),%rax
    4a47:	48 89 02             	mov    %rax,(%rdx)
    4a4a:	90                   	nop
    4a4b:	48 8b 45 f8          	mov    -0x8(%rbp),%rax
    4a4f:	64 48 33 04 25 28 00 	xor    %fs:0x28,%rax
    4a56:	00 00 
    4a58:	74 05                	je     4a5f <_ZSt4swapINSt6thread2idEENSt9enable_ifIXsrSt6__and_IJSt6__not_ISt15__is_tuple_likeIT_EESt21is_move_constructibleIS6_ESt18is_move_assignableIS6_EEE5valueEvE4typeERS6_SG_+0x73>
    4a5a:	e8 31 d1 ff ff       	callq  1b90 <__stack_chk_fail@plt>
    4a5f:	c9                   	leaveq 
    4a60:	c3                   	retq   
    4a61:	90                   	nop

0000000000004a62 <_ZNSt13__atomic_baseIbEaSEb>:
    4a62:	55                   	push   %rbp
    4a63:	48 89 e5             	mov    %rsp,%rbp
    4a66:	48 83 ec 30          	sub    $0x30,%rsp
    4a6a:	48 89 7d d8          	mov    %rdi,-0x28(%rbp)
    4a6e:	89 f0                	mov    %esi,%eax
    4a70:	88 45 d4             	mov    %al,-0x2c(%rbp)
    4a73:	0f b6 45 d4          	movzbl -0x2c(%rbp),%eax
    4a77:	48 8b 55 d8          	mov    -0x28(%rbp),%rdx
    4a7b:	48 89 55 f8          	mov    %rdx,-0x8(%rbp)
    4a7f:	88 45 ef             	mov    %al,-0x11(%rbp)
    4a82:	80 65 ef 01          	andb   $0x1,-0x11(%rbp)
    4a86:	c7 45 f0 05 00 00 00 	movl   $0x5,-0x10(%rbp)
    4a8d:	8b 45 f0             	mov    -0x10(%rbp),%eax
    4a90:	be ff ff 00 00       	mov    $0xffff,%esi
    4a95:	89 c7                	mov    %eax,%edi
    4a97:	e8 b1 f4 ff ff       	callq  3f4d <_ZStanSt12memory_orderSt23__memory_order_modifier>
    4a9c:	89 45 f4             	mov    %eax,-0xc(%rbp)
    4a9f:	0f b6 55 ef          	movzbl -0x11(%rbp),%edx
    4aa3:	48 8b 45 f8          	mov    -0x8(%rbp),%rax
    4aa7:	88 10                	mov    %dl,(%rax)
    4aa9:	0f ae f0             	mfence 
    4aac:	90                   	nop
    4aad:	0f b6 45 d4          	movzbl -0x2c(%rbp),%eax
    4ab1:	c9                   	leaveq 
    4ab2:	c3                   	retq   
    4ab3:	90                   	nop

0000000000004ab4 <_ZNSt6vectorIiSaIiEE5beginEv>:
    4ab4:	55                   	push   %rbp
    4ab5:	48 89 e5             	mov    %rsp,%rbp
    4ab8:	48 83 ec 20          	sub    $0x20,%rsp
    4abc:	48 89 7d e8          	mov    %rdi,-0x18(%rbp)
    4ac0:	64 48 8b 04 25 28 00 	mov    %fs:0x28,%rax
    4ac7:	00 00 
    4ac9:	48 89 45 f8          	mov    %rax,-0x8(%rbp)
    4acd:	31 c0                	xor    %eax,%eax
    4acf:	48 8b 55 e8          	mov    -0x18(%rbp),%rdx
    4ad3:	48 8d 45 f0          	lea    -0x10(%rbp),%rax
    4ad7:	48 89 d6             	mov    %rdx,%rsi
    4ada:	48 89 c7             	mov    %rax,%rdi
    4add:	e8 b8 18 00 00       	callq  639a <_ZN9__gnu_cxx17__normal_iteratorIPiSt6vectorIiSaIiEEEC1ERKS1_>
    4ae2:	48 8b 45 f0          	mov    -0x10(%rbp),%rax
    4ae6:	48 8b 4d f8          	mov    -0x8(%rbp),%rcx
    4aea:	64 48 33 0c 25 28 00 	xor    %fs:0x28,%rcx
    4af1:	00 00 
    4af3:	74 05                	je     4afa <_ZNSt6vectorIiSaIiEE5beginEv+0x46>
    4af5:	e8 96 d0 ff ff       	callq  1b90 <__stack_chk_fail@plt>
    4afa:	c9                   	leaveq 
    4afb:	c3                   	retq   

0000000000004afc <_ZNSt6vectorIiSaIiEE3endEv>:
    4afc:	55                   	push   %rbp
    4afd:	48 89 e5             	mov    %rsp,%rbp
    4b00:	48 83 ec 20          	sub    $0x20,%rsp
    4b04:	48 89 7d e8          	mov    %rdi,-0x18(%rbp)
    4b08:	64 48 8b 04 25 28 00 	mov    %fs:0x28,%rax
    4b0f:	00 00 
    4b11:	48 89 45 f8          	mov    %rax,-0x8(%rbp)
    4b15:	31 c0                	xor    %eax,%eax
    4b17:	48 8b 45 e8          	mov    -0x18(%rbp),%rax
    4b1b:	48 8d 50 08          	lea    0x8(%rax),%rdx
    4b1f:	48 8d 45 f0          	lea    -0x10(%rbp),%rax
    4b23:	48 89 d6             	mov    %rdx,%rsi
    4b26:	48 89 c7             	mov    %rax,%rdi
    4b29:	e8 6c 18 00 00       	callq  639a <_ZN9__gnu_cxx17__normal_iteratorIPiSt6vectorIiSaIiEEEC1ERKS1_>
    4b2e:	48 8b 45 f0          	mov    -0x10(%rbp),%rax
    4b32:	48 8b 4d f8          	mov    -0x8(%rbp),%rcx
    4b36:	64 48 33 0c 25 28 00 	xor    %fs:0x28,%rcx
    4b3d:	00 00 
    4b3f:	74 05                	je     4b46 <_ZNSt6vectorIiSaIiEE3endEv+0x4a>
    4b41:	e8 4a d0 ff ff       	callq  1b90 <__stack_chk_fail@plt>
    4b46:	c9                   	leaveq 
    4b47:	c3                   	retq   

0000000000004b48 <_ZN9__gnu_cxxneIPiSt6vectorIiSaIiEEEEbRKNS_17__normal_iteratorIT_T0_EESA_>:
    4b48:	55                   	push   %rbp
    4b49:	48 89 e5             	mov    %rsp,%rbp
    4b4c:	53                   	push   %rbx
    4b4d:	48 83 ec 18          	sub    $0x18,%rsp
    4b51:	48 89 7d e8          	mov    %rdi,-0x18(%rbp)
    4b55:	48 89 75 e0          	mov    %rsi,-0x20(%rbp)
    4b59:	48 8b 45 e8          	mov    -0x18(%rbp),%rax
    4b5d:	48 89 c7             	mov    %rax,%rdi
    4b60:	e8 53 18 00 00       	callq  63b8 <_ZNK9__gnu_cxx17__normal_iteratorIPiSt6vectorIiSaIiEEE4baseEv>
    4b65:	48 8b 18             	mov    (%rax),%rbx
    4b68:	48 8b 45 e0          	mov    -0x20(%rbp),%rax
    4b6c:	48 89 c7             	mov    %rax,%rdi
    4b6f:	e8 44 18 00 00       	callq  63b8 <_ZNK9__gnu_cxx17__normal_iteratorIPiSt6vectorIiSaIiEEE4baseEv>
    4b74:	48 8b 00             	mov    (%rax),%rax
    4b77:	48 39 c3             	cmp    %rax,%rbx
    4b7a:	0f 95 c0             	setne  %al
    4b7d:	48 83 c4 18          	add    $0x18,%rsp
    4b81:	5b                   	pop    %rbx
    4b82:	5d                   	pop    %rbp
    4b83:	c3                   	retq   

0000000000004b84 <_ZN9__gnu_cxx17__normal_iteratorIPiSt6vectorIiSaIiEEEppEv>:
    4b84:	55                   	push   %rbp
    4b85:	48 89 e5             	mov    %rsp,%rbp
    4b88:	48 89 7d f8          	mov    %rdi,-0x8(%rbp)
    4b8c:	48 8b 45 f8          	mov    -0x8(%rbp),%rax
    4b90:	48 8b 00             	mov    (%rax),%rax
    4b93:	48 8d 50 04          	lea    0x4(%rax),%rdx
    4b97:	48 8b 45 f8          	mov    -0x8(%rbp),%rax
    4b9b:	48 89 10             	mov    %rdx,(%rax)
    4b9e:	48 8b 45 f8          	mov    -0x8(%rbp),%rax
    4ba2:	5d                   	pop    %rbp
    4ba3:	c3                   	retq   

0000000000004ba4 <_ZNK9__gnu_cxx17__normal_iteratorIPiSt6vectorIiSaIiEEEdeEv>:
    4ba4:	55                   	push   %rbp
    4ba5:	48 89 e5             	mov    %rsp,%rbp
    4ba8:	48 89 7d f8          	mov    %rdi,-0x8(%rbp)
    4bac:	48 8b 45 f8          	mov    -0x8(%rbp),%rax
    4bb0:	48 8b 00             	mov    (%rax),%rax
    4bb3:	5d                   	pop    %rbp
    4bb4:	c3                   	retq   
    4bb5:	90                   	nop

0000000000004bb6 <_ZN9HashTableIiiE6removeEi>:
    4bb6:	55                   	push   %rbp
    4bb7:	48 89 e5             	mov    %rsp,%rbp
    4bba:	53                   	push   %rbx
    4bbb:	48 83 ec 78          	sub    $0x78,%rsp
    4bbf:	48 89 7d 88          	mov    %rdi,-0x78(%rbp)
    4bc3:	89 75 84             	mov    %esi,-0x7c(%rbp)
    4bc6:	64 48 8b 04 25 28 00 	mov    %fs:0x28,%rax
    4bcd:	00 00 
    4bcf:	48 89 45 e8          	mov    %rax,-0x18(%rbp)
    4bd3:	31 c0                	xor    %eax,%eax
    4bd5:	48 8b 45 88          	mov    -0x78(%rbp),%rax
    4bd9:	48 8d 50 30          	lea    0x30(%rax),%rdx
    4bdd:	48 8d 45 d0          	lea    -0x30(%rbp),%rax
    4be1:	48 89 d6             	mov    %rdx,%rsi
    4be4:	48 89 c7             	mov    %rax,%rdi
    4be7:	e8 da 17 00 00       	callq  63c6 <_ZNSt11shared_lockISt18shared_timed_mutexEC1ERS0_>
    4bec:	48 8b 45 88          	mov    -0x78(%rbp),%rax
    4bf0:	48 8b 18             	mov    (%rax),%rbx
    4bf3:	8b 55 84             	mov    -0x7c(%rbp),%edx
    4bf6:	48 8b 45 88          	mov    -0x78(%rbp),%rax
    4bfa:	89 d6                	mov    %edx,%esi
    4bfc:	48 89 c7             	mov    %rax,%rdi
    4bff:	e8 26 18 00 00       	callq  642a <_ZN9HashTableIiiE9hash_funcEi>
    4c04:	48 c1 e0 03          	shl    $0x3,%rax
    4c08:	48 01 d8             	add    %rbx,%rax
    4c0b:	48 89 45 c0          	mov    %rax,-0x40(%rbp)
    4c0f:	48 c7 45 b0 00 00 00 	movq   $0x0,-0x50(%rbp)
    4c16:	00 
    4c17:	c6 45 98 00          	movb   $0x0,-0x68(%rbp)
    4c1b:	bf 2b 00 00 00       	mov    $0x2b,%edi
    4c20:	b8 00 00 00 00       	mov    $0x0,%eax
    4c25:	e8 76 d0 ff ff       	callq  1ca0 <_ITM_beginTransaction@plt>
    4c2a:	83 e0 02             	and    $0x2,%eax
    4c2d:	85 c0                	test   %eax,%eax
    4c2f:	75 17                	jne    4c48 <_ZN9HashTableIiiE6removeEi+0x92>
    4c31:	48 8b 45 c0          	mov    -0x40(%rbp),%rax
    4c35:	48 89 c7             	mov    %rax,%rdi
    4c38:	e8 15 f2 ff ff       	callq  3e52 <_ZGTtN6BucketIiiE7getNodeEv>
    4c3d:	48 89 45 a0          	mov    %rax,-0x60(%rbp)
    4c41:	e8 8a ce ff ff       	callq  1ad0 <_ITM_commitTransaction@plt>
    4c46:	eb 15                	jmp    4c5d <_ZN9HashTableIiiE6removeEi+0xa7>
    4c48:	48 8b 45 c0          	mov    -0x40(%rbp),%rax
    4c4c:	48 89 c7             	mov    %rax,%rdi
    4c4f:	e8 8e f6 ff ff       	callq  42e2 <_ZN6BucketIiiE7getNodeEv>
    4c54:	48 89 45 a0          	mov    %rax,-0x60(%rbp)
    4c58:	e8 73 ce ff ff       	callq  1ad0 <_ITM_commitTransaction@plt>
    4c5d:	48 83 7d a0 00       	cmpq   $0x0,-0x60(%rbp)
    4c62:	0f 84 8e 01 00 00    	je     4df6 <_ZN9HashTableIiiE6removeEi+0x240>
    4c68:	bf 2b 00 00 00       	mov    $0x2b,%edi
    4c6d:	b8 00 00 00 00       	mov    $0x0,%eax
    4c72:	e8 29 d0 ff ff       	callq  1ca0 <_ITM_beginTransaction@plt>
    4c77:	83 e0 02             	and    $0x2,%eax
    4c7a:	85 c0                	test   %eax,%eax
    4c7c:	0f 85 c4 00 00 00    	jne    4d46 <_ZN9HashTableIiiE6removeEi+0x190>
    4c82:	48 8b 45 a0          	mov    -0x60(%rbp),%rax
    4c86:	48 89 c7             	mov    %rax,%rdi
    4c89:	e8 0a f0 ff ff       	callq  3c98 <_ZGTtN8HashNodeIiiE6getKeyEv>
    4c8e:	48 89 c7             	mov    %rax,%rdi
    4c91:	e8 3a cf ff ff       	callq  1bd0 <_ITM_RU4@plt>
    4c96:	3b 45 84             	cmp    -0x7c(%rbp),%eax
    4c99:	0f 94 c0             	sete   %al
    4c9c:	84 c0                	test   %al,%al
    4c9e:	74 60                	je     4d00 <_ZN9HashTableIiiE6removeEi+0x14a>
    4ca0:	48 83 7d b0 00       	cmpq   $0x0,-0x50(%rbp)
    4ca5:	74 20                	je     4cc7 <_ZN9HashTableIiiE6removeEi+0x111>
    4ca7:	48 8b 45 a0          	mov    -0x60(%rbp),%rax
    4cab:	48 89 c7             	mov    %rax,%rdi
    4cae:	e8 cb ef ff ff       	callq  3c7e <_ZGTtN8HashNodeIiiE7getNextEv>
    4cb3:	48 89 c2             	mov    %rax,%rdx
    4cb6:	48 8b 45 b0          	mov    -0x50(%rbp),%rax
    4cba:	48 89 d6             	mov    %rdx,%rsi
    4cbd:	48 89 c7             	mov    %rax,%rdi
    4cc0:	e8 57 f0 ff ff       	callq  3d1c <_ZGTtN8HashNodeIiiE10insertNextEPS0_>
    4cc5:	eb 1e                	jmp    4ce5 <_ZN9HashTableIiiE6removeEi+0x12f>
    4cc7:	48 8b 45 a0          	mov    -0x60(%rbp),%rax
    4ccb:	48 89 c7             	mov    %rax,%rdi
    4cce:	e8 ab ef ff ff       	callq  3c7e <_ZGTtN8HashNodeIiiE7getNextEv>
    4cd3:	48 89 c2             	mov    %rax,%rdx
    4cd6:	48 8b 45 c0          	mov    -0x40(%rbp),%rax
    4cda:	48 89 d6             	mov    %rdx,%rsi
    4cdd:	48 89 c7             	mov    %rax,%rdi
    4ce0:	e8 87 f1 ff ff       	callq  3e6c <_ZGTtN6BucketIiiE7setNodeEP8HashNodeIiiE>
    4ce5:	c6 45 99 01          	movb   $0x1,-0x67(%rbp)
    4ce9:	bb 00 00 00 00       	mov    $0x0,%ebx
    4cee:	48 8b 45 b0          	mov    -0x50(%rbp),%rax
    4cf2:	48 89 45 b8          	mov    %rax,-0x48(%rbp)
    4cf6:	48 8b 45 a0          	mov    -0x60(%rbp),%rax
    4cfa:	48 89 45 a8          	mov    %rax,-0x58(%rbp)
    4cfe:	eb 24                	jmp    4d24 <_ZN9HashTableIiiE6removeEi+0x16e>
    4d00:	48 8b 45 a0          	mov    -0x60(%rbp),%rax
    4d04:	48 89 45 b8          	mov    %rax,-0x48(%rbp)
    4d08:	48 8b 45 a0          	mov    -0x60(%rbp),%rax
    4d0c:	48 89 c7             	mov    %rax,%rdi
    4d0f:	e8 6a ef ff ff       	callq  3c7e <_ZGTtN8HashNodeIiiE7getNextEv>
    4d14:	48 89 45 a8          	mov    %rax,-0x58(%rbp)
    4d18:	bb 01 00 00 00       	mov    $0x1,%ebx
    4d1d:	0f b6 45 98          	movzbl -0x68(%rbp),%eax
    4d21:	88 45 99             	mov    %al,-0x67(%rbp)
    4d24:	e8 a7 cd ff ff       	callq  1ad0 <_ITM_commitTransaction@plt>
    4d29:	83 fb 01             	cmp    $0x1,%ebx
    4d2c:	0f 84 a8 00 00 00    	je     4dda <_ZN9HashTableIiiE6removeEi+0x224>
    4d32:	0f b6 45 99          	movzbl -0x67(%rbp),%eax
    4d36:	88 45 98             	mov    %al,-0x68(%rbp)
    4d39:	48 8b 45 a8          	mov    -0x58(%rbp),%rax
    4d3d:	48 89 45 a0          	mov    %rax,-0x60(%rbp)
    4d41:	e9 b0 00 00 00       	jmpq   4df6 <_ZN9HashTableIiiE6removeEi+0x240>
    4d46:	48 8b 45 a0          	mov    -0x60(%rbp),%rax
    4d4a:	48 89 c7             	mov    %rax,%rdi
    4d4d:	e8 30 17 00 00       	callq  6482 <_ZN8HashNodeIiiE6getKeyEv>
    4d52:	8b 00                	mov    (%rax),%eax
    4d54:	3b 45 84             	cmp    -0x7c(%rbp),%eax
    4d57:	0f 94 c0             	sete   %al
    4d5a:	84 c0                	test   %al,%al
    4d5c:	74 50                	je     4dae <_ZN9HashTableIiiE6removeEi+0x1f8>
    4d5e:	48 83 7d b0 00       	cmpq   $0x0,-0x50(%rbp)
    4d63:	74 20                	je     4d85 <_ZN9HashTableIiiE6removeEi+0x1cf>
    4d65:	48 8b 45 a0          	mov    -0x60(%rbp),%rax
    4d69:	48 89 c7             	mov    %rax,%rdi
    4d6c:	e8 23 17 00 00       	callq  6494 <_ZN8HashNodeIiiE7getNextEv>
    4d71:	48 89 c2             	mov    %rax,%rdx
    4d74:	48 8b 45 b0          	mov    -0x50(%rbp),%rax
    4d78:	48 89 d6             	mov    %rdx,%rsi
    4d7b:	48 89 c7             	mov    %rax,%rdi
    4d7e:	e8 af 15 00 00       	callq  6332 <_ZN8HashNodeIiiE10insertNextEPS0_>
    4d83:	eb 1e                	jmp    4da3 <_ZN9HashTableIiiE6removeEi+0x1ed>
    4d85:	48 8b 45 a0          	mov    -0x60(%rbp),%rax
    4d89:	48 89 c7             	mov    %rax,%rdi
    4d8c:	e8 03 17 00 00       	callq  6494 <_ZN8HashNodeIiiE7getNextEv>
    4d91:	48 89 c2             	mov    %rax,%rdx
    4d94:	48 8b 45 c0          	mov    -0x40(%rbp),%rax
    4d98:	48 89 d6             	mov    %rdx,%rsi
    4d9b:	48 89 c7             	mov    %rax,%rdi
    4d9e:	e8 25 f5 ff ff       	callq  42c8 <_ZN6BucketIiiE7setNodeEP8HashNodeIiiE>
    4da3:	c6 45 98 01          	movb   $0x1,-0x68(%rbp)
    4da7:	bb 00 00 00 00       	mov    $0x0,%ebx
    4dac:	eb 1d                	jmp    4dcb <_ZN9HashTableIiiE6removeEi+0x215>
    4dae:	48 8b 45 a0          	mov    -0x60(%rbp),%rax
    4db2:	48 89 45 b0          	mov    %rax,-0x50(%rbp)
    4db6:	48 8b 45 a0          	mov    -0x60(%rbp),%rax
    4dba:	48 89 c7             	mov    %rax,%rdi
    4dbd:	e8 d2 16 00 00       	callq  6494 <_ZN8HashNodeIiiE7getNextEv>
    4dc2:	48 89 45 a0          	mov    %rax,-0x60(%rbp)
    4dc6:	bb 01 00 00 00       	mov    $0x1,%ebx
    4dcb:	e8 00 cd ff ff       	callq  1ad0 <_ITM_commitTransaction@plt>
    4dd0:	83 fb 01             	cmp    $0x1,%ebx
    4dd3:	75 21                	jne    4df6 <_ZN9HashTableIiiE6removeEi+0x240>
    4dd5:	e9 83 fe ff ff       	jmpq   4c5d <_ZN9HashTableIiiE6removeEi+0xa7>
    4dda:	0f b6 45 99          	movzbl -0x67(%rbp),%eax
    4dde:	88 45 98             	mov    %al,-0x68(%rbp)
    4de1:	48 8b 45 b8          	mov    -0x48(%rbp),%rax
    4de5:	48 89 45 b0          	mov    %rax,-0x50(%rbp)
    4de9:	48 8b 45 a8          	mov    -0x58(%rbp),%rax
    4ded:	48 89 45 a0          	mov    %rax,-0x60(%rbp)
    4df1:	e9 67 fe ff ff       	jmpq   4c5d <_ZN9HashTableIiiE6removeEi+0xa7>
    4df6:	80 7d 98 00          	cmpb   $0x0,-0x68(%rbp)
    4dfa:	74 47                	je     4e43 <_ZN9HashTableIiiE6removeEi+0x28d>
    4dfc:	48 8b 45 88          	mov    -0x78(%rbp),%rax
    4e00:	48 83 c0 20          	add    $0x20,%rax
    4e04:	48 89 45 c8          	mov    %rax,-0x38(%rbp)
    4e08:	66 c7 45 9a 01 00    	movw   $0x1,-0x66(%rbp)
    4e0e:	c7 45 9c 00 00 00 00 	movl   $0x0,-0x64(%rbp)
    4e15:	0f b7 55 9a          	movzwl -0x66(%rbp),%edx
    4e19:	48 8b 45 c8          	mov    -0x38(%rbp),%rax
    4e1d:	f7 da                	neg    %edx
    4e1f:	66 f0 0f c1 10       	lock xadd %dx,(%rax)
    4e24:	90                   	nop
    4e25:	48 8b 45 88          	mov    -0x78(%rbp),%rax
    4e29:	48 8b 40 08          	mov    0x8(%rax),%rax
    4e2d:	48 8b 55 a0          	mov    -0x60(%rbp),%rdx
    4e31:	48 89 d6             	mov    %rdx,%rsi
    4e34:	48 89 c7             	mov    %rax,%rdi
    4e37:	e8 6a 16 00 00       	callq  64a6 <_ZN5ArenaIiiE4freeEP8HashNodeIiiE>
    4e3c:	bb 01 00 00 00       	mov    $0x1,%ebx
    4e41:	eb 05                	jmp    4e48 <_ZN9HashTableIiiE6removeEi+0x292>
    4e43:	bb 00 00 00 00       	mov    $0x0,%ebx
    4e48:	48 8d 45 d0          	lea    -0x30(%rbp),%rax
    4e4c:	48 89 c7             	mov    %rax,%rdi
    4e4f:	e8 ac 15 00 00       	callq  6400 <_ZNSt11shared_lockISt18shared_timed_mutexED1Ev>
    4e54:	89 d8                	mov    %ebx,%eax
    4e56:	48 8b 4d e8          	mov    -0x18(%rbp),%rcx
    4e5a:	64 48 33 0c 25 28 00 	xor    %fs:0x28,%rcx
    4e61:	00 00 
    4e63:	74 21                	je     4e86 <_ZN9HashTableIiiE6removeEi+0x2d0>
    4e65:	eb 1a                	jmp    4e81 <_ZN9HashTableIiiE6removeEi+0x2cb>
    4e67:	48 89 c3             	mov    %rax,%rbx
    4e6a:	48 8d 45 d0          	lea    -0x30(%rbp),%rax
    4e6e:	48 89 c7             	mov    %rax,%rdi
    4e71:	e8 8a 15 00 00       	callq  6400 <_ZNSt11shared_lockISt18shared_timed_mutexED1Ev>
    4e76:	48 89 d8             	mov    %rbx,%rax
    4e79:	48 89 c7             	mov    %rax,%rdi
    4e7c:	e8 df cd ff ff       	callq  1c60 <_Unwind_Resume@plt>
    4e81:	e8 0a cd ff ff       	callq  1b90 <__stack_chk_fail@plt>
    4e86:	48 83 c4 78          	add    $0x78,%rsp
    4e8a:	5b                   	pop    %rbx
    4e8b:	5d                   	pop    %rbp
    4e8c:	c3                   	retq   
    4e8d:	90                   	nop

0000000000004e8e <_ZNSt6vectorISt4pairIiiESaIS1_EE5beginEv>:
    4e8e:	55                   	push   %rbp
    4e8f:	48 89 e5             	mov    %rsp,%rbp
    4e92:	48 83 ec 20          	sub    $0x20,%rsp
    4e96:	48 89 7d e8          	mov    %rdi,-0x18(%rbp)
    4e9a:	64 48 8b 04 25 28 00 	mov    %fs:0x28,%rax
    4ea1:	00 00 
    4ea3:	48 89 45 f8          	mov    %rax,-0x8(%rbp)
    4ea7:	31 c0                	xor    %eax,%eax
    4ea9:	48 8b 55 e8          	mov    -0x18(%rbp),%rdx
    4ead:	48 8d 45 f0          	lea    -0x10(%rbp),%rax
    4eb1:	48 89 d6             	mov    %rdx,%rsi
    4eb4:	48 89 c7             	mov    %rax,%rdi
    4eb7:	e8 50 16 00 00       	callq  650c <_ZN9__gnu_cxx17__normal_iteratorIPSt4pairIiiESt6vectorIS2_SaIS2_EEEC1ERKS3_>
    4ebc:	48 8b 45 f0          	mov    -0x10(%rbp),%rax
    4ec0:	48 8b 4d f8          	mov    -0x8(%rbp),%rcx
    4ec4:	64 48 33 0c 25 28 00 	xor    %fs:0x28,%rcx
    4ecb:	00 00 
    4ecd:	74 05                	je     4ed4 <_ZNSt6vectorISt4pairIiiESaIS1_EE5beginEv+0x46>
    4ecf:	e8 bc cc ff ff       	callq  1b90 <__stack_chk_fail@plt>
    4ed4:	c9                   	leaveq 
    4ed5:	c3                   	retq   

0000000000004ed6 <_ZNSt6vectorISt4pairIiiESaIS1_EE3endEv>:
    4ed6:	55                   	push   %rbp
    4ed7:	48 89 e5             	mov    %rsp,%rbp
    4eda:	48 83 ec 20          	sub    $0x20,%rsp
    4ede:	48 89 7d e8          	mov    %rdi,-0x18(%rbp)
    4ee2:	64 48 8b 04 25 28 00 	mov    %fs:0x28,%rax
    4ee9:	00 00 
    4eeb:	48 89 45 f8          	mov    %rax,-0x8(%rbp)
    4eef:	31 c0                	xor    %eax,%eax
    4ef1:	48 8b 45 e8          	mov    -0x18(%rbp),%rax
    4ef5:	48 8d 50 08          	lea    0x8(%rax),%rdx
    4ef9:	48 8d 45 f0          	lea    -0x10(%rbp),%rax
    4efd:	48 89 d6             	mov    %rdx,%rsi
    4f00:	48 89 c7             	mov    %rax,%rdi
    4f03:	e8 04 16 00 00       	callq  650c <_ZN9__gnu_cxx17__normal_iteratorIPSt4pairIiiESt6vectorIS2_SaIS2_EEEC1ERKS3_>
    4f08:	48 8b 45 f0          	mov    -0x10(%rbp),%rax
    4f0c:	48 8b 4d f8          	mov    -0x8(%rbp),%rcx
    4f10:	64 48 33 0c 25 28 00 	xor    %fs:0x28,%rcx
    4f17:	00 00 
    4f19:	74 05                	je     4f20 <_ZNSt6vectorISt4pairIiiESaIS1_EE3endEv+0x4a>
    4f1b:	e8 70 cc ff ff       	callq  1b90 <__stack_chk_fail@plt>
    4f20:	c9                   	leaveq 
    4f21:	c3                   	retq   

0000000000004f22 <_ZN9__gnu_cxxneIPSt4pairIiiESt6vectorIS2_SaIS2_EEEEbRKNS_17__normal_iteratorIT_T0_EESC_>:
    4f22:	55                   	push   %rbp
    4f23:	48 89 e5             	mov    %rsp,%rbp
    4f26:	53                   	push   %rbx
    4f27:	48 83 ec 18          	sub    $0x18,%rsp
    4f2b:	48 89 7d e8          	mov    %rdi,-0x18(%rbp)
    4f2f:	48 89 75 e0          	mov    %rsi,-0x20(%rbp)
    4f33:	48 8b 45 e8          	mov    -0x18(%rbp),%rax
    4f37:	48 89 c7             	mov    %rax,%rdi
    4f3a:	e8 eb 15 00 00       	callq  652a <_ZNK9__gnu_cxx17__normal_iteratorIPSt4pairIiiESt6vectorIS2_SaIS2_EEE4baseEv>
    4f3f:	48 8b 18             	mov    (%rax),%rbx
    4f42:	48 8b 45 e0          	mov    -0x20(%rbp),%rax
    4f46:	48 89 c7             	mov    %rax,%rdi
    4f49:	e8 dc 15 00 00       	callq  652a <_ZNK9__gnu_cxx17__normal_iteratorIPSt4pairIiiESt6vectorIS2_SaIS2_EEE4baseEv>
    4f4e:	48 8b 00             	mov    (%rax),%rax
    4f51:	48 39 c3             	cmp    %rax,%rbx
    4f54:	0f 95 c0             	setne  %al
    4f57:	48 83 c4 18          	add    $0x18,%rsp
    4f5b:	5b                   	pop    %rbx
    4f5c:	5d                   	pop    %rbp
    4f5d:	c3                   	retq   

0000000000004f5e <_ZN9__gnu_cxx17__normal_iteratorIPSt4pairIiiESt6vectorIS2_SaIS2_EEEppEv>:
    4f5e:	55                   	push   %rbp
    4f5f:	48 89 e5             	mov    %rsp,%rbp
    4f62:	48 89 7d f8          	mov    %rdi,-0x8(%rbp)
    4f66:	48 8b 45 f8          	mov    -0x8(%rbp),%rax
    4f6a:	48 8b 00             	mov    (%rax),%rax
    4f6d:	48 8d 50 08          	lea    0x8(%rax),%rdx
    4f71:	48 8b 45 f8          	mov    -0x8(%rbp),%rax
    4f75:	48 89 10             	mov    %rdx,(%rax)
    4f78:	48 8b 45 f8          	mov    -0x8(%rbp),%rax
    4f7c:	5d                   	pop    %rbp
    4f7d:	c3                   	retq   

0000000000004f7e <_ZNK9__gnu_cxx17__normal_iteratorIPSt4pairIiiESt6vectorIS2_SaIS2_EEEdeEv>:
    4f7e:	55                   	push   %rbp
    4f7f:	48 89 e5             	mov    %rsp,%rbp
    4f82:	48 89 7d f8          	mov    %rdi,-0x8(%rbp)
    4f86:	48 8b 45 f8          	mov    -0x8(%rbp),%rax
    4f8a:	48 8b 00             	mov    (%rax),%rax
    4f8d:	5d                   	pop    %rbp
    4f8e:	c3                   	retq   
    4f8f:	90                   	nop

0000000000004f90 <_ZN9HashTableIiiE5writeEii>:
    4f90:	55                   	push   %rbp
    4f91:	48 89 e5             	mov    %rsp,%rbp
    4f94:	53                   	push   %rbx
    4f95:	48 81 ec 98 00 00 00 	sub    $0x98,%rsp
    4f9c:	48 89 bd 68 ff ff ff 	mov    %rdi,-0x98(%rbp)
    4fa3:	89 b5 64 ff ff ff    	mov    %esi,-0x9c(%rbp)
    4fa9:	89 95 60 ff ff ff    	mov    %edx,-0xa0(%rbp)
    4faf:	64 48 8b 04 25 28 00 	mov    %fs:0x28,%rax
    4fb6:	00 00 
    4fb8:	48 89 45 e8          	mov    %rax,-0x18(%rbp)
    4fbc:	31 c0                	xor    %eax,%eax
    4fbe:	48 8b 85 68 ff ff ff 	mov    -0x98(%rbp),%rax
    4fc5:	48 8d 50 30          	lea    0x30(%rax),%rdx
    4fc9:	48 8d 45 d0          	lea    -0x30(%rbp),%rax
    4fcd:	48 89 d6             	mov    %rdx,%rsi
    4fd0:	48 89 c7             	mov    %rax,%rdi
    4fd3:	e8 ee 13 00 00       	callq  63c6 <_ZNSt11shared_lockISt18shared_timed_mutexEC1ERS0_>
    4fd8:	48 8b 85 68 ff ff ff 	mov    -0x98(%rbp),%rax
    4fdf:	48 8b 18             	mov    (%rax),%rbx
    4fe2:	8b 95 64 ff ff ff    	mov    -0x9c(%rbp),%edx
    4fe8:	48 8b 85 68 ff ff ff 	mov    -0x98(%rbp),%rax
    4fef:	89 d6                	mov    %edx,%esi
    4ff1:	48 89 c7             	mov    %rax,%rdi
    4ff4:	e8 31 14 00 00       	callq  642a <_ZN9HashTableIiiE9hash_funcEi>
    4ff9:	48 c1 e0 03          	shl    $0x3,%rax
    4ffd:	48 01 d8             	add    %rbx,%rax
    5000:	48 89 45 a8          	mov    %rax,-0x58(%rbp)
    5004:	c7 85 7c ff ff ff 31 	movl   $0xd431,-0x84(%rbp)
    500b:	d4 00 00 
    500e:	bf 2b 00 00 00       	mov    $0x2b,%edi
    5013:	b8 00 00 00 00       	mov    $0x0,%eax
    5018:	e8 83 cc ff ff       	callq  1ca0 <_ITM_beginTransaction@plt>
    501d:	83 e0 02             	and    $0x2,%eax
    5020:	85 c0                	test   %eax,%eax
    5022:	75 17                	jne    503b <_ZN9HashTableIiiE5writeEii+0xab>
    5024:	48 8b 45 a8          	mov    -0x58(%rbp),%rax
    5028:	48 89 c7             	mov    %rax,%rdi
    502b:	e8 22 ee ff ff       	callq  3e52 <_ZGTtN6BucketIiiE7getNodeEv>
    5030:	48 89 45 98          	mov    %rax,-0x68(%rbp)
    5034:	e8 97 ca ff ff       	callq  1ad0 <_ITM_commitTransaction@plt>
    5039:	eb 15                	jmp    5050 <_ZN9HashTableIiiE5writeEii+0xc0>
    503b:	48 8b 45 a8          	mov    -0x58(%rbp),%rax
    503f:	48 89 c7             	mov    %rax,%rdi
    5042:	e8 9b f2 ff ff       	callq  42e2 <_ZN6BucketIiiE7getNodeEv>
    5047:	48 89 45 98          	mov    %rax,-0x68(%rbp)
    504b:	e8 80 ca ff ff       	callq  1ad0 <_ITM_commitTransaction@plt>
    5050:	48 83 7d 98 00       	cmpq   $0x0,-0x68(%rbp)
    5055:	0f 84 ea 00 00 00    	je     5145 <_ZN9HashTableIiiE5writeEii+0x1b5>
    505b:	bf 2b 00 00 00       	mov    $0x2b,%edi
    5060:	b8 00 00 00 00       	mov    $0x0,%eax
    5065:	e8 36 cc ff ff       	callq  1ca0 <_ITM_beginTransaction@plt>
    506a:	83 e0 02             	and    $0x2,%eax
    506d:	85 c0                	test   %eax,%eax
    506f:	75 6d                	jne    50de <_ZN9HashTableIiiE5writeEii+0x14e>
    5071:	48 8b 45 98          	mov    -0x68(%rbp),%rax
    5075:	48 89 c7             	mov    %rax,%rdi
    5078:	e8 1b ec ff ff       	callq  3c98 <_ZGTtN8HashNodeIiiE6getKeyEv>
    507d:	48 89 c7             	mov    %rax,%rdi
    5080:	e8 4b cb ff ff       	callq  1bd0 <_ITM_RU4@plt>
    5085:	3b 85 64 ff ff ff    	cmp    -0x9c(%rbp),%eax
    508b:	0f 94 c0             	sete   %al
    508e:	84 c0                	test   %al,%al
    5090:	74 23                	je     50b5 <_ZN9HashTableIiiE5writeEii+0x125>
    5092:	8b 95 60 ff ff ff    	mov    -0xa0(%rbp),%edx
    5098:	48 8b 45 98          	mov    -0x68(%rbp),%rax
    509c:	89 d6                	mov    %edx,%esi
    509e:	48 89 c7             	mov    %rax,%rdi
    50a1:	e8 9e eb ff ff       	callq  3c44 <_ZGTtN8HashNodeIiiE8setValueEi>
    50a6:	bb 00 00 00 00       	mov    $0x0,%ebx
    50ab:	48 8b 45 98          	mov    -0x68(%rbp),%rax
    50af:	48 89 45 a0          	mov    %rax,-0x60(%rbp)
    50b3:	eb 15                	jmp    50ca <_ZN9HashTableIiiE5writeEii+0x13a>
    50b5:	48 8b 45 98          	mov    -0x68(%rbp),%rax
    50b9:	48 89 c7             	mov    %rax,%rdi
    50bc:	e8 bd eb ff ff       	callq  3c7e <_ZGTtN8HashNodeIiiE7getNextEv>
    50c1:	48 89 45 a0          	mov    %rax,-0x60(%rbp)
    50c5:	bb 01 00 00 00       	mov    $0x1,%ebx
    50ca:	e8 01 ca ff ff       	callq  1ad0 <_ITM_commitTransaction@plt>
    50cf:	83 fb 01             	cmp    $0x1,%ebx
    50d2:	74 64                	je     5138 <_ZN9HashTableIiiE5writeEii+0x1a8>
    50d4:	48 8b 45 a0          	mov    -0x60(%rbp),%rax
    50d8:	48 89 45 98          	mov    %rax,-0x68(%rbp)
    50dc:	eb 67                	jmp    5145 <_ZN9HashTableIiiE5writeEii+0x1b5>
    50de:	48 8b 45 98          	mov    -0x68(%rbp),%rax
    50e2:	48 89 c7             	mov    %rax,%rdi
    50e5:	e8 98 13 00 00       	callq  6482 <_ZN8HashNodeIiiE6getKeyEv>
    50ea:	8b 00                	mov    (%rax),%eax
    50ec:	3b 85 64 ff ff ff    	cmp    -0x9c(%rbp),%eax
    50f2:	0f 94 c0             	sete   %al
    50f5:	84 c0                	test   %al,%al
    50f7:	74 1b                	je     5114 <_ZN9HashTableIiiE5writeEii+0x184>
    50f9:	8b 95 60 ff ff ff    	mov    -0xa0(%rbp),%edx
    50ff:	48 8b 45 98          	mov    -0x68(%rbp),%rax
    5103:	89 d6                	mov    %edx,%esi
    5105:	48 89 c7             	mov    %rax,%rdi
    5108:	e8 2b 14 00 00       	callq  6538 <_ZN8HashNodeIiiE8setValueEi>
    510d:	bb 00 00 00 00       	mov    $0x0,%ebx
    5112:	eb 15                	jmp    5129 <_ZN9HashTableIiiE5writeEii+0x199>
    5114:	48 8b 45 98          	mov    -0x68(%rbp),%rax
    5118:	48 89 c7             	mov    %rax,%rdi
    511b:	e8 74 13 00 00       	callq  6494 <_ZN8HashNodeIiiE7getNextEv>
    5120:	48 89 45 98          	mov    %rax,-0x68(%rbp)
    5124:	bb 01 00 00 00       	mov    $0x1,%ebx
    5129:	e8 a2 c9 ff ff       	callq  1ad0 <_ITM_commitTransaction@plt>
    512e:	83 fb 01             	cmp    $0x1,%ebx
    5131:	75 12                	jne    5145 <_ZN9HashTableIiiE5writeEii+0x1b5>
    5133:	e9 18 ff ff ff       	jmpq   5050 <_ZN9HashTableIiiE5writeEii+0xc0>
    5138:	48 8b 45 a0          	mov    -0x60(%rbp),%rax
    513c:	48 89 45 98          	mov    %rax,-0x68(%rbp)
    5140:	e9 0b ff ff ff       	jmpq   5050 <_ZN9HashTableIiiE5writeEii+0xc0>
    5145:	48 83 7d 98 00       	cmpq   $0x0,-0x68(%rbp)
    514a:	0f 85 9d 00 00 00    	jne    51ed <_ZN9HashTableIiiE5writeEii+0x25d>
    5150:	48 8b 85 68 ff ff ff 	mov    -0x98(%rbp),%rax
    5157:	48 8b 40 08          	mov    0x8(%rax),%rax
    515b:	8b 95 60 ff ff ff    	mov    -0xa0(%rbp),%edx
    5161:	8b 8d 64 ff ff ff    	mov    -0x9c(%rbp),%ecx
    5167:	89 ce                	mov    %ecx,%esi
    5169:	48 89 c7             	mov    %rax,%rdi
    516c:	e8 ef 13 00 00       	callq  6560 <_ZN5ArenaIiiE5allocEii>
    5171:	48 89 45 98          	mov    %rax,-0x68(%rbp)
    5175:	bf 2b 00 00 00       	mov    $0x2b,%edi
    517a:	b8 00 00 00 00       	mov    $0x0,%eax
    517f:	e8 1c cb ff ff       	callq  1ca0 <_ITM_beginTransaction@plt>
    5184:	83 e0 02             	and    $0x2,%eax
    5187:	85 c0                	test   %eax,%eax
    5189:	75 1a                	jne    51a5 <_ZN9HashTableIiiE5writeEii+0x215>
    518b:	48 8b 55 98          	mov    -0x68(%rbp),%rdx
    518f:	48 8b 45 a8          	mov    -0x58(%rbp),%rax
    5193:	48 89 d6             	mov    %rdx,%rsi
    5196:	48 89 c7             	mov    %rax,%rdi
    5199:	e8 70 ec ff ff       	callq  3e0e <_ZGTtN6BucketIiiE6appendEP8HashNodeIiiE>
    519e:	e8 2d c9 ff ff       	callq  1ad0 <_ITM_commitTransaction@plt>
    51a3:	eb 18                	jmp    51bd <_ZN9HashTableIiiE5writeEii+0x22d>
    51a5:	48 8b 55 98          	mov    -0x68(%rbp),%rdx
    51a9:	48 8b 45 a8          	mov    -0x58(%rbp),%rax
    51ad:	48 89 d6             	mov    %rdx,%rsi
    51b0:	48 89 c7             	mov    %rax,%rdi
    51b3:	e8 54 f1 ff ff       	callq  430c <_ZN6BucketIiiE6appendEP8HashNodeIiiE>
    51b8:	e8 13 c9 ff ff       	callq  1ad0 <_ITM_commitTransaction@plt>
    51bd:	48 8b 85 68 ff ff ff 	mov    -0x98(%rbp),%rax
    51c4:	48 83 c0 20          	add    $0x20,%rax
    51c8:	48 89 45 b0          	mov    %rax,-0x50(%rbp)
    51cc:	66 c7 85 7a ff ff ff 	movw   $0x1,-0x86(%rbp)
    51d3:	01 00 
    51d5:	c7 45 80 00 00 00 00 	movl   $0x0,-0x80(%rbp)
    51dc:	0f b7 95 7a ff ff ff 	movzwl -0x86(%rbp),%edx
    51e3:	48 8b 45 b0          	mov    -0x50(%rbp),%rax
    51e7:	66 f0 0f c1 10       	lock xadd %dx,(%rax)
    51ec:	90                   	nop
    51ed:	48 8d 45 d0          	lea    -0x30(%rbp),%rax
    51f1:	48 89 c7             	mov    %rax,%rdi
    51f4:	e8 07 12 00 00       	callq  6400 <_ZNSt11shared_lockISt18shared_timed_mutexED1Ev>
    51f9:	48 8b 85 68 ff ff ff 	mov    -0x98(%rbp),%rax
    5200:	48 83 c0 20          	add    $0x20,%rax
    5204:	48 89 45 b8          	mov    %rax,-0x48(%rbp)
    5208:	c7 45 84 00 00 00 00 	movl   $0x0,-0x7c(%rbp)
    520f:	8b 45 84             	mov    -0x7c(%rbp),%eax
    5212:	be ff ff 00 00       	mov    $0xffff,%esi
    5217:	89 c7                	mov    %eax,%edi
    5219:	e8 2f ed ff ff       	callq  3f4d <_ZStanSt12memory_orderSt23__memory_order_modifier>
    521e:	89 45 88             	mov    %eax,-0x78(%rbp)
    5221:	48 8b 45 b8          	mov    -0x48(%rbp),%rax
    5225:	0f b7 00             	movzwl (%rax),%eax
    5228:	90                   	nop
    5229:	0f b7 d0             	movzwl %ax,%edx
    522c:	48 8b 85 68 ff ff ff 	mov    -0x98(%rbp),%rax
    5233:	48 8b 40 18          	mov    0x18(%rax),%rax
    5237:	48 d1 e8             	shr    %rax
    523a:	48 89 c1             	mov    %rax,%rcx
    523d:	48 8b 85 68 ff ff ff 	mov    -0x98(%rbp),%rax
    5244:	48 8b 40 18          	mov    0x18(%rax),%rax
    5248:	48 c1 e8 02          	shr    $0x2,%rax
    524c:	48 01 c1             	add    %rax,%rcx
    524f:	48 8b 85 68 ff ff ff 	mov    -0x98(%rbp),%rax
    5256:	48 8b 40 18          	mov    0x18(%rax),%rax
    525a:	48 c1 e8 03          	shr    $0x3,%rax
    525e:	48 29 c1             	sub    %rax,%rcx
    5261:	48 89 c8             	mov    %rcx,%rax
    5264:	48 39 c2             	cmp    %rax,%rdx
    5267:	0f 97 c0             	seta   %al
    526a:	84 c0                	test   %al,%al
    526c:	0f 84 b7 00 00 00    	je     5329 <_ZN9HashTableIiiE5writeEii+0x399>
    5272:	48 8b 85 68 ff ff ff 	mov    -0x98(%rbp),%rax
    5279:	48 83 c0 68          	add    $0x68,%rax
    527d:	48 89 45 c0          	mov    %rax,-0x40(%rbp)
    5281:	c7 45 8c 00 00 00 00 	movl   $0x0,-0x74(%rbp)
    5288:	48 8b 45 c0          	mov    -0x40(%rbp),%rax
    528c:	ba 01 00 00 00       	mov    $0x1,%edx
    5291:	86 10                	xchg   %dl,(%rax)
    5293:	90                   	nop
    5294:	89 d0                	mov    %edx,%eax
    5296:	83 f0 01             	xor    $0x1,%eax
    5299:	84 c0                	test   %al,%al
    529b:	0f 84 88 00 00 00    	je     5329 <_ZN9HashTableIiiE5writeEii+0x399>
    52a1:	48 8b 85 68 ff ff ff 	mov    -0x98(%rbp),%rax
    52a8:	48 83 c0 30          	add    $0x30,%rax
    52ac:	48 89 c7             	mov    %rax,%rdi
    52af:	e8 a4 ef ff ff       	callq  4258 <_ZNSt18shared_timed_mutex4lockEv>
    52b4:	48 8b 85 68 ff ff ff 	mov    -0x98(%rbp),%rax
    52bb:	48 89 c7             	mov    %rax,%rdi
    52be:	e8 ab 13 00 00       	callq  666e <_ZN9HashTableIiiE13privateRehashEv>
    52c3:	48 8b 85 68 ff ff ff 	mov    -0x98(%rbp),%rax
    52ca:	48 83 c0 30          	add    $0x30,%rax
    52ce:	48 89 c7             	mov    %rax,%rdi
    52d1:	e8 9e ef ff ff       	callq  4274 <_ZNSt18shared_timed_mutex6unlockEv>
    52d6:	48 8b 85 68 ff ff ff 	mov    -0x98(%rbp),%rax
    52dd:	48 83 c0 68          	add    $0x68,%rax
    52e1:	48 89 45 c8          	mov    %rax,-0x38(%rbp)
    52e5:	c7 45 90 05 00 00 00 	movl   $0x5,-0x70(%rbp)
    52ec:	8b 45 90             	mov    -0x70(%rbp),%eax
    52ef:	be ff ff 00 00       	mov    $0xffff,%esi
    52f4:	89 c7                	mov    %eax,%edi
    52f6:	e8 52 ec ff ff       	callq  3f4d <_ZStanSt12memory_orderSt23__memory_order_modifier>
    52fb:	89 45 94             	mov    %eax,-0x6c(%rbp)
    52fe:	48 8b 45 c8          	mov    -0x38(%rbp),%rax
    5302:	ba 00 00 00 00       	mov    $0x0,%edx
    5307:	88 10                	mov    %dl,(%rax)
    5309:	0f ae f0             	mfence 
    530c:	90                   	nop
    530d:	eb 1a                	jmp    5329 <_ZN9HashTableIiiE5writeEii+0x399>
    530f:	48 89 c3             	mov    %rax,%rbx
    5312:	48 8d 45 d0          	lea    -0x30(%rbp),%rax
    5316:	48 89 c7             	mov    %rax,%rdi
    5319:	e8 e2 10 00 00       	callq  6400 <_ZNSt11shared_lockISt18shared_timed_mutexED1Ev>
    531e:	48 89 d8             	mov    %rbx,%rax
    5321:	48 89 c7             	mov    %rax,%rdi
    5324:	e8 37 c9 ff ff       	callq  1c60 <_Unwind_Resume@plt>
    5329:	90                   	nop
    532a:	48 8b 45 e8          	mov    -0x18(%rbp),%rax
    532e:	64 48 33 04 25 28 00 	xor    %fs:0x28,%rax
    5335:	00 00 
    5337:	74 05                	je     533e <_ZN9HashTableIiiE5writeEii+0x3ae>
    5339:	e8 52 c8 ff ff       	callq  1b90 <__stack_chk_fail@plt>
    533e:	48 81 c4 98 00 00 00 	add    $0x98,%rsp
    5345:	5b                   	pop    %rbx
    5346:	5d                   	pop    %rbp
    5347:	c3                   	retq   

0000000000005348 <_ZN19InvalidReadExeptionC1Ev>:
    5348:	55                   	push   %rbp
    5349:	48 89 e5             	mov    %rsp,%rbp
    534c:	48 83 ec 10          	sub    $0x10,%rsp
    5350:	48 89 7d f8          	mov    %rdi,-0x8(%rbp)
    5354:	48 8b 45 f8          	mov    -0x8(%rbp),%rax
    5358:	48 89 c7             	mov    %rax,%rdi
    535b:	e8 40 eb ff ff       	callq  3ea0 <_ZNSt9exceptionC1Ev>
    5360:	48 8d 15 d9 97 20 00 	lea    0x2097d9(%rip),%rdx        # 20eb40 <_ZTV19InvalidReadExeption+0x10>
    5367:	48 8b 45 f8          	mov    -0x8(%rbp),%rax
    536b:	48 89 10             	mov    %rdx,(%rax)
    536e:	90                   	nop
    536f:	c9                   	leaveq 
    5370:	c3                   	retq   
    5371:	90                   	nop

0000000000005372 <_ZN19InvalidReadExeptionD1Ev>:
    5372:	55                   	push   %rbp
    5373:	48 89 e5             	mov    %rsp,%rbp
    5376:	48 83 ec 10          	sub    $0x10,%rsp
    537a:	48 89 7d f8          	mov    %rdi,-0x8(%rbp)
    537e:	48 8d 15 bb 97 20 00 	lea    0x2097bb(%rip),%rdx        # 20eb40 <_ZTV19InvalidReadExeption+0x10>
    5385:	48 8b 45 f8          	mov    -0x8(%rbp),%rax
    5389:	48 89 10             	mov    %rdx,(%rax)
    538c:	48 8b 45 f8          	mov    -0x8(%rbp),%rax
    5390:	48 89 c7             	mov    %rax,%rdi
    5393:	e8 f8 c8 ff ff       	callq  1c90 <_ZNSt9exceptionD2Ev@plt>
    5398:	90                   	nop
    5399:	c9                   	leaveq 
    539a:	c3                   	retq   
    539b:	90                   	nop

000000000000539c <_ZN19InvalidReadExeptionD0Ev>:
    539c:	55                   	push   %rbp
    539d:	48 89 e5             	mov    %rsp,%rbp
    53a0:	48 83 ec 10          	sub    $0x10,%rsp
    53a4:	48 89 7d f8          	mov    %rdi,-0x8(%rbp)
    53a8:	48 8b 45 f8          	mov    -0x8(%rbp),%rax
    53ac:	48 89 c7             	mov    %rax,%rdi
    53af:	e8 be ff ff ff       	callq  5372 <_ZN19InvalidReadExeptionD1Ev>
    53b4:	48 8b 45 f8          	mov    -0x8(%rbp),%rax
    53b8:	be 08 00 00 00       	mov    $0x8,%esi
    53bd:	48 89 c7             	mov    %rax,%rdi
    53c0:	e8 ab c7 ff ff       	callq  1b70 <_ZdlPvm@plt>
    53c5:	c9                   	leaveq 
    53c6:	c3                   	retq   
    53c7:	90                   	nop

00000000000053c8 <_ZN9HashTableIiiE4readEi>:
    53c8:	55                   	push   %rbp
    53c9:	48 89 e5             	mov    %rsp,%rbp
    53cc:	41 54                	push   %r12
    53ce:	53                   	push   %rbx
    53cf:	48 83 ec 50          	sub    $0x50,%rsp
    53d3:	48 89 7d a8          	mov    %rdi,-0x58(%rbp)
    53d7:	89 75 a4             	mov    %esi,-0x5c(%rbp)
    53da:	64 48 8b 04 25 28 00 	mov    %fs:0x28,%rax
    53e1:	00 00 
    53e3:	48 89 45 e8          	mov    %rax,-0x18(%rbp)
    53e7:	31 c0                	xor    %eax,%eax
    53e9:	48 8b 45 a8          	mov    -0x58(%rbp),%rax
    53ed:	48 8d 50 30          	lea    0x30(%rax),%rdx
    53f1:	48 8d 45 d0          	lea    -0x30(%rbp),%rax
    53f5:	48 89 d6             	mov    %rdx,%rsi
    53f8:	48 89 c7             	mov    %rax,%rdi
    53fb:	e8 c6 0f 00 00       	callq  63c6 <_ZNSt11shared_lockISt18shared_timed_mutexEC1ERS0_>
    5400:	48 8b 45 a8          	mov    -0x58(%rbp),%rax
    5404:	48 8b 18             	mov    (%rax),%rbx
    5407:	8b 55 a4             	mov    -0x5c(%rbp),%edx
    540a:	48 8b 45 a8          	mov    -0x58(%rbp),%rax
    540e:	89 d6                	mov    %edx,%esi
    5410:	48 89 c7             	mov    %rax,%rdi
    5413:	e8 12 10 00 00       	callq  642a <_ZN9HashTableIiiE9hash_funcEi>
    5418:	48 c1 e0 03          	shl    $0x3,%rax
    541c:	48 01 d8             	add    %rbx,%rax
    541f:	48 89 45 c8          	mov    %rax,-0x38(%rbp)
    5423:	bf 2b 00 00 00       	mov    $0x2b,%edi
    5428:	b8 00 00 00 00       	mov    $0x0,%eax
    542d:	e8 6e c8 ff ff       	callq  1ca0 <_ITM_beginTransaction@plt>
    5432:	83 e0 02             	and    $0x2,%eax
    5435:	85 c0                	test   %eax,%eax
    5437:	75 17                	jne    5450 <_ZN9HashTableIiiE4readEi+0x88>
    5439:	48 8b 45 c8          	mov    -0x38(%rbp),%rax
    543d:	48 89 c7             	mov    %rax,%rdi
    5440:	e8 0d ea ff ff       	callq  3e52 <_ZGTtN6BucketIiiE7getNodeEv>
    5445:	48 89 45 b8          	mov    %rax,-0x48(%rbp)
    5449:	e8 82 c6 ff ff       	callq  1ad0 <_ITM_commitTransaction@plt>
    544e:	eb 15                	jmp    5465 <_ZN9HashTableIiiE4readEi+0x9d>
    5450:	48 8b 45 c8          	mov    -0x38(%rbp),%rax
    5454:	48 89 c7             	mov    %rax,%rdi
    5457:	e8 86 ee ff ff       	callq  42e2 <_ZN6BucketIiiE7getNodeEv>
    545c:	48 89 45 b8          	mov    %rax,-0x48(%rbp)
    5460:	e8 6b c6 ff ff       	callq  1ad0 <_ITM_commitTransaction@plt>
    5465:	48 83 7d b8 00       	cmpq   $0x0,-0x48(%rbp)
    546a:	0f 84 e7 00 00 00    	je     5557 <_ZN9HashTableIiiE4readEi+0x18f>
    5470:	bf 2b 00 00 00       	mov    $0x2b,%edi
    5475:	b8 00 00 00 00       	mov    $0x0,%eax
    547a:	e8 21 c8 ff ff       	callq  1ca0 <_ITM_beginTransaction@plt>
    547f:	83 e0 02             	and    $0x2,%eax
    5482:	85 c0                	test   %eax,%eax
    5484:	75 6d                	jne    54f3 <_ZN9HashTableIiiE4readEi+0x12b>
    5486:	48 8b 45 b8          	mov    -0x48(%rbp),%rax
    548a:	48 89 c7             	mov    %rax,%rdi
    548d:	e8 06 e8 ff ff       	callq  3c98 <_ZGTtN8HashNodeIiiE6getKeyEv>
    5492:	48 89 c7             	mov    %rax,%rdi
    5495:	e8 36 c7 ff ff       	callq  1bd0 <_ITM_RU4@plt>
    549a:	3b 45 a4             	cmp    -0x5c(%rbp),%eax
    549d:	0f 94 c0             	sete   %al
    54a0:	84 c0                	test   %al,%al
    54a2:	74 26                	je     54ca <_ZN9HashTableIiiE4readEi+0x102>
    54a4:	48 8b 45 b8          	mov    -0x48(%rbp),%rax
    54a8:	48 89 c7             	mov    %rax,%rdi
    54ab:	e8 82 e7 ff ff       	callq  3c32 <_ZGTtN8HashNodeIiiE8getValueEv>
    54b0:	48 89 c7             	mov    %rax,%rdi
    54b3:	e8 18 c7 ff ff       	callq  1bd0 <_ITM_RU4@plt>
    54b8:	89 c3                	mov    %eax,%ebx
    54ba:	41 bc 00 00 00 00    	mov    $0x0,%r12d
    54c0:	48 8b 45 b8          	mov    -0x48(%rbp),%rax
    54c4:	48 89 45 c0          	mov    %rax,-0x40(%rbp)
    54c8:	eb 19                	jmp    54e3 <_ZN9HashTableIiiE4readEi+0x11b>
    54ca:	48 8b 45 b8          	mov    -0x48(%rbp),%rax
    54ce:	48 89 c7             	mov    %rax,%rdi
    54d1:	e8 a8 e7 ff ff       	callq  3c7e <_ZGTtN8HashNodeIiiE7getNextEv>
    54d6:	48 89 45 c0          	mov    %rax,-0x40(%rbp)
    54da:	41 bc 01 00 00 00    	mov    $0x1,%r12d
    54e0:	8b 5d a0             	mov    -0x60(%rbp),%ebx
    54e3:	e8 e8 c5 ff ff       	callq  1ad0 <_ITM_commitTransaction@plt>
    54e8:	41 83 fc 01          	cmp    $0x1,%r12d
    54ec:	74 59                	je     5547 <_ZN9HashTableIiiE4readEi+0x17f>
    54ee:	e9 96 00 00 00       	jmpq   5589 <_ZN9HashTableIiiE4readEi+0x1c1>
    54f3:	48 8b 45 b8          	mov    -0x48(%rbp),%rax
    54f7:	48 89 c7             	mov    %rax,%rdi
    54fa:	e8 83 0f 00 00       	callq  6482 <_ZN8HashNodeIiiE6getKeyEv>
    54ff:	8b 00                	mov    (%rax),%eax
    5501:	3b 45 a4             	cmp    -0x5c(%rbp),%eax
    5504:	0f 94 c0             	sete   %al
    5507:	84 c0                	test   %al,%al
    5509:	74 16                	je     5521 <_ZN9HashTableIiiE4readEi+0x159>
    550b:	48 8b 45 b8          	mov    -0x48(%rbp),%rax
    550f:	48 89 c7             	mov    %rax,%rdi
    5512:	e8 29 14 00 00       	callq  6940 <_ZN8HashNodeIiiE8getValueEv>
    5517:	8b 18                	mov    (%rax),%ebx
    5519:	41 bc 00 00 00 00    	mov    $0x0,%r12d
    551f:	eb 19                	jmp    553a <_ZN9HashTableIiiE4readEi+0x172>
    5521:	48 8b 45 b8          	mov    -0x48(%rbp),%rax
    5525:	48 89 c7             	mov    %rax,%rdi
    5528:	e8 67 0f 00 00       	callq  6494 <_ZN8HashNodeIiiE7getNextEv>
    552d:	48 89 45 b8          	mov    %rax,-0x48(%rbp)
    5531:	41 bc 01 00 00 00    	mov    $0x1,%r12d
    5537:	8b 5d a0             	mov    -0x60(%rbp),%ebx
    553a:	e8 91 c5 ff ff       	callq  1ad0 <_ITM_commitTransaction@plt>
    553f:	41 83 fc 01          	cmp    $0x1,%r12d
    5543:	75 44                	jne    5589 <_ZN9HashTableIiiE4readEi+0x1c1>
    5545:	eb 08                	jmp    554f <_ZN9HashTableIiiE4readEi+0x187>
    5547:	48 8b 45 c0          	mov    -0x40(%rbp),%rax
    554b:	48 89 45 b8          	mov    %rax,-0x48(%rbp)
    554f:	89 5d a0             	mov    %ebx,-0x60(%rbp)
    5552:	e9 0e ff ff ff       	jmpq   5465 <_ZN9HashTableIiiE4readEi+0x9d>
    5557:	bf 08 00 00 00       	mov    $0x8,%edi
    555c:	e8 2f c5 ff ff       	callq  1a90 <__cxa_allocate_exception@plt>
    5561:	48 89 c3             	mov    %rax,%rbx
    5564:	48 c7 03 00 00 00 00 	movq   $0x0,(%rbx)
    556b:	48 89 df             	mov    %rbx,%rdi
    556e:	e8 d5 fd ff ff       	callq  5348 <_ZN19InvalidReadExeptionC1Ev>
    5573:	48 8d 15 f8 fd ff ff 	lea    -0x208(%rip),%rdx        # 5372 <_ZN19InvalidReadExeptionD1Ev>
    557a:	48 8d 35 67 96 20 00 	lea    0x209667(%rip),%rsi        # 20ebe8 <_ZTVN10__cxxabiv120__si_class_type_infoE@CXXABI_1.3>
    5581:	48 89 df             	mov    %rbx,%rdi
    5584:	e8 b7 c6 ff ff       	callq  1c40 <__cxa_throw@plt>
    5589:	48 8d 45 d0          	lea    -0x30(%rbp),%rax
    558d:	48 89 c7             	mov    %rax,%rdi
    5590:	e8 6b 0e 00 00       	callq  6400 <_ZNSt11shared_lockISt18shared_timed_mutexED1Ev>
    5595:	89 d8                	mov    %ebx,%eax
    5597:	48 8b 4d e8          	mov    -0x18(%rbp),%rcx
    559b:	64 48 33 0c 25 28 00 	xor    %fs:0x28,%rcx
    55a2:	00 00 
    55a4:	74 21                	je     55c7 <_ZN9HashTableIiiE4readEi+0x1ff>
    55a6:	eb 1a                	jmp    55c2 <_ZN9HashTableIiiE4readEi+0x1fa>
    55a8:	48 89 c3             	mov    %rax,%rbx
    55ab:	48 8d 45 d0          	lea    -0x30(%rbp),%rax
    55af:	48 89 c7             	mov    %rax,%rdi
    55b2:	e8 49 0e 00 00       	callq  6400 <_ZNSt11shared_lockISt18shared_timed_mutexED1Ev>
    55b7:	48 89 d8             	mov    %rbx,%rax
    55ba:	48 89 c7             	mov    %rax,%rdi
    55bd:	e8 9e c6 ff ff       	callq  1c60 <_Unwind_Resume@plt>
    55c2:	e8 c9 c5 ff ff       	callq  1b90 <__stack_chk_fail@plt>
    55c7:	48 83 c4 50          	add    $0x50,%rsp
    55cb:	5b                   	pop    %rbx
    55cc:	41 5c                	pop    %r12
    55ce:	5d                   	pop    %rbp
    55cf:	c3                   	retq   

00000000000055d0 <_ZNSt12_Vector_baseISt4pairIiiESaIS1_EE12_Vector_implC1Ev>:
    55d0:	55                   	push   %rbp
    55d1:	48 89 e5             	mov    %rsp,%rbp
    55d4:	48 83 ec 10          	sub    $0x10,%rsp
    55d8:	48 89 7d f8          	mov    %rdi,-0x8(%rbp)
    55dc:	48 8b 45 f8          	mov    -0x8(%rbp),%rax
    55e0:	48 89 c7             	mov    %rax,%rdi
    55e3:	e8 6a 13 00 00       	callq  6952 <_ZNSaISt4pairIiiEEC1Ev>
    55e8:	48 8b 45 f8          	mov    -0x8(%rbp),%rax
    55ec:	48 89 c7             	mov    %rax,%rdi
    55ef:	e8 7a 13 00 00       	callq  696e <_ZNSt12_Vector_baseISt4pairIiiESaIS1_EE17_Vector_impl_dataC1Ev>
    55f4:	90                   	nop
    55f5:	c9                   	leaveq 
    55f6:	c3                   	retq   
    55f7:	90                   	nop

00000000000055f8 <_ZNSaISt4pairIiiEED1Ev>:
    55f8:	55                   	push   %rbp
    55f9:	48 89 e5             	mov    %rsp,%rbp
    55fc:	48 83 ec 10          	sub    $0x10,%rsp
    5600:	48 89 7d f8          	mov    %rdi,-0x8(%rbp)
    5604:	48 8b 45 f8          	mov    -0x8(%rbp),%rax
    5608:	48 89 c7             	mov    %rax,%rdi
    560b:	e8 8c 13 00 00       	callq  699c <_ZN9__gnu_cxx13new_allocatorISt4pairIiiEED1Ev>
    5610:	90                   	nop
    5611:	c9                   	leaveq 
    5612:	c3                   	retq   
    5613:	90                   	nop

0000000000005614 <_ZNSt12_Vector_baseISt4pairIiiESaIS1_EED1Ev>:
    5614:	55                   	push   %rbp
    5615:	48 89 e5             	mov    %rsp,%rbp
    5618:	48 83 ec 10          	sub    $0x10,%rsp
    561c:	48 89 7d f8          	mov    %rdi,-0x8(%rbp)
    5620:	48 8b 45 f8          	mov    -0x8(%rbp),%rax
    5624:	48 8b 50 10          	mov    0x10(%rax),%rdx
    5628:	48 8b 45 f8          	mov    -0x8(%rbp),%rax
    562c:	48 8b 00             	mov    (%rax),%rax
    562f:	48 29 c2             	sub    %rax,%rdx
    5632:	48 89 d0             	mov    %rdx,%rax
    5635:	48 c1 f8 03          	sar    $0x3,%rax
    5639:	48 89 c2             	mov    %rax,%rdx
    563c:	48 8b 45 f8          	mov    -0x8(%rbp),%rax
    5640:	48 8b 08             	mov    (%rax),%rcx
    5643:	48 8b 45 f8          	mov    -0x8(%rbp),%rax
    5647:	48 89 ce             	mov    %rcx,%rsi
    564a:	48 89 c7             	mov    %rax,%rdi
    564d:	e8 56 13 00 00       	callq  69a8 <_ZNSt12_Vector_baseISt4pairIiiESaIS1_EE13_M_deallocateEPS1_m>
    5652:	48 8b 45 f8          	mov    -0x8(%rbp),%rax
    5656:	48 89 c7             	mov    %rax,%rdi
    5659:	e8 6e f1 ff ff       	callq  47cc <_ZNSt12_Vector_baseISt4pairIiiESaIS1_EE12_Vector_implD1Ev>
    565e:	90                   	nop
    565f:	c9                   	leaveq 
    5660:	c3                   	retq   
    5661:	90                   	nop

0000000000005662 <_ZNSt6vectorISt4pairIiiESaIS1_EED1Ev>:
    5662:	55                   	push   %rbp
    5663:	48 89 e5             	mov    %rsp,%rbp
    5666:	48 83 ec 10          	sub    $0x10,%rsp
    566a:	48 89 7d f8          	mov    %rdi,-0x8(%rbp)
    566e:	48 8b 45 f8          	mov    -0x8(%rbp),%rax
    5672:	48 89 c7             	mov    %rax,%rdi
    5675:	e8 64 13 00 00       	callq  69de <_ZNSt12_Vector_baseISt4pairIiiESaIS1_EE19_M_get_Tp_allocatorEv>
    567a:	48 89 c2             	mov    %rax,%rdx
    567d:	48 8b 45 f8          	mov    -0x8(%rbp),%rax
    5681:	48 8b 48 08          	mov    0x8(%rax),%rcx
    5685:	48 8b 45 f8          	mov    -0x8(%rbp),%rax
    5689:	48 8b 00             	mov    (%rax),%rax
    568c:	48 89 ce             	mov    %rcx,%rsi
    568f:	48 89 c7             	mov    %rax,%rdi
    5692:	e8 55 13 00 00       	callq  69ec <_ZSt8_DestroyIPSt4pairIiiES1_EvT_S3_RSaIT0_E>
    5697:	48 8b 45 f8          	mov    -0x8(%rbp),%rax
    569b:	48 89 c7             	mov    %rax,%rdi
    569e:	e8 71 ff ff ff       	callq  5614 <_ZNSt12_Vector_baseISt4pairIiiESaIS1_EED1Ev>
    56a3:	90                   	nop
    56a4:	c9                   	leaveq 
    56a5:	c3                   	retq   

00000000000056a6 <_ZNSt12_Vector_baseIiSaIiEE12_Vector_implC1Ev>:
    56a6:	55                   	push   %rbp
    56a7:	48 89 e5             	mov    %rsp,%rbp
    56aa:	48 83 ec 10          	sub    $0x10,%rsp
    56ae:	48 89 7d f8          	mov    %rdi,-0x8(%rbp)
    56b2:	48 8b 45 f8          	mov    -0x8(%rbp),%rax
    56b6:	48 89 c7             	mov    %rax,%rdi
    56b9:	e8 74 09 00 00       	callq  6032 <_ZNSaIiEC1Ev>
    56be:	48 8b 45 f8          	mov    -0x8(%rbp),%rax
    56c2:	48 89 c7             	mov    %rax,%rdi
    56c5:	e8 4c 13 00 00       	callq  6a16 <_ZNSt12_Vector_baseIiSaIiEE17_Vector_impl_dataC1Ev>
    56ca:	90                   	nop
    56cb:	c9                   	leaveq 
    56cc:	c3                   	retq   
    56cd:	90                   	nop

00000000000056ce <_ZNSaIiED1Ev>:
    56ce:	55                   	push   %rbp
    56cf:	48 89 e5             	mov    %rsp,%rbp
    56d2:	48 83 ec 10          	sub    $0x10,%rsp
    56d6:	48 89 7d f8          	mov    %rdi,-0x8(%rbp)
    56da:	48 8b 45 f8          	mov    -0x8(%rbp),%rax
    56de:	48 89 c7             	mov    %rax,%rdi
    56e1:	e8 5e 13 00 00       	callq  6a44 <_ZN9__gnu_cxx13new_allocatorIiED1Ev>
    56e6:	90                   	nop
    56e7:	c9                   	leaveq 
    56e8:	c3                   	retq   
    56e9:	90                   	nop

00000000000056ea <_ZNSt12_Vector_baseIiSaIiEED1Ev>:
    56ea:	55                   	push   %rbp
    56eb:	48 89 e5             	mov    %rsp,%rbp
    56ee:	48 83 ec 10          	sub    $0x10,%rsp
    56f2:	48 89 7d f8          	mov    %rdi,-0x8(%rbp)
    56f6:	48 8b 45 f8          	mov    -0x8(%rbp),%rax
    56fa:	48 8b 50 10          	mov    0x10(%rax),%rdx
    56fe:	48 8b 45 f8          	mov    -0x8(%rbp),%rax
    5702:	48 8b 00             	mov    (%rax),%rax
    5705:	48 29 c2             	sub    %rax,%rdx
    5708:	48 89 d0             	mov    %rdx,%rax
    570b:	48 c1 f8 02          	sar    $0x2,%rax
    570f:	48 89 c2             	mov    %rax,%rdx
    5712:	48 8b 45 f8          	mov    -0x8(%rbp),%rax
    5716:	48 8b 08             	mov    (%rax),%rcx
    5719:	48 8b 45 f8          	mov    -0x8(%rbp),%rax
    571d:	48 89 ce             	mov    %rcx,%rsi
    5720:	48 89 c7             	mov    %rax,%rdi
    5723:	e8 28 13 00 00       	callq  6a50 <_ZNSt12_Vector_baseIiSaIiEE13_M_deallocateEPim>
    5728:	48 8b 45 f8          	mov    -0x8(%rbp),%rax
    572c:	48 89 c7             	mov    %rax,%rdi
    572f:	e8 2c f1 ff ff       	callq  4860 <_ZNSt12_Vector_baseIiSaIiEE12_Vector_implD1Ev>
    5734:	90                   	nop
    5735:	c9                   	leaveq 
    5736:	c3                   	retq   
    5737:	90                   	nop

0000000000005738 <_ZNSt6vectorIiSaIiEED1Ev>:
    5738:	55                   	push   %rbp
    5739:	48 89 e5             	mov    %rsp,%rbp
    573c:	48 83 ec 10          	sub    $0x10,%rsp
    5740:	48 89 7d f8          	mov    %rdi,-0x8(%rbp)
    5744:	48 8b 45 f8          	mov    -0x8(%rbp),%rax
    5748:	48 89 c7             	mov    %rax,%rdi
    574b:	e8 36 13 00 00       	callq  6a86 <_ZNSt12_Vector_baseIiSaIiEE19_M_get_Tp_allocatorEv>
    5750:	48 89 c2             	mov    %rax,%rdx
    5753:	48 8b 45 f8          	mov    -0x8(%rbp),%rax
    5757:	48 8b 48 08          	mov    0x8(%rax),%rcx
    575b:	48 8b 45 f8          	mov    -0x8(%rbp),%rax
    575f:	48 8b 00             	mov    (%rax),%rax
    5762:	48 89 ce             	mov    %rcx,%rsi
    5765:	48 89 c7             	mov    %rax,%rdi
    5768:	e8 27 13 00 00       	callq  6a94 <_ZSt8_DestroyIPiiEvT_S1_RSaIT0_E>
    576d:	48 8b 45 f8          	mov    -0x8(%rbp),%rax
    5771:	48 89 c7             	mov    %rax,%rdi
    5774:	e8 71 ff ff ff       	callq  56ea <_ZNSt12_Vector_baseIiSaIiEED1Ev>
    5779:	90                   	nop
    577a:	c9                   	leaveq 
    577b:	c3                   	retq   

000000000000577c <_ZNSt22__shared_mutex_pthreadC1Ev>:
    577c:	55                   	push   %rbp
    577d:	48 89 e5             	mov    %rsp,%rbp
    5780:	48 89 7d f8          	mov    %rdi,-0x8(%rbp)
    5784:	48 8b 45 f8          	mov    -0x8(%rbp),%rax
    5788:	48 c7 00 00 00 00 00 	movq   $0x0,(%rax)
    578f:	48 c7 40 08 00 00 00 	movq   $0x0,0x8(%rax)
    5796:	00 
    5797:	48 c7 40 10 00 00 00 	movq   $0x0,0x10(%rax)
    579e:	00 
    579f:	48 c7 40 18 00 00 00 	movq   $0x0,0x18(%rax)
    57a6:	00 
    57a7:	48 c7 40 20 00 00 00 	movq   $0x0,0x20(%rax)
    57ae:	00 
    57af:	48 c7 40 28 00 00 00 	movq   $0x0,0x28(%rax)
    57b6:	00 
    57b7:	48 c7 40 30 00 00 00 	movq   $0x0,0x30(%rax)
    57be:	00 
    57bf:	90                   	nop
    57c0:	5d                   	pop    %rbp
    57c1:	c3                   	retq   

00000000000057c2 <_ZNSt18shared_timed_mutexC1Ev>:
    57c2:	55                   	push   %rbp
    57c3:	48 89 e5             	mov    %rsp,%rbp
    57c6:	48 83 ec 10          	sub    $0x10,%rsp
    57ca:	48 89 7d f8          	mov    %rdi,-0x8(%rbp)
    57ce:	48 8b 45 f8          	mov    -0x8(%rbp),%rax
    57d2:	48 89 c7             	mov    %rax,%rdi
    57d5:	e8 a2 ff ff ff       	callq  577c <_ZNSt22__shared_mutex_pthreadC1Ev>
    57da:	90                   	nop
    57db:	c9                   	leaveq 
    57dc:	c3                   	retq   
    57dd:	90                   	nop

00000000000057de <_ZN20InvalidSizeExceptionC1Ev>:
    57de:	55                   	push   %rbp
    57df:	48 89 e5             	mov    %rsp,%rbp
    57e2:	48 83 ec 10          	sub    $0x10,%rsp
    57e6:	48 89 7d f8          	mov    %rdi,-0x8(%rbp)
    57ea:	48 8b 45 f8          	mov    -0x8(%rbp),%rax
    57ee:	48 89 c7             	mov    %rax,%rdi
    57f1:	e8 aa e6 ff ff       	callq  3ea0 <_ZNSt9exceptionC1Ev>
    57f6:	48 8d 15 1b 93 20 00 	lea    0x20931b(%rip),%rdx        # 20eb18 <_ZTV20InvalidSizeException+0x10>
    57fd:	48 8b 45 f8          	mov    -0x8(%rbp),%rax
    5801:	48 89 10             	mov    %rdx,(%rax)
    5804:	90                   	nop
    5805:	c9                   	leaveq 
    5806:	c3                   	retq   
    5807:	90                   	nop

0000000000005808 <_ZN20InvalidSizeExceptionD1Ev>:
    5808:	55                   	push   %rbp
    5809:	48 89 e5             	mov    %rsp,%rbp
    580c:	48 83 ec 10          	sub    $0x10,%rsp
    5810:	48 89 7d f8          	mov    %rdi,-0x8(%rbp)
    5814:	48 8d 15 fd 92 20 00 	lea    0x2092fd(%rip),%rdx        # 20eb18 <_ZTV20InvalidSizeException+0x10>
    581b:	48 8b 45 f8          	mov    -0x8(%rbp),%rax
    581f:	48 89 10             	mov    %rdx,(%rax)
    5822:	48 8b 45 f8          	mov    -0x8(%rbp),%rax
    5826:	48 89 c7             	mov    %rax,%rdi
    5829:	e8 62 c4 ff ff       	callq  1c90 <_ZNSt9exceptionD2Ev@plt>
    582e:	90                   	nop
