
test/benchMarkTest:     file format elf64-x86-64


Disassembly of section .init:

00000000000019e8 <_init>:
    19e8:	48 83 ec 08          	sub    $0x8,%rsp
    19ec:	48 8b 05 e5 d5 20 00 	mov    0x20d5e5(%rip),%rax        # 20efd8 <__gmon_start__>
    19f3:	48 85 c0             	test   %rax,%rax
    19f6:	74 02                	je     19fa <_init+0x12>
    19f8:	ff d0                	callq  *%rax
    19fa:	48 83 c4 08          	add    $0x8,%rsp
    19fe:	c3                   	retq   

Disassembly of section .plt:

0000000000001a00 <.plt>:
    1a00:	ff 35 32 d4 20 00    	pushq  0x20d432(%rip)        # 20ee38 <_GLOBAL_OFFSET_TABLE_+0x8>
    1a06:	ff 25 34 d4 20 00    	jmpq   *0x20d434(%rip)        # 20ee40 <_GLOBAL_OFFSET_TABLE_+0x10>
    1a0c:	0f 1f 40 00          	nopl   0x0(%rax)

0000000000001a10 <_Znam@plt>:
    1a10:	ff 25 32 d4 20 00    	jmpq   *0x20d432(%rip)        # 20ee48 <_Znam@GLIBCXX_3.4>
    1a16:	68 00 00 00 00       	pushq  $0x0
    1a1b:	e9 e0 ff ff ff       	jmpq   1a00 <.plt>

0000000000001a20 <_ITM_WU4@plt>:
    1a20:	ff 25 2a d4 20 00    	jmpq   *0x20d42a(%rip)        # 20ee50 <_ITM_WU4@LIBITM_1.0>
    1a26:	68 01 00 00 00       	pushq  $0x1
    1a2b:	e9 d0 ff ff ff       	jmpq   1a00 <.plt>

0000000000001a30 <rand@plt>:
    1a30:	ff 25 22 d4 20 00    	jmpq   *0x20d422(%rip)        # 20ee58 <rand@GLIBC_2.2.5>
    1a36:	68 02 00 00 00       	pushq  $0x2
    1a3b:	e9 c0 ff ff ff       	jmpq   1a00 <.plt>

0000000000001a40 <_ZSt9terminatev@plt>:
    1a40:	ff 25 1a d4 20 00    	jmpq   *0x20d41a(%rip)        # 20ee60 <_ZSt9terminatev@GLIBCXX_3.4>
    1a46:	68 03 00 00 00       	pushq  $0x3
    1a4b:	e9 b0 ff ff ff       	jmpq   1a00 <.plt>

0000000000001a50 <_ZSt17__throw_bad_allocv@plt>:
    1a50:	ff 25 12 d4 20 00    	jmpq   *0x20d412(%rip)        # 20ee68 <_ZSt17__throw_bad_allocv@GLIBCXX_3.4>
    1a56:	68 04 00 00 00       	pushq  $0x4
    1a5b:	e9 a0 ff ff ff       	jmpq   1a00 <.plt>

0000000000001a60 <__cxa_begin_catch@plt>:
    1a60:	ff 25 0a d4 20 00    	jmpq   *0x20d40a(%rip)        # 20ee70 <__cxa_begin_catch@CXXABI_1.3>
    1a66:	68 05 00 00 00       	pushq  $0x5
    1a6b:	e9 90 ff ff ff       	jmpq   1a00 <.plt>

0000000000001a70 <_ZNSt6thread6_StateD2Ev@plt>:
    1a70:	ff 25 02 d4 20 00    	jmpq   *0x20d402(%rip)        # 20ee78 <_ZNSt6thread6_StateD2Ev@GLIBCXX_3.4.22>
    1a76:	68 06 00 00 00       	pushq  $0x6
    1a7b:	e9 80 ff ff ff       	jmpq   1a00 <.plt>

0000000000001a80 <_ITM_RU8@plt>:
    1a80:	ff 25 fa d3 20 00    	jmpq   *0x20d3fa(%rip)        # 20ee80 <_ITM_RU8@LIBITM_1.0>
    1a86:	68 07 00 00 00       	pushq  $0x7
    1a8b:	e9 70 ff ff ff       	jmpq   1a00 <.plt>

0000000000001a90 <__cxa_allocate_exception@plt>:
    1a90:	ff 25 f2 d3 20 00    	jmpq   *0x20d3f2(%rip)        # 20ee88 <__cxa_allocate_exception@CXXABI_1.3>
    1a96:	68 08 00 00 00       	pushq  $0x8
    1a9b:	e9 60 ff ff ff       	jmpq   1a00 <.plt>

0000000000001aa0 <pthread_join@plt>:
    1aa0:	ff 25 ea d3 20 00    	jmpq   *0x20d3ea(%rip)        # 20ee90 <pthread_join@GLIBC_2.2.5>
    1aa6:	68 09 00 00 00       	pushq  $0x9
    1aab:	e9 50 ff ff ff       	jmpq   1a00 <.plt>

0000000000001ab0 <_ZSt20__throw_length_errorPKc@plt>:
    1ab0:	ff 25 e2 d3 20 00    	jmpq   *0x20d3e2(%rip)        # 20ee98 <_ZSt20__throw_length_errorPKc@GLIBCXX_3.4>
    1ab6:	68 0a 00 00 00       	pushq  $0xa
    1abb:	e9 40 ff ff ff       	jmpq   1a00 <.plt>

0000000000001ac0 <_ZSt20__throw_system_errori@plt>:
    1ac0:	ff 25 da d3 20 00    	jmpq   *0x20d3da(%rip)        # 20eea0 <_ZSt20__throw_system_errori@GLIBCXX_3.4.11>
    1ac6:	68 0b 00 00 00       	pushq  $0xb
    1acb:	e9 30 ff ff ff       	jmpq   1a00 <.plt>

0000000000001ad0 <_ITM_commitTransaction@plt>:
    1ad0:	ff 25 d2 d3 20 00    	jmpq   *0x20d3d2(%rip)        # 20eea8 <_ITM_commitTransaction@LIBITM_1.0>
    1ad6:	68 0c 00 00 00       	pushq  $0xc
    1adb:	e9 20 ff ff ff       	jmpq   1a00 <.plt>

0000000000001ae0 <pthread_mutex_unlock@plt>:
    1ae0:	ff 25 ca d3 20 00    	jmpq   *0x20d3ca(%rip)        # 20eeb0 <pthread_mutex_unlock@GLIBC_2.2.5>
    1ae6:	68 0d 00 00 00       	pushq  $0xd
    1aeb:	e9 10 ff ff ff       	jmpq   1a00 <.plt>

0000000000001af0 <pthread_rwlock_wrlock@plt>:
    1af0:	ff 25 c2 d3 20 00    	jmpq   *0x20d3c2(%rip)        # 20eeb8 <pthread_rwlock_wrlock@GLIBC_2.2.5>
    1af6:	68 0e 00 00 00       	pushq  $0xe
    1afb:	e9 00 ff ff ff       	jmpq   1a00 <.plt>

0000000000001b00 <_ITM_WU8@plt>:
    1b00:	ff 25 ba d3 20 00    	jmpq   *0x20d3ba(%rip)        # 20eec0 <_ITM_WU8@LIBITM_1.0>
    1b06:	68 0f 00 00 00       	pushq  $0xf
    1b0b:	e9 f0 fe ff ff       	jmpq   1a00 <.plt>

0000000000001b10 <__cxa_atexit@plt>:
    1b10:	ff 25 b2 d3 20 00    	jmpq   *0x20d3b2(%rip)        # 20eec8 <__cxa_atexit@GLIBC_2.2.5>
    1b16:	68 10 00 00 00       	pushq  $0x10
    1b1b:	e9 e0 fe ff ff       	jmpq   1a00 <.plt>

0000000000001b20 <_ZNSt6thread15_M_start_threadESt10unique_ptrINS_6_StateESt14default_deleteIS1_EEPFvvE@plt>:
    1b20:	ff 25 aa d3 20 00    	jmpq   *0x20d3aa(%rip)        # 20eed0 <_ZNSt6thread15_M_start_threadESt10unique_ptrINS_6_StateESt14default_deleteIS1_EEPFvvE@GLIBCXX_3.4.22>
    1b26:	68 11 00 00 00       	pushq  $0x11
    1b2b:	e9 d0 fe ff ff       	jmpq   1a00 <.plt>

0000000000001b30 <clock_gettime@plt>:
    1b30:	ff 25 a2 d3 20 00    	jmpq   *0x20d3a2(%rip)        # 20eed8 <clock_gettime@GLIBC_2.17>
    1b36:	68 12 00 00 00       	pushq  $0x12
    1b3b:	e9 c0 fe ff ff       	jmpq   1a00 <.plt>

0000000000001b40 <_ZdlPv@plt>:
    1b40:	ff 25 9a d3 20 00    	jmpq   *0x20d39a(%rip)        # 20eee0 <_ZdlPv@GLIBCXX_3.4>
    1b46:	68 13 00 00 00       	pushq  $0x13
    1b4b:	e9 b0 fe ff ff       	jmpq   1a00 <.plt>

0000000000001b50 <_ZStlsISt11char_traitsIcEERSt13basic_ostreamIcT_ES5_PKc@plt>:
    1b50:	ff 25 92 d3 20 00    	jmpq   *0x20d392(%rip)        # 20eee8 <_ZStlsISt11char_traitsIcEERSt13basic_ostreamIcT_ES5_PKc@GLIBCXX_3.4>
    1b56:	68 14 00 00 00       	pushq  $0x14
    1b5b:	e9 a0 fe ff ff       	jmpq   1a00 <.plt>

0000000000001b60 <_Znwm@plt>:
    1b60:	ff 25 8a d3 20 00    	jmpq   *0x20d38a(%rip)        # 20eef0 <_Znwm@GLIBCXX_3.4>
    1b66:	68 15 00 00 00       	pushq  $0x15
    1b6b:	e9 90 fe ff ff       	jmpq   1a00 <.plt>

0000000000001b70 <_ZdlPvm@plt>:
    1b70:	ff 25 82 d3 20 00    	jmpq   *0x20d382(%rip)        # 20eef8 <_ZdlPvm@CXXABI_1.3.9>
    1b76:	68 16 00 00 00       	pushq  $0x16
    1b7b:	e9 80 fe ff ff       	jmpq   1a00 <.plt>

0000000000001b80 <_ZNSolsEPFRSoS_E@plt>:
    1b80:	ff 25 7a d3 20 00    	jmpq   *0x20d37a(%rip)        # 20ef00 <_ZNSolsEPFRSoS_E@GLIBCXX_3.4>
    1b86:	68 17 00 00 00       	pushq  $0x17
    1b8b:	e9 70 fe ff ff       	jmpq   1a00 <.plt>

0000000000001b90 <__stack_chk_fail@plt>:
    1b90:	ff 25 72 d3 20 00    	jmpq   *0x20d372(%rip)        # 20ef08 <__stack_chk_fail@GLIBC_2.4>
    1b96:	68 18 00 00 00       	pushq  $0x18
    1b9b:	e9 60 fe ff ff       	jmpq   1a00 <.plt>

0000000000001ba0 <_ZdaPv@plt>:
    1ba0:	ff 25 6a d3 20 00    	jmpq   *0x20d36a(%rip)        # 20ef10 <_ZdaPv@GLIBCXX_3.4>
    1ba6:	68 19 00 00 00       	pushq  $0x19
    1bab:	e9 50 fe ff ff       	jmpq   1a00 <.plt>

0000000000001bb0 <pthread_rwlock_rdlock@plt>:
    1bb0:	ff 25 62 d3 20 00    	jmpq   *0x20d362(%rip)        # 20ef18 <pthread_rwlock_rdlock@GLIBC_2.2.5>
    1bb6:	68 1a 00 00 00       	pushq  $0x1a
    1bbb:	e9 40 fe ff ff       	jmpq   1a00 <.plt>

0000000000001bc0 <__cxa_throw_bad_array_new_length@plt>:
    1bc0:	ff 25 5a d3 20 00    	jmpq   *0x20d35a(%rip)        # 20ef20 <__cxa_throw_bad_array_new_length@CXXABI_1.3.8>
    1bc6:	68 1b 00 00 00       	pushq  $0x1b
    1bcb:	e9 30 fe ff ff       	jmpq   1a00 <.plt>

0000000000001bd0 <_ITM_RU4@plt>:
    1bd0:	ff 25 52 d3 20 00    	jmpq   *0x20d352(%rip)        # 20ef28 <_ITM_RU4@LIBITM_1.0>
    1bd6:	68 1c 00 00 00       	pushq  $0x1c
    1bdb:	e9 20 fe ff ff       	jmpq   1a00 <.plt>

0000000000001be0 <pthread_mutex_lock@plt>:
    1be0:	ff 25 4a d3 20 00    	jmpq   *0x20d34a(%rip)        # 20ef30 <pthread_mutex_lock@GLIBC_2.2.5>
    1be6:	68 1d 00 00 00       	pushq  $0x1d
    1beb:	e9 10 fe ff ff       	jmpq   1a00 <.plt>

0000000000001bf0 <_ZNSt8ios_base4InitC1Ev@plt>:
    1bf0:	ff 25 42 d3 20 00    	jmpq   *0x20d342(%rip)        # 20ef38 <_ZNSt8ios_base4InitC1Ev@GLIBCXX_3.4>
    1bf6:	68 1e 00 00 00       	pushq  $0x1e
    1bfb:	e9 00 fe ff ff       	jmpq   1a00 <.plt>

0000000000001c00 <memmove@plt>:
    1c00:	ff 25 3a d3 20 00    	jmpq   *0x20d33a(%rip)        # 20ef40 <memmove@GLIBC_2.2.5>
    1c06:	68 1f 00 00 00       	pushq  $0x1f
    1c0b:	e9 f0 fd ff ff       	jmpq   1a00 <.plt>

0000000000001c10 <pthread_rwlock_unlock@plt>:
    1c10:	ff 25 32 d3 20 00    	jmpq   *0x20d332(%rip)        # 20ef48 <pthread_rwlock_unlock@GLIBC_2.2.5>
    1c16:	68 20 00 00 00       	pushq  $0x20
    1c1b:	e9 e0 fd ff ff       	jmpq   1a00 <.plt>

0000000000001c20 <__cxa_end_catch@plt>:
    1c20:	ff 25 2a d3 20 00    	jmpq   *0x20d32a(%rip)        # 20ef50 <__cxa_end_catch@CXXABI_1.3>
    1c26:	68 21 00 00 00       	pushq  $0x21
    1c2b:	e9 d0 fd ff ff       	jmpq   1a00 <.plt>

0000000000001c30 <_ZNSt6thread4joinEv@plt>:
    1c30:	ff 25 22 d3 20 00    	jmpq   *0x20d322(%rip)        # 20ef58 <_ZNSt6thread4joinEv@GLIBCXX_3.4.11>
    1c36:	68 22 00 00 00       	pushq  $0x22
    1c3b:	e9 c0 fd ff ff       	jmpq   1a00 <.plt>

0000000000001c40 <__cxa_throw@plt>:
    1c40:	ff 25 1a d3 20 00    	jmpq   *0x20d31a(%rip)        # 20ef60 <__cxa_throw@CXXABI_1.3>
    1c46:	68 23 00 00 00       	pushq  $0x23
    1c4b:	e9 b0 fd ff ff       	jmpq   1a00 <.plt>

0000000000001c50 <_ZNSolsEi@plt>:
    1c50:	ff 25 12 d3 20 00    	jmpq   *0x20d312(%rip)        # 20ef68 <_ZNSolsEi@GLIBCXX_3.4>
    1c56:	68 24 00 00 00       	pushq  $0x24
    1c5b:	e9 a0 fd ff ff       	jmpq   1a00 <.plt>

0000000000001c60 <_Unwind_Resume@plt>:
    1c60:	ff 25 0a d3 20 00    	jmpq   *0x20d30a(%rip)        # 20ef70 <_Unwind_Resume@GCC_3.0>
    1c66:	68 25 00 00 00       	pushq  $0x25
    1c6b:	e9 90 fd ff ff       	jmpq   1a00 <.plt>

0000000000001c70 <_ZNSolsEl@plt>:
    1c70:	ff 25 02 d3 20 00    	jmpq   *0x20d302(%rip)        # 20ef78 <_ZNSolsEl@GLIBCXX_3.4>
    1c76:	68 26 00 00 00       	pushq  $0x26
    1c7b:	e9 80 fd ff ff       	jmpq   1a00 <.plt>

0000000000001c80 <get_nprocs_conf@plt>:
    1c80:	ff 25 fa d2 20 00    	jmpq   *0x20d2fa(%rip)        # 20ef80 <get_nprocs_conf@GLIBC_2.2.5>
    1c86:	68 27 00 00 00       	pushq  $0x27
    1c8b:	e9 70 fd ff ff       	jmpq   1a00 <.plt>

0000000000001c90 <_ZNSt9exceptionD2Ev@plt>:
    1c90:	ff 25 f2 d2 20 00    	jmpq   *0x20d2f2(%rip)        # 20ef88 <_ZNSt9exceptionD2Ev@GLIBCXX_3.4>
    1c96:	68 28 00 00 00       	pushq  $0x28
    1c9b:	e9 60 fd ff ff       	jmpq   1a00 <.plt>

0000000000001ca0 <_ITM_beginTransaction@plt>:
    1ca0:	ff 25 ea d2 20 00    	jmpq   *0x20d2ea(%rip)        # 20ef90 <_ITM_beginTransaction@LIBITM_1.0>
    1ca6:	68 29 00 00 00       	pushq  $0x29
    1cab:	e9 50 fd ff ff       	jmpq   1a00 <.plt>

0000000000001cb0 <_ZdaPvm@plt>:
    1cb0:	ff 25 e2 d2 20 00    	jmpq   *0x20d2e2(%rip)        # 20ef98 <_ZdaPvm@CXXABI_1.3.9>
    1cb6:	68 2a 00 00 00       	pushq  $0x2a
    1cbb:	e9 40 fd ff ff       	jmpq   1a00 <.plt>

Disassembly of section .plt.got:

0000000000001cc0 <__cxa_finalize@plt>:
    1cc0:	ff 25 da d2 20 00    	jmpq   *0x20d2da(%rip)        # 20efa0 <__cxa_finalize@GLIBC_2.2.5>
    1cc6:	66 90                	xchg   %ax,%ax

0000000000001cc8 <pthread_create@plt>:
    1cc8:	ff 25 ea d2 20 00    	jmpq   *0x20d2ea(%rip)        # 20efb8 <pthread_create@GLIBC_2.2.5>
    1cce:	66 90                	xchg   %ax,%ax

Disassembly of section .text:

0000000000001cd0 <_start>:
    1cd0:	31 ed                	xor    %ebp,%ebp
    1cd2:	49 89 d1             	mov    %rdx,%r9
    1cd5:	5e                   	pop    %rsi
    1cd6:	48 89 e2             	mov    %rsp,%rdx
    1cd9:	48 83 e4 f0          	and    $0xfffffffffffffff0,%rsp
    1cdd:	50                   	push   %rax
    1cde:	54                   	push   %rsp
    1cdf:	4c 8d 05 0a 7f 00 00 	lea    0x7f0a(%rip),%r8        # 9bf0 <__libc_csu_fini>
    1ce6:	48 8d 0d 93 7e 00 00 	lea    0x7e93(%rip),%rcx        # 9b80 <__libc_csu_init>
    1ced:	48 8d 3d 99 1e 00 00 	lea    0x1e99(%rip),%rdi        # 3b8d <main>
    1cf4:	ff 15 d6 d2 20 00    	callq  *0x20d2d6(%rip)        # 20efd0 <__libc_start_main@GLIBC_2.2.5>
    1cfa:	f4                   	hlt    
    1cfb:	0f 1f 44 00 00       	nopl   0x0(%rax,%rax,1)

0000000000001d00 <deregister_tm_clones>:
    1d00:	48 8d 3d 21 d3 20 00 	lea    0x20d321(%rip),%rdi        # 20f028 <__TMC_LIST__>
    1d07:	48 8d 05 0a d4 20 00 	lea    0x20d40a(%rip),%rax        # 20f118 <__TMC_END__>
    1d0e:	48 39 f8             	cmp    %rdi,%rax
    1d11:	74 15                	je     1d28 <deregister_tm_clones+0x28>
    1d13:	48 8b 05 96 d2 20 00 	mov    0x20d296(%rip),%rax        # 20efb0 <_ITM_deregisterTMCloneTable@LIBITM_1.0>
    1d1a:	48 85 c0             	test   %rax,%rax
    1d1d:	74 09                	je     1d28 <deregister_tm_clones+0x28>
    1d1f:	ff e0                	jmpq   *%rax
    1d21:	0f 1f 80 00 00 00 00 	nopl   0x0(%rax)
    1d28:	c3                   	retq   
    1d29:	0f 1f 80 00 00 00 00 	nopl   0x0(%rax)

0000000000001d30 <register_tm_clones>:
    1d30:	48 8d 3d f1 d2 20 00 	lea    0x20d2f1(%rip),%rdi        # 20f028 <__TMC_LIST__>
    1d37:	48 8d 35 da d3 20 00 	lea    0x20d3da(%rip),%rsi        # 20f118 <__TMC_END__>
    1d3e:	48 29 fe             	sub    %rdi,%rsi
    1d41:	48 89 f0             	mov    %rsi,%rax
    1d44:	48 c1 ee 3f          	shr    $0x3f,%rsi
    1d48:	48 c1 f8 03          	sar    $0x3,%rax
    1d4c:	48 01 c6             	add    %rax,%rsi
    1d4f:	48 d1 fe             	sar    %rsi
    1d52:	74 14                	je     1d68 <register_tm_clones+0x38>
    1d54:	48 8b 05 65 d2 20 00 	mov    0x20d265(%rip),%rax        # 20efc0 <_ITM_registerTMCloneTable@LIBITM_1.0>
    1d5b:	48 85 c0             	test   %rax,%rax
    1d5e:	74 08                	je     1d68 <register_tm_clones+0x38>
    1d60:	ff e0                	jmpq   *%rax
    1d62:	66 0f 1f 44 00 00    	nopw   0x0(%rax,%rax,1)
    1d68:	c3                   	retq   
    1d69:	0f 1f 80 00 00 00 00 	nopl   0x0(%rax)

0000000000001d70 <__do_global_dtors_aux>:
    1d70:	80 3d b9 d4 20 00 00 	cmpb   $0x0,0x20d4b9(%rip)        # 20f230 <completed.8086>
    1d77:	75 2f                	jne    1da8 <__do_global_dtors_aux+0x38>
    1d79:	55                   	push   %rbp
    1d7a:	48 83 3d 1e d2 20 00 	cmpq   $0x0,0x20d21e(%rip)        # 20efa0 <__cxa_finalize@GLIBC_2.2.5>
    1d81:	00 
    1d82:	48 89 e5             	mov    %rsp,%rbp
    1d85:	74 0c                	je     1d93 <__do_global_dtors_aux+0x23>
    1d87:	48 8b 3d 7a d2 20 00 	mov    0x20d27a(%rip),%rdi        # 20f008 <__dso_handle>
    1d8e:	e8 2d ff ff ff       	callq  1cc0 <__cxa_finalize@plt>
    1d93:	e8 68 ff ff ff       	callq  1d00 <deregister_tm_clones>
    1d98:	c6 05 91 d4 20 00 01 	movb   $0x1,0x20d491(%rip)        # 20f230 <completed.8086>
    1d9f:	5d                   	pop    %rbp
    1da0:	c3                   	retq   
    1da1:	0f 1f 80 00 00 00 00 	nopl   0x0(%rax)
    1da8:	c3                   	retq   
    1da9:	0f 1f 80 00 00 00 00 	nopl   0x0(%rax)

0000000000001db0 <frame_dummy>:
    1db0:	e9 7b ff ff ff       	jmpq   1d30 <register_tm_clones>
    1db5:	90                   	nop

0000000000001db6 <_ZL18__gthread_active_pv>:
    1db6:	55                   	push   %rbp
    1db7:	48 89 e5             	mov    %rsp,%rbp
    1dba:	ba 01 00 00 00       	mov    $0x1,%edx
    1dbf:	48 8b 05 02 d2 20 00 	mov    0x20d202(%rip),%rax        # 20efc8 <__pthread_key_create@GLIBC_2.2.5>
    1dc6:	48 85 c0             	test   %rax,%rax
    1dc9:	75 05                	jne    1dd0 <_ZL18__gthread_active_pv+0x1a>
    1dcb:	ba 00 00 00 00       	mov    $0x0,%edx
    1dd0:	0f b6 c2             	movzbl %dl,%eax
    1dd3:	5d                   	pop    %rbp
    1dd4:	c3                   	retq   

0000000000001dd5 <_Z9mapDeletePv>:
    1dd5:	55                   	push   %rbp
    1dd6:	48 89 e5             	mov    %rsp,%rbp
    1dd9:	48 83 ec 40          	sub    $0x40,%rsp
    1ddd:	48 89 7d c8          	mov    %rdi,-0x38(%rbp)
    1de1:	64 48 8b 04 25 28 00 	mov    %fs:0x28,%rax
    1de8:	00 00 
    1dea:	48 89 45 f8          	mov    %rax,-0x8(%rbp)
    1dee:	31 c0                	xor    %eax,%eax
    1df0:	48 8b 45 c8          	mov    -0x38(%rbp),%rax
    1df4:	48 89 45 e8          	mov    %rax,-0x18(%rbp)
    1df8:	48 8b 45 e8          	mov    -0x18(%rbp),%rax
    1dfc:	48 83 c0 08          	add    $0x8,%rax
    1e00:	48 89 45 f0          	mov    %rax,-0x10(%rbp)
    1e04:	48 8b 45 f0          	mov    -0x10(%rbp),%rax
    1e08:	48 89 c7             	mov    %rax,%rdi
    1e0b:	e8 a4 2c 00 00       	callq  4ab4 <_ZNSt6vectorIiSaIiEE5beginEv>
    1e10:	48 89 45 d8          	mov    %rax,-0x28(%rbp)
    1e14:	48 8b 45 f0          	mov    -0x10(%rbp),%rax
    1e18:	48 89 c7             	mov    %rax,%rdi
    1e1b:	e8 dc 2c 00 00       	callq  4afc <_ZNSt6vectorIiSaIiEE3endEv>
    1e20:	48 89 45 e0          	mov    %rax,-0x20(%rbp)
    1e24:	48 8d 55 e0          	lea    -0x20(%rbp),%rdx
    1e28:	48 8d 45 d8          	lea    -0x28(%rbp),%rax
    1e2c:	48 89 d6             	mov    %rdx,%rsi
    1e2f:	48 89 c7             	mov    %rax,%rdi
    1e32:	e8 11 2d 00 00       	callq  4b48 <_ZN9__gnu_cxxneIPiSt6vectorIiSaIiEEEEbRKNS_17__normal_iteratorIT_T0_EESA_>
    1e37:	84 c0                	test   %al,%al
    1e39:	74 33                	je     1e6e <_Z9mapDeletePv+0x99>
    1e3b:	48 8d 45 d8          	lea    -0x28(%rbp),%rax
    1e3f:	48 89 c7             	mov    %rax,%rdi
    1e42:	e8 5d 2d 00 00       	callq  4ba4 <_ZNK9__gnu_cxx17__normal_iteratorIPiSt6vectorIiSaIiEEEdeEv>
    1e47:	8b 00                	mov    (%rax),%eax
    1e49:	89 45 d4             	mov    %eax,-0x2c(%rbp)
    1e4c:	48 8b 45 e8          	mov    -0x18(%rbp),%rax
    1e50:	48 8b 00             	mov    (%rax),%rax
    1e53:	8b 55 d4             	mov    -0x2c(%rbp),%edx
    1e56:	89 d6                	mov    %edx,%esi
    1e58:	48 89 c7             	mov    %rax,%rdi
    1e5b:	e8 56 2d 00 00       	callq  4bb6 <_ZN9HashTableIiiE6removeEi>
    1e60:	48 8d 45 d8          	lea    -0x28(%rbp),%rax
    1e64:	48 89 c7             	mov    %rax,%rdi
    1e67:	e8 18 2d 00 00       	callq  4b84 <_ZN9__gnu_cxx17__normal_iteratorIPiSt6vectorIiSaIiEEEppEv>
    1e6c:	eb b6                	jmp    1e24 <_Z9mapDeletePv+0x4f>
    1e6e:	90                   	nop
    1e6f:	48 8b 45 f8          	mov    -0x8(%rbp),%rax
    1e73:	64 48 33 04 25 28 00 	xor    %fs:0x28,%rax
    1e7a:	00 00 
    1e7c:	74 05                	je     1e83 <_Z9mapDeletePv+0xae>
    1e7e:	e8 0d fd ff ff       	callq  1b90 <__stack_chk_fail@plt>
    1e83:	c9                   	leaveq 
    1e84:	c3                   	retq   

0000000000001e85 <_Z8mapWritePv>:
    1e85:	55                   	push   %rbp
    1e86:	48 89 e5             	mov    %rsp,%rbp
    1e89:	48 83 ec 40          	sub    $0x40,%rsp
    1e8d:	48 89 7d c8          	mov    %rdi,-0x38(%rbp)
    1e91:	64 48 8b 04 25 28 00 	mov    %fs:0x28,%rax
    1e98:	00 00 
    1e9a:	48 89 45 f8          	mov    %rax,-0x8(%rbp)
    1e9e:	31 c0                	xor    %eax,%eax
    1ea0:	48 8b 45 c8          	mov    -0x38(%rbp),%rax
    1ea4:	48 89 45 e0          	mov    %rax,-0x20(%rbp)
    1ea8:	48 8b 45 e0          	mov    -0x20(%rbp),%rax
    1eac:	48 83 c0 08          	add    $0x8,%rax
    1eb0:	48 89 45 e8          	mov    %rax,-0x18(%rbp)
    1eb4:	48 8b 45 e8          	mov    -0x18(%rbp),%rax
    1eb8:	48 89 c7             	mov    %rax,%rdi
    1ebb:	e8 ce 2f 00 00       	callq  4e8e <_ZNSt6vectorISt4pairIiiESaIS1_EE5beginEv>
    1ec0:	48 89 45 d0          	mov    %rax,-0x30(%rbp)
    1ec4:	48 8b 45 e8          	mov    -0x18(%rbp),%rax
    1ec8:	48 89 c7             	mov    %rax,%rdi
    1ecb:	e8 06 30 00 00       	callq  4ed6 <_ZNSt6vectorISt4pairIiiESaIS1_EE3endEv>
    1ed0:	48 89 45 d8          	mov    %rax,-0x28(%rbp)
    1ed4:	48 8d 55 d8          	lea    -0x28(%rbp),%rdx
    1ed8:	48 8d 45 d0          	lea    -0x30(%rbp),%rax
    1edc:	48 89 d6             	mov    %rdx,%rsi
    1edf:	48 89 c7             	mov    %rax,%rdi
    1ee2:	e8 3b 30 00 00       	callq  4f22 <_ZN9__gnu_cxxneIPSt4pairIiiESt6vectorIS2_SaIS2_EEEEbRKNS_17__normal_iteratorIT_T0_EESC_>
    1ee7:	84 c0                	test   %al,%al
    1ee9:	74 38                	je     1f23 <_Z8mapWritePv+0x9e>
    1eeb:	48 8d 45 d0          	lea    -0x30(%rbp),%rax
    1eef:	48 89 c7             	mov    %rax,%rdi
    1ef2:	e8 87 30 00 00       	callq  4f7e <_ZNK9__gnu_cxx17__normal_iteratorIPSt4pairIiiESt6vectorIS2_SaIS2_EEEdeEv>
    1ef7:	48 8b 00             	mov    (%rax),%rax
    1efa:	48 89 45 f0          	mov    %rax,-0x10(%rbp)
    1efe:	48 8b 45 e0          	mov    -0x20(%rbp),%rax
    1f02:	48 8b 00             	mov    (%rax),%rax
    1f05:	8b 55 f4             	mov    -0xc(%rbp),%edx
    1f08:	8b 4d f0             	mov    -0x10(%rbp),%ecx
    1f0b:	89 ce                	mov    %ecx,%esi
    1f0d:	48 89 c7             	mov    %rax,%rdi
    1f10:	e8 7b 30 00 00       	callq  4f90 <_ZN9HashTableIiiE5writeEii>
    1f15:	48 8d 45 d0          	lea    -0x30(%rbp),%rax
    1f19:	48 89 c7             	mov    %rax,%rdi
    1f1c:	e8 3d 30 00 00       	callq  4f5e <_ZN9__gnu_cxx17__normal_iteratorIPSt4pairIiiESt6vectorIS2_SaIS2_EEEppEv>
    1f21:	eb b1                	jmp    1ed4 <_Z8mapWritePv+0x4f>
    1f23:	90                   	nop
    1f24:	48 8b 45 f8          	mov    -0x8(%rbp),%rax
    1f28:	64 48 33 04 25 28 00 	xor    %fs:0x28,%rax
    1f2f:	00 00 
    1f31:	74 05                	je     1f38 <_Z8mapWritePv+0xb3>
    1f33:	e8 58 fc ff ff       	callq  1b90 <__stack_chk_fail@plt>
    1f38:	c9                   	leaveq 
    1f39:	c3                   	retq   

0000000000001f3a <_Z7mapReadPv>:
    1f3a:	55                   	push   %rbp
    1f3b:	48 89 e5             	mov    %rsp,%rbp
    1f3e:	48 83 ec 50          	sub    $0x50,%rsp
    1f42:	48 89 7d b8          	mov    %rdi,-0x48(%rbp)
    1f46:	64 48 8b 04 25 28 00 	mov    %fs:0x28,%rax
    1f4d:	00 00 
    1f4f:	48 89 45 f8          	mov    %rax,-0x8(%rbp)
    1f53:	31 c0                	xor    %eax,%eax
    1f55:	48 8b 45 b8          	mov    -0x48(%rbp),%rax
    1f59:	48 89 45 e0          	mov    %rax,-0x20(%rbp)
    1f5d:	48 8b 45 e0          	mov    -0x20(%rbp),%rax
    1f61:	48 83 c0 08          	add    $0x8,%rax
    1f65:	48 89 45 e8          	mov    %rax,-0x18(%rbp)
    1f69:	48 8b 45 e8          	mov    -0x18(%rbp),%rax
    1f6d:	48 89 c7             	mov    %rax,%rdi
    1f70:	e8 3f 2b 00 00       	callq  4ab4 <_ZNSt6vectorIiSaIiEE5beginEv>
    1f75:	48 89 45 d0          	mov    %rax,-0x30(%rbp)
    1f79:	48 8b 45 e8          	mov    -0x18(%rbp),%rax
    1f7d:	48 89 c7             	mov    %rax,%rdi
    1f80:	e8 77 2b 00 00       	callq  4afc <_ZNSt6vectorIiSaIiEE3endEv>
    1f85:	48 89 45 d8          	mov    %rax,-0x28(%rbp)
    1f89:	48 8d 55 d8          	lea    -0x28(%rbp),%rdx
    1f8d:	48 8d 45 d0          	lea    -0x30(%rbp),%rax
    1f91:	48 89 d6             	mov    %rdx,%rsi
    1f94:	48 89 c7             	mov    %rax,%rdi
    1f97:	e8 ac 2b 00 00       	callq  4b48 <_ZN9__gnu_cxxneIPiSt6vectorIiSaIiEEEEbRKNS_17__normal_iteratorIT_T0_EESA_>
    1f9c:	84 c0                	test   %al,%al
    1f9e:	74 54                	je     1ff4 <_Z7mapReadPv+0xba>
    1fa0:	48 8d 45 d0          	lea    -0x30(%rbp),%rax
    1fa4:	48 89 c7             	mov    %rax,%rdi
    1fa7:	e8 f8 2b 00 00       	callq  4ba4 <_ZNK9__gnu_cxx17__normal_iteratorIPiSt6vectorIiSaIiEEEdeEv>
    1fac:	8b 00                	mov    (%rax),%eax
    1fae:	89 45 cc             	mov    %eax,-0x34(%rbp)
    1fb1:	48 8b 45 e0          	mov    -0x20(%rbp),%rax
    1fb5:	48 8b 00             	mov    (%rax),%rax
    1fb8:	8b 55 cc             	mov    -0x34(%rbp),%edx
    1fbb:	89 d6                	mov    %edx,%esi
    1fbd:	48 89 c7             	mov    %rax,%rdi
    1fc0:	e8 03 34 00 00       	callq  53c8 <_ZN9HashTableIiiE4readEi>
    1fc5:	48 8d 45 d0          	lea    -0x30(%rbp),%rax
    1fc9:	48 89 c7             	mov    %rax,%rdi
    1fcc:	e8 b3 2b 00 00       	callq  4b84 <_ZN9__gnu_cxx17__normal_iteratorIPiSt6vectorIiSaIiEEEppEv>
    1fd1:	eb b6                	jmp    1f89 <_Z7mapReadPv+0x4f>
    1fd3:	48 83 fa 01          	cmp    $0x1,%rdx
    1fd7:	74 08                	je     1fe1 <_Z7mapReadPv+0xa7>
    1fd9:	48 89 c7             	mov    %rax,%rdi
    1fdc:	e8 7f fc ff ff       	callq  1c60 <_Unwind_Resume@plt>
    1fe1:	48 89 c7             	mov    %rax,%rdi
    1fe4:	e8 77 fa ff ff       	callq  1a60 <__cxa_begin_catch@plt>
    1fe9:	48 89 45 f0          	mov    %rax,-0x10(%rbp)
    1fed:	e8 2e fc ff ff       	callq  1c20 <__cxa_end_catch@plt>
    1ff2:	eb d1                	jmp    1fc5 <_Z7mapReadPv+0x8b>
    1ff4:	90                   	nop
    1ff5:	48 8b 45 f8          	mov    -0x8(%rbp),%rax
    1ff9:	64 48 33 04 25 28 00 	xor    %fs:0x28,%rax
    2000:	00 00 
    2002:	74 05                	je     2009 <_Z7mapReadPv+0xcf>
    2004:	e8 87 fb ff ff       	callq  1b90 <__stack_chk_fail@plt>
    2009:	c9                   	leaveq 
    200a:	c3                   	retq   

000000000000200b <_Z10all_in_onePv>:
    200b:	55                   	push   %rbp
    200c:	48 89 e5             	mov    %rsp,%rbp
    200f:	48 83 ec 60          	sub    $0x60,%rsp
    2013:	48 89 7d a8          	mov    %rdi,-0x58(%rbp)
    2017:	64 48 8b 04 25 28 00 	mov    %fs:0x28,%rax
    201e:	00 00 
    2020:	48 89 45 f8          	mov    %rax,-0x8(%rbp)
    2024:	31 c0                	xor    %eax,%eax
    2026:	48 8b 45 a8          	mov    -0x58(%rbp),%rax
    202a:	48 89 45 c8          	mov    %rax,-0x38(%rbp)
    202e:	48 8b 45 c8          	mov    -0x38(%rbp),%rax
    2032:	48 83 c0 08          	add    $0x8,%rax
    2036:	48 89 45 d0          	mov    %rax,-0x30(%rbp)
    203a:	48 8b 45 d0          	mov    -0x30(%rbp),%rax
    203e:	48 89 c7             	mov    %rax,%rdi
    2041:	e8 48 2e 00 00       	callq  4e8e <_ZNSt6vectorISt4pairIiiESaIS1_EE5beginEv>
    2046:	48 89 45 b8          	mov    %rax,-0x48(%rbp)
    204a:	48 8b 45 d0          	mov    -0x30(%rbp),%rax
    204e:	48 89 c7             	mov    %rax,%rdi
    2051:	e8 80 2e 00 00       	callq  4ed6 <_ZNSt6vectorISt4pairIiiESaIS1_EE3endEv>
    2056:	48 89 45 c0          	mov    %rax,-0x40(%rbp)
    205a:	48 8d 55 c0          	lea    -0x40(%rbp),%rdx
    205e:	48 8d 45 b8          	lea    -0x48(%rbp),%rax
    2062:	48 89 d6             	mov    %rdx,%rsi
    2065:	48 89 c7             	mov    %rax,%rdi
    2068:	e8 b5 2e 00 00       	callq  4f22 <_ZN9__gnu_cxxneIPSt4pairIiiESt6vectorIS2_SaIS2_EEEEbRKNS_17__normal_iteratorIT_T0_EESC_>
    206d:	84 c0                	test   %al,%al
    206f:	74 38                	je     20a9 <_Z10all_in_onePv+0x9e>
    2071:	48 8d 45 b8          	lea    -0x48(%rbp),%rax
    2075:	48 89 c7             	mov    %rax,%rdi
    2078:	e8 01 2f 00 00       	callq  4f7e <_ZNK9__gnu_cxx17__normal_iteratorIPSt4pairIiiESt6vectorIS2_SaIS2_EEEdeEv>
    207d:	48 8b 00             	mov    (%rax),%rax
    2080:	48 89 45 f0          	mov    %rax,-0x10(%rbp)
    2084:	48 8b 45 c8          	mov    -0x38(%rbp),%rax
    2088:	48 8b 00             	mov    (%rax),%rax
    208b:	8b 55 f4             	mov    -0xc(%rbp),%edx
    208e:	8b 4d f0             	mov    -0x10(%rbp),%ecx
    2091:	89 ce                	mov    %ecx,%esi
    2093:	48 89 c7             	mov    %rax,%rdi
    2096:	e8 f5 2e 00 00       	callq  4f90 <_ZN9HashTableIiiE5writeEii>
    209b:	48 8d 45 b8          	lea    -0x48(%rbp),%rax
    209f:	48 89 c7             	mov    %rax,%rdi
    20a2:	e8 b7 2e 00 00       	callq  4f5e <_ZN9__gnu_cxx17__normal_iteratorIPSt4pairIiiESt6vectorIS2_SaIS2_EEEppEv>
    20a7:	eb b1                	jmp    205a <_Z10all_in_onePv+0x4f>
    20a9:	48 8b 45 c8          	mov    -0x38(%rbp),%rax
    20ad:	48 83 c0 38          	add    $0x38,%rax
    20b1:	48 89 45 d8          	mov    %rax,-0x28(%rbp)
    20b5:	48 8b 45 d8          	mov    -0x28(%rbp),%rax
    20b9:	48 89 c7             	mov    %rax,%rdi
    20bc:	e8 f3 29 00 00       	callq  4ab4 <_ZNSt6vectorIiSaIiEE5beginEv>
    20c1:	48 89 45 c0          	mov    %rax,-0x40(%rbp)
    20c5:	48 8b 45 d8          	mov    -0x28(%rbp),%rax
    20c9:	48 89 c7             	mov    %rax,%rdi
    20cc:	e8 2b 2a 00 00       	callq  4afc <_ZNSt6vectorIiSaIiEE3endEv>
    20d1:	48 89 45 f0          	mov    %rax,-0x10(%rbp)
    20d5:	48 8d 55 f0          	lea    -0x10(%rbp),%rdx
    20d9:	48 8d 45 c0          	lea    -0x40(%rbp),%rax
    20dd:	48 89 d6             	mov    %rdx,%rsi
    20e0:	48 89 c7             	mov    %rax,%rdi
    20e3:	e8 60 2a 00 00       	callq  4b48 <_ZN9__gnu_cxxneIPiSt6vectorIiSaIiEEEEbRKNS_17__normal_iteratorIT_T0_EESA_>
    20e8:	84 c0                	test   %al,%al
    20ea:	74 33                	je     211f <_Z10all_in_onePv+0x114>
    20ec:	48 8d 45 c0          	lea    -0x40(%rbp),%rax
    20f0:	48 89 c7             	mov    %rax,%rdi
    20f3:	e8 ac 2a 00 00       	callq  4ba4 <_ZNK9__gnu_cxx17__normal_iteratorIPiSt6vectorIiSaIiEEEdeEv>
    20f8:	8b 00                	mov    (%rax),%eax
    20fa:	89 45 b4             	mov    %eax,-0x4c(%rbp)
    20fd:	48 8b 45 c8          	mov    -0x38(%rbp),%rax
    2101:	48 8b 00             	mov    (%rax),%rax
    2104:	8b 55 b4             	mov    -0x4c(%rbp),%edx
    2107:	89 d6                	mov    %edx,%esi
    2109:	48 89 c7             	mov    %rax,%rdi
    210c:	e8 a5 2a 00 00       	callq  4bb6 <_ZN9HashTableIiiE6removeEi>
    2111:	48 8d 45 c0          	lea    -0x40(%rbp),%rax
    2115:	48 89 c7             	mov    %rax,%rdi
    2118:	e8 67 2a 00 00       	callq  4b84 <_ZN9__gnu_cxx17__normal_iteratorIPiSt6vectorIiSaIiEEEppEv>
    211d:	eb b6                	jmp    20d5 <_Z10all_in_onePv+0xca>
    211f:	48 8b 45 c8          	mov    -0x38(%rbp),%rax
    2123:	48 83 c0 20          	add    $0x20,%rax
    2127:	48 89 45 e0          	mov    %rax,-0x20(%rbp)
    212b:	48 8b 45 e0          	mov    -0x20(%rbp),%rax
    212f:	48 89 c7             	mov    %rax,%rdi
    2132:	e8 7d 29 00 00       	callq  4ab4 <_ZNSt6vectorIiSaIiEE5beginEv>
    2137:	48 89 45 c0          	mov    %rax,-0x40(%rbp)
    213b:	48 8b 45 e0          	mov    -0x20(%rbp),%rax
    213f:	48 89 c7             	mov    %rax,%rdi
    2142:	e8 b5 29 00 00       	callq  4afc <_ZNSt6vectorIiSaIiEE3endEv>
    2147:	48 89 45 f0          	mov    %rax,-0x10(%rbp)
    214b:	48 8d 55 f0          	lea    -0x10(%rbp),%rdx
    214f:	48 8d 45 c0          	lea    -0x40(%rbp),%rax
    2153:	48 89 d6             	mov    %rdx,%rsi
    2156:	48 89 c7             	mov    %rax,%rdi
    2159:	e8 ea 29 00 00       	callq  4b48 <_ZN9__gnu_cxxneIPiSt6vectorIiSaIiEEEEbRKNS_17__normal_iteratorIT_T0_EESA_>
    215e:	84 c0                	test   %al,%al
    2160:	74 33                	je     2195 <_Z10all_in_onePv+0x18a>
    2162:	48 8d 45 c0          	lea    -0x40(%rbp),%rax
    2166:	48 89 c7             	mov    %rax,%rdi
    2169:	e8 36 2a 00 00       	callq  4ba4 <_ZNK9__gnu_cxx17__normal_iteratorIPiSt6vectorIiSaIiEEEdeEv>
    216e:	8b 00                	mov    (%rax),%eax
    2170:	89 45 b0             	mov    %eax,-0x50(%rbp)
    2173:	48 8b 45 c8          	mov    -0x38(%rbp),%rax
    2177:	48 8b 00             	mov    (%rax),%rax
    217a:	8b 55 b0             	mov    -0x50(%rbp),%edx
    217d:	89 d6                	mov    %edx,%esi
    217f:	48 89 c7             	mov    %rax,%rdi
    2182:	e8 41 32 00 00       	callq  53c8 <_ZN9HashTableIiiE4readEi>
    2187:	48 8d 45 c0          	lea    -0x40(%rbp),%rax
    218b:	48 89 c7             	mov    %rax,%rdi
    218e:	e8 f1 29 00 00       	callq  4b84 <_ZN9__gnu_cxx17__normal_iteratorIPiSt6vectorIiSaIiEEEppEv>
    2193:	eb b6                	jmp    214b <_Z10all_in_onePv+0x140>
    2195:	48 8b 45 a8          	mov    -0x58(%rbp),%rax
    2199:	48 8b 4d f8          	mov    -0x8(%rbp),%rcx
    219d:	64 48 33 0c 25 28 00 	xor    %fs:0x28,%rcx
    21a4:	00 00 
    21a6:	74 28                	je     21d0 <_Z10all_in_onePv+0x1c5>
    21a8:	eb 21                	jmp    21cb <_Z10all_in_onePv+0x1c0>
    21aa:	48 83 fa 01          	cmp    $0x1,%rdx
    21ae:	74 08                	je     21b8 <_Z10all_in_onePv+0x1ad>
    21b0:	48 89 c7             	mov    %rax,%rdi
    21b3:	e8 a8 fa ff ff       	callq  1c60 <_Unwind_Resume@plt>
    21b8:	48 89 c7             	mov    %rax,%rdi
    21bb:	e8 a0 f8 ff ff       	callq  1a60 <__cxa_begin_catch@plt>
    21c0:	48 89 45 e8          	mov    %rax,-0x18(%rbp)
    21c4:	e8 57 fa ff ff       	callq  1c20 <__cxa_end_catch@plt>
    21c9:	eb bc                	jmp    2187 <_Z10all_in_onePv+0x17c>
    21cb:	e8 c0 f9 ff ff       	callq  1b90 <__stack_chk_fail@plt>
    21d0:	c9                   	leaveq 
    21d1:	c3                   	retq   

00000000000021d2 <_Z10startWritePv>:
    21d2:	55                   	push   %rbp
    21d3:	48 89 e5             	mov    %rsp,%rbp
    21d6:	48 83 ec 10          	sub    $0x10,%rsp
    21da:	48 89 7d f8          	mov    %rdi,-0x8(%rbp)
    21de:	eb 01                	jmp    21e1 <_Z10startWritePv+0xf>
    21e0:	90                   	nop
    21e1:	48 8d 3d 28 ce 20 00 	lea    0x20ce28(%rip),%rdi        # 20f010 <_ZL9not_ready>
    21e8:	e8 91 25 00 00       	callq  477e <_ZNKSt6atomicIbEcvbEv>
    21ed:	84 c0                	test   %al,%al
    21ef:	75 ef                	jne    21e0 <_Z10startWritePv+0xe>
    21f1:	48 8b 45 f8          	mov    -0x8(%rbp),%rax
    21f5:	48 89 c7             	mov    %rax,%rdi
    21f8:	e8 88 fc ff ff       	callq  1e85 <_Z8mapWritePv>
    21fd:	48 8b 45 f8          	mov    -0x8(%rbp),%rax
    2201:	c9                   	leaveq 
    2202:	c3                   	retq   

0000000000002203 <_Z9startReadPv>:
    2203:	55                   	push   %rbp
    2204:	48 89 e5             	mov    %rsp,%rbp
    2207:	48 83 ec 10          	sub    $0x10,%rsp
    220b:	48 89 7d f8          	mov    %rdi,-0x8(%rbp)
    220f:	eb 01                	jmp    2212 <_Z9startReadPv+0xf>
    2211:	90                   	nop
    2212:	48 8d 3d f7 cd 20 00 	lea    0x20cdf7(%rip),%rdi        # 20f010 <_ZL9not_ready>
    2219:	e8 60 25 00 00       	callq  477e <_ZNKSt6atomicIbEcvbEv>
    221e:	84 c0                	test   %al,%al
    2220:	75 ef                	jne    2211 <_Z9startReadPv+0xe>
    2222:	48 8b 45 f8          	mov    -0x8(%rbp),%rax
    2226:	48 89 c7             	mov    %rax,%rdi
    2229:	e8 0c fd ff ff       	callq  1f3a <_Z7mapReadPv>
    222e:	48 8b 45 f8          	mov    -0x8(%rbp),%rax
    2232:	c9                   	leaveq 
    2233:	c3                   	retq   

0000000000002234 <_Z11startDeletePv>:
    2234:	55                   	push   %rbp
    2235:	48 89 e5             	mov    %rsp,%rbp
    2238:	48 83 ec 10          	sub    $0x10,%rsp
    223c:	48 89 7d f8          	mov    %rdi,-0x8(%rbp)
    2240:	eb 01                	jmp    2243 <_Z11startDeletePv+0xf>
    2242:	90                   	nop
    2243:	48 8d 3d c6 cd 20 00 	lea    0x20cdc6(%rip),%rdi        # 20f010 <_ZL9not_ready>
    224a:	e8 2f 25 00 00       	callq  477e <_ZNKSt6atomicIbEcvbEv>
    224f:	84 c0                	test   %al,%al
    2251:	75 ef                	jne    2242 <_Z11startDeletePv+0xe>
    2253:	48 8b 45 f8          	mov    -0x8(%rbp),%rax
    2257:	48 89 c7             	mov    %rax,%rdi
    225a:	e8 76 fb ff ff       	callq  1dd5 <_Z9mapDeletePv>
    225f:	48 8b 45 f8          	mov    -0x8(%rbp),%rax
    2263:	c9                   	leaveq 
    2264:	c3                   	retq   

0000000000002265 <_Z23singlePurposeThreadTestv>:
    2265:	55                   	push   %rbp
    2266:	48 89 e5             	mov    %rsp,%rbp
    2269:	41 55                	push   %r13
    226b:	41 54                	push   %r12
    226d:	53                   	push   %rbx
    226e:	48 81 ec 58 01 00 00 	sub    $0x158,%rsp
    2275:	64 48 8b 04 25 28 00 	mov    %fs:0x28,%rax
    227c:	00 00 
    227e:	48 89 45 d8          	mov    %rax,-0x28(%rbp)
    2282:	31 c0                	xor    %eax,%eax
    2284:	c7 85 b4 fe ff ff 0a 	movl   $0xa,-0x14c(%rbp)
    228b:	00 00 00 
    228e:	c7 85 b8 fe ff ff 01 	movl   $0x1,-0x148(%rbp)
    2295:	00 00 00 
    2298:	c7 85 bc fe ff ff 00 	movl   $0x0,-0x144(%rbp)
    229f:	00 00 00 
    22a2:	c7 85 c0 fe ff ff 00 	movl   $0x0,-0x140(%rbp)
    22a9:	00 00 00 
    22ac:	c7 85 c4 fe ff ff 10 	movl   $0x2710,-0x13c(%rbp)
    22b3:	27 00 00 
    22b6:	c7 85 c8 fe ff ff 88 	movl   $0x1388,-0x138(%rbp)
    22bd:	13 00 00 
    22c0:	c7 85 cc fe ff ff 80 	movl   $0x80,-0x134(%rbp)
    22c7:	00 00 00 
    22ca:	8b 85 b8 fe ff ff    	mov    -0x148(%rbp),%eax
    22d0:	48 98                	cltq   
    22d2:	48 ba ff ff ff ff ff 	movabs $0xfffffffffffffff,%rdx
    22d9:	ff ff 0f 
    22dc:	48 39 d0             	cmp    %rdx,%rax
    22df:	77 2c                	ja     230d <_Z23singlePurposeThreadTestv+0xa8>
    22e1:	48 c1 e0 03          	shl    $0x3,%rax
    22e5:	48 89 c7             	mov    %rax,%rdi
    22e8:	e8 23 f7 ff ff       	callq  1a10 <_Znam@plt>
    22ed:	48 89 85 d0 fe ff ff 	mov    %rax,-0x130(%rbp)
    22f4:	8b 85 bc fe ff ff    	mov    -0x144(%rbp),%eax
    22fa:	48 98                	cltq   
    22fc:	48 ba ff ff ff ff ff 	movabs $0xfffffffffffffff,%rdx
    2303:	ff ff 0f 
    2306:	48 39 d0             	cmp    %rdx,%rax
    2309:	77 33                	ja     233e <_Z23singlePurposeThreadTestv+0xd9>
    230b:	eb 05                	jmp    2312 <_Z23singlePurposeThreadTestv+0xad>
    230d:	e8 ae f8 ff ff       	callq  1bc0 <__cxa_throw_bad_array_new_length@plt>
    2312:	48 c1 e0 03          	shl    $0x3,%rax
    2316:	48 89 c7             	mov    %rax,%rdi
    2319:	e8 f2 f6 ff ff       	callq  1a10 <_Znam@plt>
    231e:	48 89 85 d8 fe ff ff 	mov    %rax,-0x128(%rbp)
    2325:	8b 85 c0 fe ff ff    	mov    -0x140(%rbp),%eax
    232b:	48 98                	cltq   
    232d:	48 ba ff ff ff ff ff 	movabs $0xfffffffffffffff,%rdx
    2334:	ff ff 0f 
    2337:	48 39 d0             	cmp    %rdx,%rax
    233a:	77 34                	ja     2370 <_Z23singlePurposeThreadTestv+0x10b>
    233c:	eb 05                	jmp    2343 <_Z23singlePurposeThreadTestv+0xde>
    233e:	e8 7d f8 ff ff       	callq  1bc0 <__cxa_throw_bad_array_new_length@plt>
    2343:	48 c1 e0 03          	shl    $0x3,%rax
    2347:	48 89 c7             	mov    %rax,%rdi
    234a:	e8 c1 f6 ff ff       	callq  1a10 <_Znam@plt>
    234f:	48 89 85 e0 fe ff ff 	mov    %rax,-0x120(%rbp)
    2356:	8b 85 b8 fe ff ff    	mov    -0x148(%rbp),%eax
    235c:	48 63 d8             	movslq %eax,%rbx
    235f:	48 b8 ff ff ff ff ff 	movabs $0x3ffffffffffffff,%rax
    2366:	ff ff 03 
    2369:	48 39 c3             	cmp    %rax,%rbx
    236c:	77 14                	ja     2382 <_Z23singlePurposeThreadTestv+0x11d>
    236e:	eb 05                	jmp    2375 <_Z23singlePurposeThreadTestv+0x110>
    2370:	e8 4b f8 ff ff       	callq  1bc0 <__cxa_throw_bad_array_new_length@plt>
    2375:	48 89 d8             	mov    %rbx,%rax
    2378:	48 c1 e0 05          	shl    $0x5,%rax
    237c:	48 83 c0 08          	add    $0x8,%rax
    2380:	eb 07                	jmp    2389 <_Z23singlePurposeThreadTestv+0x124>
    2382:	48 c7 c0 ff ff ff ff 	mov    $0xffffffffffffffff,%rax
    2389:	48 89 c7             	mov    %rax,%rdi
    238c:	e8 7f f6 ff ff       	callq  1a10 <_Znam@plt>
    2391:	49 89 c4             	mov    %rax,%r12
    2394:	49 89 1c 24          	mov    %rbx,(%r12)
    2398:	49 8d 44 24 08       	lea    0x8(%r12),%rax
    239d:	48 8d 53 ff          	lea    -0x1(%rbx),%rdx
    23a1:	48 89 d3             	mov    %rdx,%rbx
    23a4:	49 89 c5             	mov    %rax,%r13
    23a7:	48 85 db             	test   %rbx,%rbx
    23aa:	78 12                	js     23be <_Z23singlePurposeThreadTestv+0x159>
    23ac:	4c 89 ef             	mov    %r13,%rdi
    23af:	e8 6c 24 00 00       	callq  4820 <_ZN6w_dataC1Ev>
    23b4:	49 83 c5 20          	add    $0x20,%r13
    23b8:	48 83 eb 01          	sub    $0x1,%rbx
    23bc:	eb e9                	jmp    23a7 <_Z23singlePurposeThreadTestv+0x142>
    23be:	49 8d 44 24 08       	lea    0x8(%r12),%rax
    23c3:	48 89 85 e8 fe ff ff 	mov    %rax,-0x118(%rbp)
    23ca:	8b 85 bc fe ff ff    	mov    -0x144(%rbp),%eax
    23d0:	48 63 d8             	movslq %eax,%rbx
    23d3:	48 b8 ff ff ff ff ff 	movabs $0x3ffffffffffffff,%rax
    23da:	ff ff 03 
    23dd:	48 39 c3             	cmp    %rax,%rbx
    23e0:	77 0d                	ja     23ef <_Z23singlePurposeThreadTestv+0x18a>
    23e2:	48 89 d8             	mov    %rbx,%rax
    23e5:	48 c1 e0 05          	shl    $0x5,%rax
    23e9:	48 83 c0 08          	add    $0x8,%rax
    23ed:	eb 07                	jmp    23f6 <_Z23singlePurposeThreadTestv+0x191>
    23ef:	48 c7 c0 ff ff ff ff 	mov    $0xffffffffffffffff,%rax
    23f6:	48 89 c7             	mov    %rax,%rdi
    23f9:	e8 12 f6 ff ff       	callq  1a10 <_Znam@plt>
    23fe:	49 89 c4             	mov    %rax,%r12
    2401:	49 89 1c 24          	mov    %rbx,(%r12)
    2405:	49 8d 44 24 08       	lea    0x8(%r12),%rax
    240a:	48 8d 53 ff          	lea    -0x1(%rbx),%rdx
    240e:	48 89 d3             	mov    %rdx,%rbx
    2411:	49 89 c5             	mov    %rax,%r13
    2414:	48 85 db             	test   %rbx,%rbx
    2417:	78 12                	js     242b <_Z23singlePurposeThreadTestv+0x1c6>
    2419:	4c 89 ef             	mov    %r13,%rdi
    241c:	e8 93 24 00 00       	callq  48b4 <_ZN6r_dataC1Ev>
    2421:	49 83 c5 20          	add    $0x20,%r13
    2425:	48 83 eb 01          	sub    $0x1,%rbx
    2429:	eb e9                	jmp    2414 <_Z23singlePurposeThreadTestv+0x1af>
    242b:	49 8d 44 24 08       	lea    0x8(%r12),%rax
    2430:	48 89 85 f0 fe ff ff 	mov    %rax,-0x110(%rbp)
    2437:	8b 85 c0 fe ff ff    	mov    -0x140(%rbp),%eax
    243d:	48 63 d8             	movslq %eax,%rbx
    2440:	48 b8 ff ff ff ff ff 	movabs $0x3ffffffffffffff,%rax
    2447:	ff ff 03 
    244a:	48 39 c3             	cmp    %rax,%rbx
    244d:	77 0d                	ja     245c <_Z23singlePurposeThreadTestv+0x1f7>
    244f:	48 89 d8             	mov    %rbx,%rax
    2452:	48 c1 e0 05          	shl    $0x5,%rax
    2456:	48 83 c0 08          	add    $0x8,%rax
    245a:	eb 07                	jmp    2463 <_Z23singlePurposeThreadTestv+0x1fe>
    245c:	48 c7 c0 ff ff ff ff 	mov    $0xffffffffffffffff,%rax
    2463:	48 89 c7             	mov    %rax,%rdi
    2466:	e8 a5 f5 ff ff       	callq  1a10 <_Znam@plt>
    246b:	49 89 c4             	mov    %rax,%r12
    246e:	49 89 1c 24          	mov    %rbx,(%r12)
    2472:	49 8d 44 24 08       	lea    0x8(%r12),%rax
    2477:	48 8d 53 ff          	lea    -0x1(%rbx),%rdx
    247b:	48 89 d3             	mov    %rdx,%rbx
    247e:	49 89 c5             	mov    %rax,%r13
    2481:	48 85 db             	test   %rbx,%rbx
    2484:	78 12                	js     2498 <_Z23singlePurposeThreadTestv+0x233>
    2486:	4c 89 ef             	mov    %r13,%rdi
    2489:	e8 66 24 00 00       	callq  48f4 <_ZN6d_dataC1Ev>
    248e:	49 83 c5 20          	add    $0x20,%r13
    2492:	48 83 eb 01          	sub    $0x1,%rbx
    2496:	eb e9                	jmp    2481 <_Z23singlePurposeThreadTestv+0x21c>
    2498:	49 8d 44 24 08       	lea    0x8(%r12),%rax
    249d:	48 89 85 f8 fe ff ff 	mov    %rax,-0x108(%rbp)
    24a4:	8b 85 cc fe ff ff    	mov    -0x134(%rbp),%eax
    24aa:	48 63 d0             	movslq %eax,%rdx
    24ad:	48 8d 85 60 ff ff ff 	lea    -0xa0(%rbp),%rax
    24b4:	48 89 d6             	mov    %rdx,%rsi
    24b7:	48 89 c7             	mov    %rax,%rdi
    24ba:	e8 f3 33 00 00       	callq  58b2 <_ZN9HashTableIiiEC1Em>
    24bf:	c7 85 a4 fe ff ff 00 	movl   $0x0,-0x15c(%rbp)
    24c6:	00 00 00 
    24c9:	8b 85 a4 fe ff ff    	mov    -0x15c(%rbp),%eax
    24cf:	3b 85 b8 fe ff ff    	cmp    -0x148(%rbp),%eax
    24d5:	7d 2c                	jge    2503 <_Z23singlePurposeThreadTestv+0x29e>
    24d7:	8b 85 a4 fe ff ff    	mov    -0x15c(%rbp),%eax
    24dd:	48 98                	cltq   
    24df:	48 c1 e0 05          	shl    $0x5,%rax
    24e3:	48 89 c2             	mov    %rax,%rdx
    24e6:	48 8b 85 e8 fe ff ff 	mov    -0x118(%rbp),%rax
    24ed:	48 01 c2             	add    %rax,%rdx
    24f0:	48 8d 85 60 ff ff ff 	lea    -0xa0(%rbp),%rax
    24f7:	48 89 02             	mov    %rax,(%rdx)
    24fa:	83 85 a4 fe ff ff 01 	addl   $0x1,-0x15c(%rbp)
    2501:	eb c6                	jmp    24c9 <_Z23singlePurposeThreadTestv+0x264>
    2503:	c7 85 a4 fe ff ff 00 	movl   $0x0,-0x15c(%rbp)
    250a:	00 00 00 
    250d:	8b 85 a4 fe ff ff    	mov    -0x15c(%rbp),%eax
    2513:	3b 85 bc fe ff ff    	cmp    -0x144(%rbp),%eax
    2519:	7d 2c                	jge    2547 <_Z23singlePurposeThreadTestv+0x2e2>
    251b:	8b 85 a4 fe ff ff    	mov    -0x15c(%rbp),%eax
    2521:	48 98                	cltq   
    2523:	48 c1 e0 05          	shl    $0x5,%rax
    2527:	48 89 c2             	mov    %rax,%rdx
    252a:	48 8b 85 f0 fe ff ff 	mov    -0x110(%rbp),%rax
    2531:	48 01 c2             	add    %rax,%rdx
    2534:	48 8d 85 60 ff ff ff 	lea    -0xa0(%rbp),%rax
    253b:	48 89 02             	mov    %rax,(%rdx)
    253e:	83 85 a4 fe ff ff 01 	addl   $0x1,-0x15c(%rbp)
    2545:	eb c6                	jmp    250d <_Z23singlePurposeThreadTestv+0x2a8>
    2547:	c7 85 a4 fe ff ff 00 	movl   $0x0,-0x15c(%rbp)
    254e:	00 00 00 
    2551:	8b 85 a4 fe ff ff    	mov    -0x15c(%rbp),%eax
    2557:	3b 85 c0 fe ff ff    	cmp    -0x140(%rbp),%eax
    255d:	7d 2c                	jge    258b <_Z23singlePurposeThreadTestv+0x326>
    255f:	8b 85 a4 fe ff ff    	mov    -0x15c(%rbp),%eax
    2565:	48 98                	cltq   
    2567:	48 c1 e0 05          	shl    $0x5,%rax
    256b:	48 89 c2             	mov    %rax,%rdx
    256e:	48 8b 85 f8 fe ff ff 	mov    -0x108(%rbp),%rax
    2575:	48 01 c2             	add    %rax,%rdx
    2578:	48 8d 85 60 ff ff ff 	lea    -0xa0(%rbp),%rax
    257f:	48 89 02             	mov    %rax,(%rdx)
    2582:	83 85 a4 fe ff ff 01 	addl   $0x1,-0x15c(%rbp)
    2589:	eb c6                	jmp    2551 <_Z23singlePurposeThreadTestv+0x2ec>
    258b:	48 8d 85 40 ff ff ff 	lea    -0xc0(%rbp),%rax
    2592:	48 89 c7             	mov    %rax,%rdi
    2595:	e8 6a 22 00 00       	callq  4804 <_ZNSt6vectorISt4pairIiiESaIS1_EEC1Ev>
    259a:	c7 85 a4 fe ff ff 00 	movl   $0x0,-0x15c(%rbp)
    25a1:	00 00 00 
    25a4:	8b 85 a4 fe ff ff    	mov    -0x15c(%rbp),%eax
    25aa:	3b 85 b8 fe ff ff    	cmp    -0x148(%rbp),%eax
    25b0:	0f 8d d2 00 00 00    	jge    2688 <_Z23singlePurposeThreadTestv+0x423>
    25b6:	c7 85 a8 fe ff ff 00 	movl   $0x0,-0x158(%rbp)
    25bd:	00 00 00 
    25c0:	8b 85 a8 fe ff ff    	mov    -0x158(%rbp),%eax
    25c6:	3b 85 c4 fe ff ff    	cmp    -0x13c(%rbp),%eax
    25cc:	0f 8d aa 00 00 00    	jge    267c <_Z23singlePurposeThreadTestv+0x417>
    25d2:	e8 59 f4 ff ff       	callq  1a30 <rand@plt>
    25d7:	89 85 9c fe ff ff    	mov    %eax,-0x164(%rbp)
    25dd:	e8 4e f4 ff ff       	callq  1a30 <rand@plt>
    25e2:	89 85 a0 fe ff ff    	mov    %eax,-0x160(%rbp)
    25e8:	8b 85 a4 fe ff ff    	mov    -0x15c(%rbp),%eax
    25ee:	48 98                	cltq   
    25f0:	48 c1 e0 05          	shl    $0x5,%rax
    25f4:	48 89 c2             	mov    %rax,%rdx
    25f7:	48 8b 85 e8 fe ff ff 	mov    -0x118(%rbp),%rax
    25fe:	48 01 d0             	add    %rdx,%rax
    2601:	48 8d 58 08          	lea    0x8(%rax),%rbx
    2605:	48 8d 95 9c fe ff ff 	lea    -0x164(%rbp),%rdx
    260c:	48 8d 85 a0 fe ff ff 	lea    -0x160(%rbp),%rax
    2613:	48 89 d6             	mov    %rdx,%rsi
    2616:	48 89 c7             	mov    %rax,%rdi
    2619:	e8 97 35 00 00       	callq  5bb5 <_ZSt9make_pairIRiS0_ESt4pairINSt17__decay_and_stripIT_E6__typeENS2_IT0_E6__typeEEOS3_OS6_>
    261e:	48 89 85 30 ff ff ff 	mov    %rax,-0xd0(%rbp)
    2625:	48 8d 85 30 ff ff ff 	lea    -0xd0(%rbp),%rax
    262c:	48 89 c6             	mov    %rax,%rsi
    262f:	48 89 df             	mov    %rbx,%rdi
    2632:	e8 ed 35 00 00       	callq  5c24 <_ZNSt6vectorISt4pairIiiESaIS1_EE9push_backEOS1_>
    2637:	48 8d 95 9c fe ff ff 	lea    -0x164(%rbp),%rdx
    263e:	48 8d 85 a0 fe ff ff 	lea    -0x160(%rbp),%rax
    2645:	48 89 d6             	mov    %rdx,%rsi
    2648:	48 89 c7             	mov    %rax,%rdi
    264b:	e8 65 35 00 00       	callq  5bb5 <_ZSt9make_pairIRiS0_ESt4pairINSt17__decay_and_stripIT_E6__typeENS2_IT0_E6__typeEEOS3_OS6_>
    2650:	48 89 85 30 ff ff ff 	mov    %rax,-0xd0(%rbp)
    2657:	48 8d 95 30 ff ff ff 	lea    -0xd0(%rbp),%rdx
    265e:	48 8d 85 40 ff ff ff 	lea    -0xc0(%rbp),%rax
    2665:	48 89 d6             	mov    %rdx,%rsi
    2668:	48 89 c7             	mov    %rax,%rdi
    266b:	e8 b4 35 00 00       	callq  5c24 <_ZNSt6vectorISt4pairIiiESaIS1_EE9push_backEOS1_>
    2670:	83 85 a8 fe ff ff 01 	addl   $0x1,-0x158(%rbp)
    2677:	e9 44 ff ff ff       	jmpq   25c0 <_Z23singlePurposeThreadTestv+0x35b>
    267c:	83 85 a4 fe ff ff 01 	addl   $0x1,-0x15c(%rbp)
    2683:	e9 1c ff ff ff       	jmpq   25a4 <_Z23singlePurposeThreadTestv+0x33f>
    2688:	c7 85 a4 fe ff ff 00 	movl   $0x0,-0x15c(%rbp)
    268f:	00 00 00 
    2692:	8b 85 a4 fe ff ff    	mov    -0x15c(%rbp),%eax
    2698:	3b 85 c8 fe ff ff    	cmp    -0x138(%rbp),%eax
    269e:	7d 78                	jge    2718 <_Z23singlePurposeThreadTestv+0x4b3>
    26a0:	e8 8b f3 ff ff       	callq  1a30 <rand@plt>
    26a5:	89 85 9c fe ff ff    	mov    %eax,-0x164(%rbp)
    26ab:	e8 80 f3 ff ff       	callq  1a30 <rand@plt>
    26b0:	89 85 a0 fe ff ff    	mov    %eax,-0x160(%rbp)
    26b6:	48 8d 95 9c fe ff ff 	lea    -0x164(%rbp),%rdx
    26bd:	48 8d 85 a0 fe ff ff 	lea    -0x160(%rbp),%rax
    26c4:	48 89 d6             	mov    %rdx,%rsi
    26c7:	48 89 c7             	mov    %rax,%rdi
    26ca:	e8 e6 34 00 00       	callq  5bb5 <_ZSt9make_pairIRiS0_ESt4pairINSt17__decay_and_stripIT_E6__typeENS2_IT0_E6__typeEEOS3_OS6_>
    26cf:	48 89 85 30 ff ff ff 	mov    %rax,-0xd0(%rbp)
    26d6:	48 8d 95 30 ff ff ff 	lea    -0xd0(%rbp),%rdx
    26dd:	48 8d 85 40 ff ff ff 	lea    -0xc0(%rbp),%rax
    26e4:	48 89 d6             	mov    %rdx,%rsi
    26e7:	48 89 c7             	mov    %rax,%rdi
    26ea:	e8 35 35 00 00       	callq  5c24 <_ZNSt6vectorISt4pairIiiESaIS1_EE9push_backEOS1_>
    26ef:	8b 95 9c fe ff ff    	mov    -0x164(%rbp),%edx
    26f5:	8b 8d a0 fe ff ff    	mov    -0x160(%rbp),%ecx
    26fb:	48 8d 85 60 ff ff ff 	lea    -0xa0(%rbp),%rax
    2702:	89 ce                	mov    %ecx,%esi
    2704:	48 89 c7             	mov    %rax,%rdi
    2707:	e8 84 28 00 00       	callq  4f90 <_ZN9HashTableIiiE5writeEii>
    270c:	83 85 a4 fe ff ff 01 	addl   $0x1,-0x15c(%rbp)
    2713:	e9 7a ff ff ff       	jmpq   2692 <_Z23singlePurposeThreadTestv+0x42d>
    2718:	c7 85 a4 fe ff ff 00 	movl   $0x0,-0x15c(%rbp)
    271f:	00 00 00 
    2722:	c7 85 ac fe ff ff 00 	movl   $0x0,-0x154(%rbp)
    2729:	00 00 00 
    272c:	eb 01                	jmp    272f <_Z23singlePurposeThreadTestv+0x4ca>
    272e:	90                   	nop
    272f:	8b 85 c4 fe ff ff    	mov    -0x13c(%rbp),%eax
    2735:	0f af 85 bc fe ff ff 	imul   -0x144(%rbp),%eax
    273c:	39 85 ac fe ff ff    	cmp    %eax,-0x154(%rbp)
    2742:	0f 8d f4 00 00 00    	jge    283c <_Z23singlePurposeThreadTestv+0x5d7>
    2748:	48 8d 85 40 ff ff ff 	lea    -0xc0(%rbp),%rax
    274f:	48 89 85 00 ff ff ff 	mov    %rax,-0x100(%rbp)
    2756:	48 8b 85 00 ff ff ff 	mov    -0x100(%rbp),%rax
    275d:	48 89 c7             	mov    %rax,%rdi
    2760:	e8 29 27 00 00       	callq  4e8e <_ZNSt6vectorISt4pairIiiESaIS1_EE5beginEv>
    2765:	48 89 85 10 ff ff ff 	mov    %rax,-0xf0(%rbp)
    276c:	48 8b 85 00 ff ff ff 	mov    -0x100(%rbp),%rax
    2773:	48 89 c7             	mov    %rax,%rdi
    2776:	e8 5b 27 00 00       	callq  4ed6 <_ZNSt6vectorISt4pairIiiESaIS1_EE3endEv>
    277b:	48 89 85 20 ff ff ff 	mov    %rax,-0xe0(%rbp)
    2782:	48 8d 95 20 ff ff ff 	lea    -0xe0(%rbp),%rdx
    2789:	48 8d 85 10 ff ff ff 	lea    -0xf0(%rbp),%rax
    2790:	48 89 d6             	mov    %rdx,%rsi
    2793:	48 89 c7             	mov    %rax,%rdi
    2796:	e8 87 27 00 00       	callq  4f22 <_ZN9__gnu_cxxneIPSt4pairIiiESt6vectorIS2_SaIS2_EEEEbRKNS_17__normal_iteratorIT_T0_EESC_>
    279b:	84 c0                	test   %al,%al
    279d:	74 8f                	je     272e <_Z23singlePurposeThreadTestv+0x4c9>
    279f:	48 8d 85 10 ff ff ff 	lea    -0xf0(%rbp),%rax
    27a6:	48 89 c7             	mov    %rax,%rdi
    27a9:	e8 d0 27 00 00       	callq  4f7e <_ZNK9__gnu_cxx17__normal_iteratorIPSt4pairIiiESt6vectorIS2_SaIS2_EEEdeEv>
    27ae:	48 8b 00             	mov    (%rax),%rax
    27b1:	48 89 85 30 ff ff ff 	mov    %rax,-0xd0(%rbp)
    27b8:	8b 85 a4 fe ff ff    	mov    -0x15c(%rbp),%eax
    27be:	48 98                	cltq   
    27c0:	48 c1 e0 05          	shl    $0x5,%rax
    27c4:	48 89 c2             	mov    %rax,%rdx
    27c7:	48 8b 85 f0 fe ff ff 	mov    -0x110(%rbp),%rax
    27ce:	48 01 d0             	add    %rdx,%rax
    27d1:	48 8d 50 08          	lea    0x8(%rax),%rdx
    27d5:	48 8d 85 30 ff ff ff 	lea    -0xd0(%rbp),%rax
    27dc:	48 89 c6             	mov    %rax,%rsi
    27df:	48 89 d7             	mov    %rdx,%rdi
    27e2:	e8 6f 34 00 00       	callq  5c56 <_ZNSt6vectorIiSaIiEE9push_backERKi>
    27e7:	83 85 a4 fe ff ff 01 	addl   $0x1,-0x15c(%rbp)
    27ee:	83 85 ac fe ff ff 01 	addl   $0x1,-0x154(%rbp)
    27f5:	8b 85 a4 fe ff ff    	mov    -0x15c(%rbp),%eax
    27fb:	3b 85 bc fe ff ff    	cmp    -0x144(%rbp),%eax
    2801:	75 0a                	jne    280d <_Z23singlePurposeThreadTestv+0x5a8>
    2803:	c7 85 a4 fe ff ff 00 	movl   $0x0,-0x15c(%rbp)
    280a:	00 00 00 
    280d:	8b 85 c4 fe ff ff    	mov    -0x13c(%rbp),%eax
    2813:	0f af 85 bc fe ff ff 	imul   -0x144(%rbp),%eax
    281a:	39 85 ac fe ff ff    	cmp    %eax,-0x154(%rbp)
    2820:	7f 14                	jg     2836 <_Z23singlePurposeThreadTestv+0x5d1>
    2822:	48 8d 85 10 ff ff ff 	lea    -0xf0(%rbp),%rax
    2829:	48 89 c7             	mov    %rax,%rdi
    282c:	e8 2d 27 00 00       	callq  4f5e <_ZN9__gnu_cxx17__normal_iteratorIPSt4pairIiiESt6vectorIS2_SaIS2_EEEppEv>
    2831:	e9 4c ff ff ff       	jmpq   2782 <_Z23singlePurposeThreadTestv+0x51d>
    2836:	90                   	nop
    2837:	e9 f2 fe ff ff       	jmpq   272e <_Z23singlePurposeThreadTestv+0x4c9>
    283c:	c7 85 a4 fe ff ff 00 	movl   $0x0,-0x15c(%rbp)
    2843:	00 00 00 
    2846:	8b 85 a4 fe ff ff    	mov    -0x15c(%rbp),%eax
    284c:	3b 85 c0 fe ff ff    	cmp    -0x140(%rbp),%eax
    2852:	0f 8d 92 00 00 00    	jge    28ea <_Z23singlePurposeThreadTestv+0x685>
    2858:	c7 85 b0 fe ff ff 00 	movl   $0x0,-0x150(%rbp)
    285f:	00 00 00 
    2862:	8b 85 b0 fe ff ff    	mov    -0x150(%rbp),%eax
    2868:	3b 85 c4 fe ff ff    	cmp    -0x13c(%rbp),%eax
    286e:	7d 6e                	jge    28de <_Z23singlePurposeThreadTestv+0x679>
    2870:	8b 85 a4 fe ff ff    	mov    -0x15c(%rbp),%eax
    2876:	48 98                	cltq   
    2878:	48 c1 e0 05          	shl    $0x5,%rax
    287c:	48 89 c2             	mov    %rax,%rdx
    287f:	48 8b 85 f8 fe ff ff 	mov    -0x108(%rbp),%rax
    2886:	48 01 d0             	add    %rdx,%rax
    2889:	48 8d 58 08          	lea    0x8(%rax),%rbx
    288d:	e8 9e f1 ff ff       	callq  1a30 <rand@plt>
    2892:	4c 63 e0             	movslq %eax,%r12
    2895:	48 8d 85 40 ff ff ff 	lea    -0xc0(%rbp),%rax
    289c:	48 89 c7             	mov    %rax,%rdi
    289f:	e8 2e 34 00 00       	callq  5cd2 <_ZNKSt6vectorISt4pairIiiESaIS1_EE4sizeEv>
    28a4:	48 89 c1             	mov    %rax,%rcx
    28a7:	4c 89 e0             	mov    %r12,%rax
    28aa:	ba 00 00 00 00       	mov    $0x0,%edx
    28af:	48 f7 f1             	div    %rcx
    28b2:	48 89 d1             	mov    %rdx,%rcx
    28b5:	48 89 ca             	mov    %rcx,%rdx
    28b8:	48 8d 85 40 ff ff ff 	lea    -0xc0(%rbp),%rax
    28bf:	48 89 d6             	mov    %rdx,%rsi
    28c2:	48 89 c7             	mov    %rax,%rdi
    28c5:	e8 2c 34 00 00       	callq  5cf6 <_ZNSt6vectorISt4pairIiiESaIS1_EEixEm>
    28ca:	48 89 c6             	mov    %rax,%rsi
    28cd:	48 89 df             	mov    %rbx,%rdi
    28d0:	e8 81 33 00 00       	callq  5c56 <_ZNSt6vectorIiSaIiEE9push_backERKi>
    28d5:	83 85 b0 fe ff ff 01 	addl   $0x1,-0x150(%rbp)
    28dc:	eb 84                	jmp    2862 <_Z23singlePurposeThreadTestv+0x5fd>
    28de:	83 85 a4 fe ff ff 01 	addl   $0x1,-0x15c(%rbp)
    28e5:	e9 5c ff ff ff       	jmpq   2846 <_Z23singlePurposeThreadTestv+0x5e1>
    28ea:	c7 85 a4 fe ff ff 00 	movl   $0x0,-0x15c(%rbp)
    28f1:	00 00 00 
    28f4:	8b 85 a4 fe ff ff    	mov    -0x15c(%rbp),%eax
    28fa:	3b 85 b8 fe ff ff    	cmp    -0x148(%rbp),%eax
    2900:	7d 53                	jge    2955 <_Z23singlePurposeThreadTestv+0x6f0>
    2902:	8b 85 a4 fe ff ff    	mov    -0x15c(%rbp),%eax
    2908:	48 98                	cltq   
    290a:	48 c1 e0 05          	shl    $0x5,%rax
    290e:	48 89 c2             	mov    %rax,%rdx
    2911:	48 8b 85 e8 fe ff ff 	mov    -0x118(%rbp),%rax
    2918:	48 01 c2             	add    %rax,%rdx
    291b:	8b 85 a4 fe ff ff    	mov    -0x15c(%rbp),%eax
    2921:	48 98                	cltq   
    2923:	48 8d 0c c5 00 00 00 	lea    0x0(,%rax,8),%rcx
    292a:	00 
    292b:	48 8b 85 d0 fe ff ff 	mov    -0x130(%rbp),%rax
    2932:	48 01 c8             	add    %rcx,%rax
    2935:	48 89 d1             	mov    %rdx,%rcx
    2938:	48 8d 15 93 f8 ff ff 	lea    -0x76d(%rip),%rdx        # 21d2 <_Z10startWritePv>
    293f:	be 00 00 00 00       	mov    $0x0,%esi
    2944:	48 89 c7             	mov    %rax,%rdi
    2947:	e8 7c f3 ff ff       	callq  1cc8 <pthread_create@plt>
    294c:	83 85 a4 fe ff ff 01 	addl   $0x1,-0x15c(%rbp)
    2953:	eb 9f                	jmp    28f4 <_Z23singlePurposeThreadTestv+0x68f>
    2955:	c7 85 a4 fe ff ff 00 	movl   $0x0,-0x15c(%rbp)
    295c:	00 00 00 
    295f:	8b 85 a4 fe ff ff    	mov    -0x15c(%rbp),%eax
    2965:	3b 85 bc fe ff ff    	cmp    -0x144(%rbp),%eax
    296b:	7d 53                	jge    29c0 <_Z23singlePurposeThreadTestv+0x75b>
    296d:	8b 85 a4 fe ff ff    	mov    -0x15c(%rbp),%eax
    2973:	48 98                	cltq   
    2975:	48 c1 e0 05          	shl    $0x5,%rax
    2979:	48 89 c2             	mov    %rax,%rdx
    297c:	48 8b 85 f0 fe ff ff 	mov    -0x110(%rbp),%rax
    2983:	48 01 c2             	add    %rax,%rdx
    2986:	8b 85 a4 fe ff ff    	mov    -0x15c(%rbp),%eax
    298c:	48 98                	cltq   
    298e:	48 8d 0c c5 00 00 00 	lea    0x0(,%rax,8),%rcx
    2995:	00 
    2996:	48 8b 85 d8 fe ff ff 	mov    -0x128(%rbp),%rax
    299d:	48 01 c8             	add    %rcx,%rax
    29a0:	48 89 d1             	mov    %rdx,%rcx
    29a3:	48 8d 15 59 f8 ff ff 	lea    -0x7a7(%rip),%rdx        # 2203 <_Z9startReadPv>
    29aa:	be 00 00 00 00       	mov    $0x0,%esi
    29af:	48 89 c7             	mov    %rax,%rdi
    29b2:	e8 11 f3 ff ff       	callq  1cc8 <pthread_create@plt>
    29b7:	83 85 a4 fe ff ff 01 	addl   $0x1,-0x15c(%rbp)
    29be:	eb 9f                	jmp    295f <_Z23singlePurposeThreadTestv+0x6fa>
    29c0:	c7 85 a4 fe ff ff 00 	movl   $0x0,-0x15c(%rbp)
    29c7:	00 00 00 
    29ca:	8b 85 a4 fe ff ff    	mov    -0x15c(%rbp),%eax
    29d0:	3b 85 c0 fe ff ff    	cmp    -0x140(%rbp),%eax
    29d6:	7d 53                	jge    2a2b <_Z23singlePurposeThreadTestv+0x7c6>
    29d8:	8b 85 a4 fe ff ff    	mov    -0x15c(%rbp),%eax
    29de:	48 98                	cltq   
    29e0:	48 c1 e0 05          	shl    $0x5,%rax
    29e4:	48 89 c2             	mov    %rax,%rdx
    29e7:	48 8b 85 f8 fe ff ff 	mov    -0x108(%rbp),%rax
    29ee:	48 01 c2             	add    %rax,%rdx
    29f1:	8b 85 a4 fe ff ff    	mov    -0x15c(%rbp),%eax
    29f7:	48 98                	cltq   
    29f9:	48 8d 0c c5 00 00 00 	lea    0x0(,%rax,8),%rcx
    2a00:	00 
    2a01:	48 8b 85 e0 fe ff ff 	mov    -0x120(%rbp),%rax
    2a08:	48 01 c8             	add    %rcx,%rax
    2a0b:	48 89 d1             	mov    %rdx,%rcx
    2a0e:	48 8d 15 1f f8 ff ff 	lea    -0x7e1(%rip),%rdx        # 2234 <_Z11startDeletePv>
    2a15:	be 00 00 00 00       	mov    $0x0,%esi
    2a1a:	48 89 c7             	mov    %rax,%rdi
    2a1d:	e8 a6 f2 ff ff       	callq  1cc8 <pthread_create@plt>
    2a22:	83 85 a4 fe ff ff 01 	addl   $0x1,-0x15c(%rbp)
    2a29:	eb 9f                	jmp    29ca <_Z23singlePurposeThreadTestv+0x765>
    2a2b:	48 8d 85 10 ff ff ff 	lea    -0xf0(%rbp),%rax
    2a32:	48 89 c6             	mov    %rax,%rsi
    2a35:	bf 00 00 00 00       	mov    $0x0,%edi
    2a3a:	e8 f1 f0 ff ff       	callq  1b30 <clock_gettime@plt>
    2a3f:	be 00 00 00 00       	mov    $0x0,%esi
    2a44:	48 8d 3d c5 c5 20 00 	lea    0x20c5c5(%rip),%rdi        # 20f010 <_ZL9not_ready>
    2a4b:	e8 08 1d 00 00       	callq  4758 <_ZNSt6atomicIbEaSEb>
    2a50:	c7 85 a4 fe ff ff 00 	movl   $0x0,-0x15c(%rbp)
    2a57:	00 00 00 
    2a5a:	8b 85 a4 fe ff ff    	mov    -0x15c(%rbp),%eax
    2a60:	3b 85 b8 fe ff ff    	cmp    -0x148(%rbp),%eax
    2a66:	7d 33                	jge    2a9b <_Z23singlePurposeThreadTestv+0x836>
    2a68:	8b 85 a4 fe ff ff    	mov    -0x15c(%rbp),%eax
    2a6e:	48 98                	cltq   
    2a70:	48 8d 14 c5 00 00 00 	lea    0x0(,%rax,8),%rdx
    2a77:	00 
    2a78:	48 8b 85 d0 fe ff ff 	mov    -0x130(%rbp),%rax
    2a7f:	48 01 d0             	add    %rdx,%rax
    2a82:	48 8b 00             	mov    (%rax),%rax
    2a85:	be 00 00 00 00       	mov    $0x0,%esi
    2a8a:	48 89 c7             	mov    %rax,%rdi
    2a8d:	e8 0e f0 ff ff       	callq  1aa0 <pthread_join@plt>
    2a92:	83 85 a4 fe ff ff 01 	addl   $0x1,-0x15c(%rbp)
    2a99:	eb bf                	jmp    2a5a <_Z23singlePurposeThreadTestv+0x7f5>
    2a9b:	c7 85 a4 fe ff ff 00 	movl   $0x0,-0x15c(%rbp)
    2aa2:	00 00 00 
    2aa5:	8b 85 a4 fe ff ff    	mov    -0x15c(%rbp),%eax
    2aab:	3b 85 bc fe ff ff    	cmp    -0x144(%rbp),%eax
    2ab1:	7d 33                	jge    2ae6 <_Z23singlePurposeThreadTestv+0x881>
    2ab3:	8b 85 a4 fe ff ff    	mov    -0x15c(%rbp),%eax
    2ab9:	48 98                	cltq   
    2abb:	48 8d 14 c5 00 00 00 	lea    0x0(,%rax,8),%rdx
    2ac2:	00 
    2ac3:	48 8b 85 d8 fe ff ff 	mov    -0x128(%rbp),%rax
    2aca:	48 01 d0             	add    %rdx,%rax
    2acd:	48 8b 00             	mov    (%rax),%rax
    2ad0:	be 00 00 00 00       	mov    $0x0,%esi
    2ad5:	48 89 c7             	mov    %rax,%rdi
    2ad8:	e8 c3 ef ff ff       	callq  1aa0 <pthread_join@plt>
    2add:	83 85 a4 fe ff ff 01 	addl   $0x1,-0x15c(%rbp)
    2ae4:	eb bf                	jmp    2aa5 <_Z23singlePurposeThreadTestv+0x840>
    2ae6:	c7 85 a4 fe ff ff 00 	movl   $0x0,-0x15c(%rbp)
    2aed:	00 00 00 
    2af0:	8b 85 a4 fe ff ff    	mov    -0x15c(%rbp),%eax
    2af6:	3b 85 c0 fe ff ff    	cmp    -0x140(%rbp),%eax
    2afc:	7d 33                	jge    2b31 <_Z23singlePurposeThreadTestv+0x8cc>
    2afe:	8b 85 a4 fe ff ff    	mov    -0x15c(%rbp),%eax
    2b04:	48 98                	cltq   
    2b06:	48 8d 14 c5 00 00 00 	lea    0x0(,%rax,8),%rdx
    2b0d:	00 
    2b0e:	48 8b 85 e0 fe ff ff 	mov    -0x120(%rbp),%rax
    2b15:	48 01 d0             	add    %rdx,%rax
    2b18:	48 8b 00             	mov    (%rax),%rax
    2b1b:	be 00 00 00 00       	mov    $0x0,%esi
    2b20:	48 89 c7             	mov    %rax,%rdi
    2b23:	e8 78 ef ff ff       	callq  1aa0 <pthread_join@plt>
    2b28:	83 85 a4 fe ff ff 01 	addl   $0x1,-0x15c(%rbp)
    2b2f:	eb bf                	jmp    2af0 <_Z23singlePurposeThreadTestv+0x88b>
    2b31:	48 8d 85 20 ff ff ff 	lea    -0xe0(%rbp),%rax
    2b38:	48 89 c6             	mov    %rax,%rsi
    2b3b:	bf 00 00 00 00       	mov    $0x0,%edi
    2b40:	e8 eb ef ff ff       	callq  1b30 <clock_gettime@plt>
    2b45:	48 8b 95 28 ff ff ff 	mov    -0xd8(%rbp),%rdx
    2b4c:	48 8b 85 18 ff ff ff 	mov    -0xe8(%rbp),%rax
    2b53:	48 29 c2             	sub    %rax,%rdx
    2b56:	48 89 d0             	mov    %rdx,%rax
    2b59:	48 89 85 38 ff ff ff 	mov    %rax,-0xc8(%rbp)
    2b60:	48 8b 95 20 ff ff ff 	mov    -0xe0(%rbp),%rdx
    2b67:	48 8b 85 10 ff ff ff 	mov    -0xf0(%rbp),%rax
    2b6e:	48 29 c2             	sub    %rax,%rdx
    2b71:	48 89 d0             	mov    %rdx,%rax
    2b74:	48 89 85 30 ff ff ff 	mov    %rax,-0xd0(%rbp)
    2b7b:	48 8b 85 30 ff ff ff 	mov    -0xd0(%rbp),%rax
    2b82:	48 69 f0 a0 86 01 00 	imul   $0x186a0,%rax,%rsi
    2b89:	48 8b 8d 38 ff ff ff 	mov    -0xc8(%rbp),%rcx
    2b90:	48 ba cf f7 53 e3 a5 	movabs $0x20c49ba5e353f7cf,%rdx
    2b97:	9b c4 20 
    2b9a:	48 89 c8             	mov    %rcx,%rax
    2b9d:	48 f7 ea             	imul   %rdx
    2ba0:	48 c1 fa 07          	sar    $0x7,%rdx
    2ba4:	48 89 c8             	mov    %rcx,%rax
    2ba7:	48 c1 f8 3f          	sar    $0x3f,%rax
    2bab:	48 29 c2             	sub    %rax,%rdx
    2bae:	48 89 d0             	mov    %rdx,%rax
    2bb1:	48 01 f0             	add    %rsi,%rax
    2bb4:	48 89 85 08 ff ff ff 	mov    %rax,-0xf8(%rbp)
    2bbb:	48 83 bd d8 fe ff ff 	cmpq   $0x0,-0x128(%rbp)
    2bc2:	00 
    2bc3:	74 0f                	je     2bd4 <_Z23singlePurposeThreadTestv+0x96f>
    2bc5:	48 8b 85 d8 fe ff ff 	mov    -0x128(%rbp),%rax
    2bcc:	48 89 c7             	mov    %rax,%rdi
    2bcf:	e8 cc ef ff ff       	callq  1ba0 <_ZdaPv@plt>
    2bd4:	48 83 bd d0 fe ff ff 	cmpq   $0x0,-0x130(%rbp)
    2bdb:	00 
    2bdc:	74 0f                	je     2bed <_Z23singlePurposeThreadTestv+0x988>
    2bde:	48 8b 85 d0 fe ff ff 	mov    -0x130(%rbp),%rax
    2be5:	48 89 c7             	mov    %rax,%rdi
    2be8:	e8 b3 ef ff ff       	callq  1ba0 <_ZdaPv@plt>
    2bed:	48 83 bd e0 fe ff ff 	cmpq   $0x0,-0x120(%rbp)
    2bf4:	00 
    2bf5:	74 0f                	je     2c06 <_Z23singlePurposeThreadTestv+0x9a1>
    2bf7:	48 8b 85 e0 fe ff ff 	mov    -0x120(%rbp),%rax
    2bfe:	48 89 c7             	mov    %rax,%rdi
    2c01:	e8 9a ef ff ff       	callq  1ba0 <_ZdaPv@plt>
    2c06:	48 83 bd e8 fe ff ff 	cmpq   $0x0,-0x118(%rbp)
    2c0d:	00 
    2c0e:	74 63                	je     2c73 <_Z23singlePurposeThreadTestv+0xa0e>
    2c10:	48 8b 85 e8 fe ff ff 	mov    -0x118(%rbp),%rax
    2c17:	48 83 e8 08          	sub    $0x8,%rax
    2c1b:	48 8b 00             	mov    (%rax),%rax
    2c1e:	48 c1 e0 05          	shl    $0x5,%rax
    2c22:	48 89 c2             	mov    %rax,%rdx
    2c25:	48 8b 85 e8 fe ff ff 	mov    -0x118(%rbp),%rax
    2c2c:	48 8d 1c 02          	lea    (%rdx,%rax,1),%rbx
    2c30:	48 3b 9d e8 fe ff ff 	cmp    -0x118(%rbp),%rbx
    2c37:	74 0e                	je     2c47 <_Z23singlePurposeThreadTestv+0x9e2>
    2c39:	48 83 eb 20          	sub    $0x20,%rbx
    2c3d:	48 89 df             	mov    %rbx,%rdi
    2c40:	e8 fb 1b 00 00       	callq  4840 <_ZN6w_dataD1Ev>
    2c45:	eb e9                	jmp    2c30 <_Z23singlePurposeThreadTestv+0x9cb>
    2c47:	48 8b 85 e8 fe ff ff 	mov    -0x118(%rbp),%rax
    2c4e:	48 83 e8 08          	sub    $0x8,%rax
    2c52:	48 8b 00             	mov    (%rax),%rax
    2c55:	48 c1 e0 05          	shl    $0x5,%rax
    2c59:	48 8d 50 08          	lea    0x8(%rax),%rdx
    2c5d:	48 8b 85 e8 fe ff ff 	mov    -0x118(%rbp),%rax
    2c64:	48 83 e8 08          	sub    $0x8,%rax
    2c68:	48 89 d6             	mov    %rdx,%rsi
    2c6b:	48 89 c7             	mov    %rax,%rdi
    2c6e:	e8 3d f0 ff ff       	callq  1cb0 <_ZdaPvm@plt>
    2c73:	48 83 bd f0 fe ff ff 	cmpq   $0x0,-0x110(%rbp)
    2c7a:	00 
    2c7b:	74 63                	je     2ce0 <_Z23singlePurposeThreadTestv+0xa7b>
    2c7d:	48 8b 85 f0 fe ff ff 	mov    -0x110(%rbp),%rax
    2c84:	48 83 e8 08          	sub    $0x8,%rax
    2c88:	48 8b 00             	mov    (%rax),%rax
    2c8b:	48 c1 e0 05          	shl    $0x5,%rax
    2c8f:	48 89 c2             	mov    %rax,%rdx
    2c92:	48 8b 85 f0 fe ff ff 	mov    -0x110(%rbp),%rax
    2c99:	48 8d 1c 02          	lea    (%rdx,%rax,1),%rbx
    2c9d:	48 3b 9d f0 fe ff ff 	cmp    -0x110(%rbp),%rbx
    2ca4:	74 0e                	je     2cb4 <_Z23singlePurposeThreadTestv+0xa4f>
    2ca6:	48 83 eb 20          	sub    $0x20,%rbx
    2caa:	48 89 df             	mov    %rbx,%rdi
    2cad:	e8 22 1c 00 00       	callq  48d4 <_ZN6r_dataD1Ev>
    2cb2:	eb e9                	jmp    2c9d <_Z23singlePurposeThreadTestv+0xa38>
    2cb4:	48 8b 85 f0 fe ff ff 	mov    -0x110(%rbp),%rax
    2cbb:	48 83 e8 08          	sub    $0x8,%rax
    2cbf:	48 8b 00             	mov    (%rax),%rax
    2cc2:	48 c1 e0 05          	shl    $0x5,%rax
    2cc6:	48 8d 50 08          	lea    0x8(%rax),%rdx
    2cca:	48 8b 85 f0 fe ff ff 	mov    -0x110(%rbp),%rax
    2cd1:	48 83 e8 08          	sub    $0x8,%rax
    2cd5:	48 89 d6             	mov    %rdx,%rsi
    2cd8:	48 89 c7             	mov    %rax,%rdi
    2cdb:	e8 d0 ef ff ff       	callq  1cb0 <_ZdaPvm@plt>
    2ce0:	48 83 bd f8 fe ff ff 	cmpq   $0x0,-0x108(%rbp)
    2ce7:	00 
    2ce8:	74 63                	je     2d4d <_Z23singlePurposeThreadTestv+0xae8>
    2cea:	48 8b 85 f8 fe ff ff 	mov    -0x108(%rbp),%rax
    2cf1:	48 83 e8 08          	sub    $0x8,%rax
    2cf5:	48 8b 00             	mov    (%rax),%rax
    2cf8:	48 c1 e0 05          	shl    $0x5,%rax
    2cfc:	48 89 c2             	mov    %rax,%rdx
    2cff:	48 8b 85 f8 fe ff ff 	mov    -0x108(%rbp),%rax
    2d06:	48 8d 1c 02          	lea    (%rdx,%rax,1),%rbx
    2d0a:	48 3b 9d f8 fe ff ff 	cmp    -0x108(%rbp),%rbx
    2d11:	74 0e                	je     2d21 <_Z23singlePurposeThreadTestv+0xabc>
    2d13:	48 83 eb 20          	sub    $0x20,%rbx
    2d17:	48 89 df             	mov    %rbx,%rdi
    2d1a:	e8 f5 1b 00 00       	callq  4914 <_ZN6d_dataD1Ev>
    2d1f:	eb e9                	jmp    2d0a <_Z23singlePurposeThreadTestv+0xaa5>
    2d21:	48 8b 85 f8 fe ff ff 	mov    -0x108(%rbp),%rax
    2d28:	48 83 e8 08          	sub    $0x8,%rax
    2d2c:	48 8b 00             	mov    (%rax),%rax
    2d2f:	48 c1 e0 05          	shl    $0x5,%rax
    2d33:	48 8d 50 08          	lea    0x8(%rax),%rdx
    2d37:	48 8b 85 f8 fe ff ff 	mov    -0x108(%rbp),%rax
    2d3e:	48 83 e8 08          	sub    $0x8,%rax
    2d42:	48 89 d6             	mov    %rdx,%rsi
    2d45:	48 89 c7             	mov    %rax,%rdi
    2d48:	e8 63 ef ff ff       	callq  1cb0 <_ZdaPvm@plt>
    2d4d:	48 8b 9d 08 ff ff ff 	mov    -0xf8(%rbp),%rbx
    2d54:	48 8d 85 40 ff ff ff 	lea    -0xc0(%rbp),%rax
    2d5b:	48 89 c7             	mov    %rax,%rdi
    2d5e:	e8 ff 28 00 00       	callq  5662 <_ZNSt6vectorISt4pairIiiESaIS1_EED1Ev>
    2d63:	48 8d 85 60 ff ff ff 	lea    -0xa0(%rbp),%rax
    2d6a:	48 89 c7             	mov    %rax,%rdi
    2d6d:	e8 22 2d 00 00       	callq  5a94 <_ZN9HashTableIiiED1Ev>
    2d72:	48 89 d8             	mov    %rbx,%rax
    2d75:	48 8b 4d d8          	mov    -0x28(%rbp),%rcx
    2d79:	64 48 33 0c 25 28 00 	xor    %fs:0x28,%rcx
    2d80:	00 00 
    2d82:	74 33                	je     2db7 <_Z23singlePurposeThreadTestv+0xb52>
    2d84:	eb 2c                	jmp    2db2 <_Z23singlePurposeThreadTestv+0xb4d>
    2d86:	48 89 c3             	mov    %rax,%rbx
    2d89:	48 8d 85 40 ff ff ff 	lea    -0xc0(%rbp),%rax
    2d90:	48 89 c7             	mov    %rax,%rdi
    2d93:	e8 ca 28 00 00       	callq  5662 <_ZNSt6vectorISt4pairIiiESaIS1_EED1Ev>
    2d98:	48 8d 85 60 ff ff ff 	lea    -0xa0(%rbp),%rax
    2d9f:	48 89 c7             	mov    %rax,%rdi
    2da2:	e8 ed 2c 00 00       	callq  5a94 <_ZN9HashTableIiiED1Ev>
    2da7:	48 89 d8             	mov    %rbx,%rax
    2daa:	48 89 c7             	mov    %rax,%rdi
    2dad:	e8 ae ee ff ff       	callq  1c60 <_Unwind_Resume@plt>
    2db2:	e8 d9 ed ff ff       	callq  1b90 <__stack_chk_fail@plt>
    2db7:	48 81 c4 58 01 00 00 	add    $0x158,%rsp
    2dbe:	5b                   	pop    %rbx
    2dbf:	41 5c                	pop    %r12
    2dc1:	41 5d                	pop    %r13
    2dc3:	5d                   	pop    %rbp
    2dc4:	c3                   	retq   

0000000000002dc5 <_Z22multiPurposeThreadTestim>:
    2dc5:	55                   	push   %rbp
    2dc6:	48 89 e5             	mov    %rsp,%rbp
    2dc9:	41 55                	push   %r13
    2dcb:	41 54                	push   %r12
    2dcd:	53                   	push   %rbx
    2dce:	48 81 ec 38 01 00 00 	sub    $0x138,%rsp
    2dd5:	89 bd bc fe ff ff    	mov    %edi,-0x144(%rbp)
    2ddb:	48 89 b5 b0 fe ff ff 	mov    %rsi,-0x150(%rbp)
    2de2:	64 48 8b 04 25 28 00 	mov    %fs:0x28,%rax
    2de9:	00 00 
    2deb:	48 89 45 d8          	mov    %rax,-0x28(%rbp)
    2def:	31 c0                	xor    %eax,%eax
    2df1:	8b 85 bc fe ff ff    	mov    -0x144(%rbp),%eax
    2df7:	48 63 c8             	movslq %eax,%rcx
    2dfa:	48 8b 85 b0 fe ff ff 	mov    -0x150(%rbp),%rax
    2e01:	ba 00 00 00 00       	mov    $0x0,%edx
    2e06:	48 f7 f1             	div    %rcx
    2e09:	89 85 d8 fe ff ff    	mov    %eax,-0x128(%rbp)
    2e0f:	c7 85 dc fe ff ff 40 	movl   $0x30d40,-0x124(%rbp)
    2e16:	0d 03 00 
    2e19:	c7 85 e0 fe ff ff 00 	movl   $0x80000,-0x120(%rbp)
    2e20:	00 08 00 
    2e23:	8b 85 bc fe ff ff    	mov    -0x144(%rbp),%eax
    2e29:	48 98                	cltq   
    2e2b:	48 ba ff ff ff ff ff 	movabs $0xfffffffffffffff,%rdx
    2e32:	ff ff 0f 
    2e35:	48 39 d0             	cmp    %rdx,%rax
    2e38:	77 2d                	ja     2e67 <_Z22multiPurposeThreadTestim+0xa2>
    2e3a:	48 c1 e0 03          	shl    $0x3,%rax
    2e3e:	48 89 c7             	mov    %rax,%rdi
    2e41:	e8 ca eb ff ff       	callq  1a10 <_Znam@plt>
    2e46:	48 89 85 f0 fe ff ff 	mov    %rax,-0x110(%rbp)
    2e4d:	8b 85 bc fe ff ff    	mov    -0x144(%rbp),%eax
    2e53:	48 63 d8             	movslq %eax,%rbx
    2e56:	48 b8 99 99 99 99 99 	movabs $0x199999999999999,%rax
    2e5d:	99 99 01 
    2e60:	48 39 c3             	cmp    %rax,%rbx
    2e63:	77 1b                	ja     2e80 <_Z22multiPurposeThreadTestim+0xbb>
    2e65:	eb 05                	jmp    2e6c <_Z22multiPurposeThreadTestim+0xa7>
    2e67:	e8 54 ed ff ff       	callq  1bc0 <__cxa_throw_bad_array_new_length@plt>
    2e6c:	48 89 d8             	mov    %rbx,%rax
    2e6f:	48 c1 e0 02          	shl    $0x2,%rax
    2e73:	48 01 d8             	add    %rbx,%rax
    2e76:	48 c1 e0 04          	shl    $0x4,%rax
    2e7a:	48 83 c0 08          	add    $0x8,%rax
    2e7e:	eb 07                	jmp    2e87 <_Z22multiPurposeThreadTestim+0xc2>
    2e80:	48 c7 c0 ff ff ff ff 	mov    $0xffffffffffffffff,%rax
    2e87:	48 89 c7             	mov    %rax,%rdi
    2e8a:	e8 81 eb ff ff       	callq  1a10 <_Znam@plt>
    2e8f:	49 89 c4             	mov    %rax,%r12
    2e92:	49 89 1c 24          	mov    %rbx,(%r12)
    2e96:	49 8d 44 24 08       	lea    0x8(%r12),%rax
    2e9b:	48 8d 53 ff          	lea    -0x1(%rbx),%rdx
    2e9f:	48 89 d3             	mov    %rdx,%rbx
    2ea2:	49 89 c5             	mov    %rax,%r13
    2ea5:	48 85 db             	test   %rbx,%rbx
    2ea8:	78 12                	js     2ebc <_Z22multiPurposeThreadTestim+0xf7>
    2eaa:	4c 89 ef             	mov    %r13,%rdi
    2ead:	e8 82 1a 00 00       	callq  4934 <_ZN8all_dataC1Ev>
    2eb2:	49 83 c5 50          	add    $0x50,%r13
    2eb6:	48 83 eb 01          	sub    $0x1,%rbx
    2eba:	eb e9                	jmp    2ea5 <_Z22multiPurposeThreadTestim+0xe0>
    2ebc:	49 8d 44 24 08       	lea    0x8(%r12),%rax
    2ec1:	48 89 85 f8 fe ff ff 	mov    %rax,-0x108(%rbp)
    2ec8:	8b 85 e0 fe ff ff    	mov    -0x120(%rbp),%eax
    2ece:	48 63 d0             	movslq %eax,%rdx
    2ed1:	48 8d 85 60 ff ff ff 	lea    -0xa0(%rbp),%rax
    2ed8:	48 89 d6             	mov    %rdx,%rsi
    2edb:	48 89 c7             	mov    %rax,%rdi
    2ede:	e8 cf 29 00 00       	callq  58b2 <_ZN9HashTableIiiEC1Em>
    2ee3:	c7 85 cc fe ff ff 00 	movl   $0x0,-0x134(%rbp)
    2eea:	00 00 00 
    2eed:	8b 85 cc fe ff ff    	mov    -0x134(%rbp),%eax
    2ef3:	3b 85 bc fe ff ff    	cmp    -0x144(%rbp),%eax
    2ef9:	7d 37                	jge    2f32 <_Z22multiPurposeThreadTestim+0x16d>
    2efb:	8b 85 cc fe ff ff    	mov    -0x134(%rbp),%eax
    2f01:	48 63 d0             	movslq %eax,%rdx
    2f04:	48 89 d0             	mov    %rdx,%rax
    2f07:	48 c1 e0 02          	shl    $0x2,%rax
    2f0b:	48 01 d0             	add    %rdx,%rax
    2f0e:	48 c1 e0 04          	shl    $0x4,%rax
    2f12:	48 89 c2             	mov    %rax,%rdx
    2f15:	48 8b 85 f8 fe ff ff 	mov    -0x108(%rbp),%rax
    2f1c:	48 01 c2             	add    %rax,%rdx
    2f1f:	48 8d 85 60 ff ff ff 	lea    -0xa0(%rbp),%rax
    2f26:	48 89 02             	mov    %rax,(%rdx)
    2f29:	83 85 cc fe ff ff 01 	addl   $0x1,-0x134(%rbp)
    2f30:	eb bb                	jmp    2eed <_Z22multiPurposeThreadTestim+0x128>
    2f32:	48 8d 85 40 ff ff ff 	lea    -0xc0(%rbp),%rax
    2f39:	48 89 c7             	mov    %rax,%rdi
    2f3c:	e8 c3 18 00 00       	callq  4804 <_ZNSt6vectorISt4pairIiiESaIS1_EEC1Ev>
    2f41:	8b 85 bc fe ff ff    	mov    -0x144(%rbp),%eax
    2f47:	0f af 85 d8 fe ff ff 	imul   -0x128(%rbp),%eax
    2f4e:	89 c2                	mov    %eax,%edx
    2f50:	8b 85 dc fe ff ff    	mov    -0x124(%rbp),%eax
    2f56:	01 d0                	add    %edx,%eax
    2f58:	48 63 d0             	movslq %eax,%rdx
    2f5b:	48 8d 85 40 ff ff ff 	lea    -0xc0(%rbp),%rax
    2f62:	48 89 d6             	mov    %rdx,%rsi
    2f65:	48 89 c7             	mov    %rax,%rdi
    2f68:	e8 a9 2d 00 00       	callq  5d16 <_ZNSt6vectorISt4pairIiiESaIS1_EE7reserveEm>
    2f6d:	c7 85 cc fe ff ff 00 	movl   $0x0,-0x134(%rbp)
    2f74:	00 00 00 
    2f77:	8b 85 cc fe ff ff    	mov    -0x134(%rbp),%eax
    2f7d:	3b 85 dc fe ff ff    	cmp    -0x124(%rbp),%eax
    2f83:	7d 6a                	jge    2fef <_Z22multiPurposeThreadTestim+0x22a>
    2f85:	e8 a6 ea ff ff       	callq  1a30 <rand@plt>
    2f8a:	89 85 c8 fe ff ff    	mov    %eax,-0x138(%rbp)
    2f90:	48 8d 95 c8 fe ff ff 	lea    -0x138(%rbp),%rdx
    2f97:	48 8d 85 c8 fe ff ff 	lea    -0x138(%rbp),%rax
    2f9e:	48 89 d6             	mov    %rdx,%rsi
    2fa1:	48 89 c7             	mov    %rax,%rdi
    2fa4:	e8 0c 2c 00 00       	callq  5bb5 <_ZSt9make_pairIRiS0_ESt4pairINSt17__decay_and_stripIT_E6__typeENS2_IT0_E6__typeEEOS3_OS6_>
    2fa9:	48 89 85 30 ff ff ff 	mov    %rax,-0xd0(%rbp)
    2fb0:	48 8d 95 30 ff ff ff 	lea    -0xd0(%rbp),%rdx
    2fb7:	48 8d 85 40 ff ff ff 	lea    -0xc0(%rbp),%rax
    2fbe:	48 89 d6             	mov    %rdx,%rsi
    2fc1:	48 89 c7             	mov    %rax,%rdi
    2fc4:	e8 5b 2c 00 00       	callq  5c24 <_ZNSt6vectorISt4pairIiiESaIS1_EE9push_backEOS1_>
    2fc9:	8b 95 c8 fe ff ff    	mov    -0x138(%rbp),%edx
    2fcf:	8b 8d c8 fe ff ff    	mov    -0x138(%rbp),%ecx
    2fd5:	48 8d 85 60 ff ff ff 	lea    -0xa0(%rbp),%rax
    2fdc:	89 ce                	mov    %ecx,%esi
    2fde:	48 89 c7             	mov    %rax,%rdi
    2fe1:	e8 aa 1f 00 00       	callq  4f90 <_ZN9HashTableIiiE5writeEii>
    2fe6:	83 85 cc fe ff ff 01 	addl   $0x1,-0x134(%rbp)
    2fed:	eb 88                	jmp    2f77 <_Z22multiPurposeThreadTestim+0x1b2>
    2fef:	c7 85 d0 fe ff ff 00 	movl   $0x0,-0x130(%rbp)
    2ff6:	00 00 00 
    2ff9:	c7 85 cc fe ff ff 00 	movl   $0x0,-0x134(%rbp)
    3000:	00 00 00 
    3003:	8b 85 cc fe ff ff    	mov    -0x134(%rbp),%eax
    3009:	3b 85 bc fe ff ff    	cmp    -0x144(%rbp),%eax
    300f:	0f 8d 73 01 00 00    	jge    3188 <_Z22multiPurposeThreadTestim+0x3c3>
    3015:	8b 85 cc fe ff ff    	mov    -0x134(%rbp),%eax
    301b:	48 63 d0             	movslq %eax,%rdx
    301e:	48 89 d0             	mov    %rdx,%rax
    3021:	48 c1 e0 02          	shl    $0x2,%rax
    3025:	48 01 d0             	add    %rdx,%rax
    3028:	48 c1 e0 04          	shl    $0x4,%rax
    302c:	48 89 c2             	mov    %rax,%rdx
    302f:	48 8b 85 f8 fe ff ff 	mov    -0x108(%rbp),%rax
    3036:	48 01 d0             	add    %rdx,%rax
    3039:	48 8d 50 38          	lea    0x38(%rax),%rdx
    303d:	8b 85 d8 fe ff ff    	mov    -0x128(%rbp),%eax
    3043:	48 98                	cltq   
    3045:	48 89 c6             	mov    %rax,%rsi
    3048:	48 89 d7             	mov    %rdx,%rdi
    304b:	e8 de 2d 00 00       	callq  5e2e <_ZNSt6vectorIiSaIiEE7reserveEm>
    3050:	48 8d 85 40 ff ff ff 	lea    -0xc0(%rbp),%rax
    3057:	48 89 c7             	mov    %rax,%rdi
    305a:	e8 2f 1e 00 00       	callq  4e8e <_ZNSt6vectorISt4pairIiiESaIS1_EE5beginEv>
    305f:	48 89 85 e8 fe ff ff 	mov    %rax,-0x118(%rbp)
    3066:	48 8d 85 40 ff ff ff 	lea    -0xc0(%rbp),%rax
    306d:	48 89 c7             	mov    %rax,%rdi
    3070:	e8 61 1e 00 00       	callq  4ed6 <_ZNSt6vectorISt4pairIiiESaIS1_EE3endEv>
    3075:	48 89 85 30 ff ff ff 	mov    %rax,-0xd0(%rbp)
    307c:	48 8d 95 30 ff ff ff 	lea    -0xd0(%rbp),%rdx
    3083:	48 8d 85 e8 fe ff ff 	lea    -0x118(%rbp),%rax
    308a:	48 89 d6             	mov    %rdx,%rsi
    308d:	48 89 c7             	mov    %rax,%rdi
    3090:	e8 8d 1e 00 00       	callq  4f22 <_ZN9__gnu_cxxneIPSt4pairIiiESt6vectorIS2_SaIS2_EEEEbRKNS_17__normal_iteratorIT_T0_EESC_>
    3095:	84 c0                	test   %al,%al
    3097:	0f 84 df 00 00 00    	je     317c <_Z22multiPurposeThreadTestim+0x3b7>
    309d:	8b 85 cc fe ff ff    	mov    -0x134(%rbp),%eax
    30a3:	48 63 d0             	movslq %eax,%rdx
    30a6:	48 89 d0             	mov    %rdx,%rax
    30a9:	48 c1 e0 02          	shl    $0x2,%rax
    30ad:	48 01 d0             	add    %rdx,%rax
    30b0:	48 c1 e0 04          	shl    $0x4,%rax
    30b4:	48 89 c2             	mov    %rax,%rdx
    30b7:	48 8b 85 f8 fe ff ff 	mov    -0x108(%rbp),%rax
    30be:	48 01 d0             	add    %rdx,%rax
    30c1:	48 8d 58 38          	lea    0x38(%rax),%rbx
    30c5:	48 8d 85 e8 fe ff ff 	lea    -0x118(%rbp),%rax
    30cc:	48 89 c7             	mov    %rax,%rdi
    30cf:	e8 aa 1e 00 00       	callq  4f7e <_ZNK9__gnu_cxx17__normal_iteratorIPSt4pairIiiESt6vectorIS2_SaIS2_EEEdeEv>
    30d4:	48 89 c6             	mov    %rax,%rsi
    30d7:	48 89 df             	mov    %rbx,%rdi
    30da:	e8 77 2b 00 00       	callq  5c56 <_ZNSt6vectorIiSaIiEE9push_backERKi>
    30df:	83 85 d0 fe ff ff 01 	addl   $0x1,-0x130(%rbp)
    30e6:	8b 85 d0 fe ff ff    	mov    -0x130(%rbp),%eax
    30ec:	3b 85 d8 fe ff ff    	cmp    -0x128(%rbp),%eax
    30f2:	75 74                	jne    3168 <_Z22multiPurposeThreadTestim+0x3a3>
    30f4:	48 8d 95 e8 fe ff ff 	lea    -0x118(%rbp),%rdx
    30fb:	48 8d 85 30 ff ff ff 	lea    -0xd0(%rbp),%rax
    3102:	48 89 d6             	mov    %rdx,%rsi
    3105:	48 89 c7             	mov    %rax,%rdi
    3108:	e8 39 2e 00 00       	callq  5f46 <_ZN9__gnu_cxx17__normal_iteratorIPKSt4pairIiiESt6vectorIS2_SaIS2_EEEC1IPS2_EERKNS0_IT_NS_11__enable_ifIXsrSt10__are_sameISB_SA_E7__valueES7_E6__typeEEE>
    310d:	48 8d 85 40 ff ff ff 	lea    -0xc0(%rbp),%rax
    3114:	48 89 c7             	mov    %rax,%rdi
    3117:	e8 72 1d 00 00       	callq  4e8e <_ZNSt6vectorISt4pairIiiESaIS1_EE5beginEv>
    311c:	48 89 85 10 ff ff ff 	mov    %rax,-0xf0(%rbp)
    3123:	48 8d 95 10 ff ff ff 	lea    -0xf0(%rbp),%rdx
    312a:	48 8d 85 20 ff ff ff 	lea    -0xe0(%rbp),%rax
    3131:	48 89 d6             	mov    %rdx,%rsi
    3134:	48 89 c7             	mov    %rax,%rdi
    3137:	e8 0a 2e 00 00       	callq  5f46 <_ZN9__gnu_cxx17__normal_iteratorIPKSt4pairIiiESt6vectorIS2_SaIS2_EEEC1IPS2_EERKNS0_IT_NS_11__enable_ifIXsrSt10__are_sameISB_SA_E7__valueES7_E6__typeEEE>
    313c:	48 8b 95 30 ff ff ff 	mov    -0xd0(%rbp),%rdx
    3143:	48 8b 8d 20 ff ff ff 	mov    -0xe0(%rbp),%rcx
    314a:	48 8d 85 40 ff ff ff 	lea    -0xc0(%rbp),%rax
    3151:	48 89 ce             	mov    %rcx,%rsi
    3154:	48 89 c7             	mov    %rax,%rdi
    3157:	e8 14 2e 00 00       	callq  5f70 <_ZNSt6vectorISt4pairIiiESaIS1_EE5eraseEN9__gnu_cxx17__normal_iteratorIPKS1_S3_EES8_>
    315c:	c7 85 d0 fe ff ff 00 	movl   $0x0,-0x130(%rbp)
    3163:	00 00 00 
    3166:	eb 14                	jmp    317c <_Z22multiPurposeThreadTestim+0x3b7>
    3168:	48 8d 85 e8 fe ff ff 	lea    -0x118(%rbp),%rax
    316f:	48 89 c7             	mov    %rax,%rdi
    3172:	e8 e7 1d 00 00       	callq  4f5e <_ZN9__gnu_cxx17__normal_iteratorIPSt4pairIiiESt6vectorIS2_SaIS2_EEEppEv>
    3177:	e9 ea fe ff ff       	jmpq   3066 <_Z22multiPurposeThreadTestim+0x2a1>
    317c:	83 85 cc fe ff ff 01 	addl   $0x1,-0x134(%rbp)
    3183:	e9 7b fe ff ff       	jmpq   3003 <_Z22multiPurposeThreadTestim+0x23e>
    3188:	c7 85 cc fe ff ff 00 	movl   $0x0,-0x134(%rbp)
    318f:	00 00 00 
    3192:	8b 85 cc fe ff ff    	mov    -0x134(%rbp),%eax
    3198:	3b 85 bc fe ff ff    	cmp    -0x144(%rbp),%eax
    319e:	7d 47                	jge    31e7 <_Z22multiPurposeThreadTestim+0x422>
    31a0:	8b 85 cc fe ff ff    	mov    -0x134(%rbp),%eax
    31a6:	48 63 d0             	movslq %eax,%rdx
    31a9:	48 89 d0             	mov    %rdx,%rax
    31ac:	48 c1 e0 02          	shl    $0x2,%rax
    31b0:	48 01 d0             	add    %rdx,%rax
    31b3:	48 c1 e0 04          	shl    $0x4,%rax
    31b7:	48 89 c2             	mov    %rax,%rdx
    31ba:	48 8b 85 f8 fe ff ff 	mov    -0x108(%rbp),%rax
    31c1:	48 01 d0             	add    %rdx,%rax
    31c4:	48 8d 50 20          	lea    0x20(%rax),%rdx
    31c8:	8b 85 d8 fe ff ff    	mov    -0x128(%rbp),%eax
    31ce:	c1 e0 03             	shl    $0x3,%eax
    31d1:	48 98                	cltq   
    31d3:	48 89 c6             	mov    %rax,%rsi
    31d6:	48 89 d7             	mov    %rdx,%rdi
    31d9:	e8 50 2c 00 00       	callq  5e2e <_ZNSt6vectorIiSaIiEE7reserveEm>
    31de:	83 85 cc fe ff ff 01 	addl   $0x1,-0x134(%rbp)
    31e5:	eb ab                	jmp    3192 <_Z22multiPurposeThreadTestim+0x3cd>
    31e7:	c7 85 cc fe ff ff 00 	movl   $0x0,-0x134(%rbp)
    31ee:	00 00 00 
    31f1:	c7 85 d0 fe ff ff 00 	movl   $0x0,-0x130(%rbp)
    31f8:	00 00 00 
    31fb:	8b 85 d8 fe ff ff    	mov    -0x128(%rbp),%eax
    3201:	0f af 85 bc fe ff ff 	imul   -0x144(%rbp),%eax
    3208:	c1 e0 03             	shl    $0x3,%eax
    320b:	89 85 e4 fe ff ff    	mov    %eax,-0x11c(%rbp)
    3211:	eb 01                	jmp    3214 <_Z22multiPurposeThreadTestim+0x44f>
    3213:	90                   	nop
    3214:	8b 85 d0 fe ff ff    	mov    -0x130(%rbp),%eax
    321a:	3b 85 e4 fe ff ff    	cmp    -0x11c(%rbp),%eax
    3220:	0f 8d f8 00 00 00    	jge    331e <_Z22multiPurposeThreadTestim+0x559>
    3226:	48 8d 85 40 ff ff ff 	lea    -0xc0(%rbp),%rax
    322d:	48 89 85 00 ff ff ff 	mov    %rax,-0x100(%rbp)
    3234:	48 8b 85 00 ff ff ff 	mov    -0x100(%rbp),%rax
    323b:	48 89 c7             	mov    %rax,%rdi
    323e:	e8 4b 1c 00 00       	callq  4e8e <_ZNSt6vectorISt4pairIiiESaIS1_EE5beginEv>
    3243:	48 89 85 10 ff ff ff 	mov    %rax,-0xf0(%rbp)
    324a:	48 8b 85 00 ff ff ff 	mov    -0x100(%rbp),%rax
    3251:	48 89 c7             	mov    %rax,%rdi
    3254:	e8 7d 1c 00 00       	callq  4ed6 <_ZNSt6vectorISt4pairIiiESaIS1_EE3endEv>
    3259:	48 89 85 20 ff ff ff 	mov    %rax,-0xe0(%rbp)
    3260:	48 8d 95 20 ff ff ff 	lea    -0xe0(%rbp),%rdx
    3267:	48 8d 85 10 ff ff ff 	lea    -0xf0(%rbp),%rax
    326e:	48 89 d6             	mov    %rdx,%rsi
    3271:	48 89 c7             	mov    %rax,%rdi
    3274:	e8 a9 1c 00 00       	callq  4f22 <_ZN9__gnu_cxxneIPSt4pairIiiESt6vectorIS2_SaIS2_EEEEbRKNS_17__normal_iteratorIT_T0_EESC_>
    3279:	84 c0                	test   %al,%al
    327b:	74 96                	je     3213 <_Z22multiPurposeThreadTestim+0x44e>
    327d:	48 8d 85 10 ff ff ff 	lea    -0xf0(%rbp),%rax
    3284:	48 89 c7             	mov    %rax,%rdi
    3287:	e8 f2 1c 00 00       	callq  4f7e <_ZNK9__gnu_cxx17__normal_iteratorIPSt4pairIiiESt6vectorIS2_SaIS2_EEEdeEv>
    328c:	48 8b 00             	mov    (%rax),%rax
    328f:	48 89 85 30 ff ff ff 	mov    %rax,-0xd0(%rbp)
    3296:	8b 85 cc fe ff ff    	mov    -0x134(%rbp),%eax
    329c:	48 63 d0             	movslq %eax,%rdx
    329f:	48 89 d0             	mov    %rdx,%rax
    32a2:	48 c1 e0 02          	shl    $0x2,%rax
    32a6:	48 01 d0             	add    %rdx,%rax
    32a9:	48 c1 e0 04          	shl    $0x4,%rax
    32ad:	48 89 c2             	mov    %rax,%rdx
    32b0:	48 8b 85 f8 fe ff ff 	mov    -0x108(%rbp),%rax
    32b7:	48 01 d0             	add    %rdx,%rax
    32ba:	48 8d 50 20          	lea    0x20(%rax),%rdx
    32be:	48 8d 85 30 ff ff ff 	lea    -0xd0(%rbp),%rax
    32c5:	48 89 c6             	mov    %rax,%rsi
    32c8:	48 89 d7             	mov    %rdx,%rdi
    32cb:	e8 86 29 00 00       	callq  5c56 <_ZNSt6vectorIiSaIiEE9push_backERKi>
    32d0:	83 85 cc fe ff ff 01 	addl   $0x1,-0x134(%rbp)
    32d7:	83 85 d0 fe ff ff 01 	addl   $0x1,-0x130(%rbp)
    32de:	8b 85 cc fe ff ff    	mov    -0x134(%rbp),%eax
    32e4:	3b 85 bc fe ff ff    	cmp    -0x144(%rbp),%eax
    32ea:	75 0a                	jne    32f6 <_Z22multiPurposeThreadTestim+0x531>
    32ec:	c7 85 cc fe ff ff 00 	movl   $0x0,-0x134(%rbp)
    32f3:	00 00 00 
    32f6:	8b 85 d0 fe ff ff    	mov    -0x130(%rbp),%eax
    32fc:	3b 85 e4 fe ff ff    	cmp    -0x11c(%rbp),%eax
    3302:	7f 14                	jg     3318 <_Z22multiPurposeThreadTestim+0x553>
    3304:	48 8d 85 10 ff ff ff 	lea    -0xf0(%rbp),%rax
    330b:	48 89 c7             	mov    %rax,%rdi
    330e:	e8 4b 1c 00 00       	callq  4f5e <_ZN9__gnu_cxx17__normal_iteratorIPSt4pairIiiESt6vectorIS2_SaIS2_EEEppEv>
    3313:	e9 48 ff ff ff       	jmpq   3260 <_Z22multiPurposeThreadTestim+0x49b>
    3318:	90                   	nop
    3319:	e9 f5 fe ff ff       	jmpq   3213 <_Z22multiPurposeThreadTestim+0x44e>
    331e:	c7 85 cc fe ff ff 00 	movl   $0x0,-0x134(%rbp)
    3325:	00 00 00 
    3328:	8b 85 cc fe ff ff    	mov    -0x134(%rbp),%eax
    332e:	3b 85 bc fe ff ff    	cmp    -0x144(%rbp),%eax
    3334:	0f 8d 0d 01 00 00    	jge    3447 <_Z22multiPurposeThreadTestim+0x682>
    333a:	8b 85 cc fe ff ff    	mov    -0x134(%rbp),%eax
    3340:	48 63 d0             	movslq %eax,%rdx
    3343:	48 89 d0             	mov    %rdx,%rax
    3346:	48 c1 e0 02          	shl    $0x2,%rax
    334a:	48 01 d0             	add    %rdx,%rax
    334d:	48 c1 e0 04          	shl    $0x4,%rax
    3351:	48 89 c2             	mov    %rax,%rdx
    3354:	48 8b 85 f8 fe ff ff 	mov    -0x108(%rbp),%rax
    335b:	48 01 d0             	add    %rdx,%rax
    335e:	48 8d 50 08          	lea    0x8(%rax),%rdx
    3362:	8b 85 d8 fe ff ff    	mov    -0x128(%rbp),%eax
    3368:	48 98                	cltq   
    336a:	48 89 c6             	mov    %rax,%rsi
    336d:	48 89 d7             	mov    %rdx,%rdi
    3370:	e8 a1 29 00 00       	callq  5d16 <_ZNSt6vectorISt4pairIiiESaIS1_EE7reserveEm>
    3375:	c7 85 d4 fe ff ff 00 	movl   $0x0,-0x12c(%rbp)
    337c:	00 00 00 
    337f:	8b 85 d4 fe ff ff    	mov    -0x12c(%rbp),%eax
    3385:	3b 85 d8 fe ff ff    	cmp    -0x128(%rbp),%eax
    338b:	0f 8d aa 00 00 00    	jge    343b <_Z22multiPurposeThreadTestim+0x676>
    3391:	e8 9a e6 ff ff       	callq  1a30 <rand@plt>
    3396:	89 85 e8 fe ff ff    	mov    %eax,-0x118(%rbp)
    339c:	8b 85 cc fe ff ff    	mov    -0x134(%rbp),%eax
    33a2:	48 63 d0             	movslq %eax,%rdx
    33a5:	48 89 d0             	mov    %rdx,%rax
    33a8:	48 c1 e0 02          	shl    $0x2,%rax
    33ac:	48 01 d0             	add    %rdx,%rax
    33af:	48 c1 e0 04          	shl    $0x4,%rax
    33b3:	48 89 c2             	mov    %rax,%rdx
    33b6:	48 8b 85 f8 fe ff ff 	mov    -0x108(%rbp),%rax
    33bd:	48 01 d0             	add    %rdx,%rax
    33c0:	48 8d 58 08          	lea    0x8(%rax),%rbx
    33c4:	48 8d 95 e8 fe ff ff 	lea    -0x118(%rbp),%rdx
    33cb:	48 8d 85 e8 fe ff ff 	lea    -0x118(%rbp),%rax
    33d2:	48 89 d6             	mov    %rdx,%rsi
    33d5:	48 89 c7             	mov    %rax,%rdi
    33d8:	e8 d8 27 00 00       	callq  5bb5 <_ZSt9make_pairIRiS0_ESt4pairINSt17__decay_and_stripIT_E6__typeENS2_IT0_E6__typeEEOS3_OS6_>
    33dd:	48 89 85 30 ff ff ff 	mov    %rax,-0xd0(%rbp)
    33e4:	48 8d 85 30 ff ff ff 	lea    -0xd0(%rbp),%rax
    33eb:	48 89 c6             	mov    %rax,%rsi
    33ee:	48 89 df             	mov    %rbx,%rdi
    33f1:	e8 2e 28 00 00       	callq  5c24 <_ZNSt6vectorISt4pairIiiESaIS1_EE9push_backEOS1_>
    33f6:	48 8d 95 e8 fe ff ff 	lea    -0x118(%rbp),%rdx
    33fd:	48 8d 85 e8 fe ff ff 	lea    -0x118(%rbp),%rax
    3404:	48 89 d6             	mov    %rdx,%rsi
    3407:	48 89 c7             	mov    %rax,%rdi
    340a:	e8 a6 27 00 00       	callq  5bb5 <_ZSt9make_pairIRiS0_ESt4pairINSt17__decay_and_stripIT_E6__typeENS2_IT0_E6__typeEEOS3_OS6_>
    340f:	48 89 85 30 ff ff ff 	mov    %rax,-0xd0(%rbp)
    3416:	48 8d 95 30 ff ff ff 	lea    -0xd0(%rbp),%rdx
    341d:	48 8d 85 40 ff ff ff 	lea    -0xc0(%rbp),%rax
    3424:	48 89 d6             	mov    %rdx,%rsi
    3427:	48 89 c7             	mov    %rax,%rdi
    342a:	e8 f5 27 00 00       	callq  5c24 <_ZNSt6vectorISt4pairIiiESaIS1_EE9push_backEOS1_>
    342f:	83 85 d4 fe ff ff 01 	addl   $0x1,-0x12c(%rbp)
    3436:	e9 44 ff ff ff       	jmpq   337f <_Z22multiPurposeThreadTestim+0x5ba>
    343b:	83 85 cc fe ff ff 01 	addl   $0x1,-0x134(%rbp)
    3442:	e9 e1 fe ff ff       	jmpq   3328 <_Z22multiPurposeThreadTestim+0x563>
    3447:	c7 85 cc fe ff ff 00 	movl   $0x0,-0x134(%rbp)
    344e:	00 00 00 
    3451:	8b 85 cc fe ff ff    	mov    -0x134(%rbp),%eax
    3457:	3b 85 bc fe ff ff    	cmp    -0x144(%rbp),%eax
    345d:	7d 5e                	jge    34bd <_Z22multiPurposeThreadTestim+0x6f8>
    345f:	8b 85 cc fe ff ff    	mov    -0x134(%rbp),%eax
    3465:	48 63 d0             	movslq %eax,%rdx
    3468:	48 89 d0             	mov    %rdx,%rax
    346b:	48 c1 e0 02          	shl    $0x2,%rax
    346f:	48 01 d0             	add    %rdx,%rax
    3472:	48 c1 e0 04          	shl    $0x4,%rax
    3476:	48 89 c2             	mov    %rax,%rdx
    3479:	48 8b 85 f8 fe ff ff 	mov    -0x108(%rbp),%rax
    3480:	48 01 c2             	add    %rax,%rdx
    3483:	8b 85 cc fe ff ff    	mov    -0x134(%rbp),%eax
    3489:	48 98                	cltq   
    348b:	48 8d 0c c5 00 00 00 	lea    0x0(,%rax,8),%rcx
    3492:	00 
    3493:	48 8b 85 f0 fe ff ff 	mov    -0x110(%rbp),%rax
    349a:	48 01 c8             	add    %rcx,%rax
    349d:	48 89 d1             	mov    %rdx,%rcx
    34a0:	48 8d 15 64 eb ff ff 	lea    -0x149c(%rip),%rdx        # 200b <_Z10all_in_onePv>
    34a7:	be 00 00 00 00       	mov    $0x0,%esi
    34ac:	48 89 c7             	mov    %rax,%rdi
    34af:	e8 14 e8 ff ff       	callq  1cc8 <pthread_create@plt>
    34b4:	83 85 cc fe ff ff 01 	addl   $0x1,-0x134(%rbp)
    34bb:	eb 94                	jmp    3451 <_Z22multiPurposeThreadTestim+0x68c>
    34bd:	48 8d 85 10 ff ff ff 	lea    -0xf0(%rbp),%rax
    34c4:	48 89 c6             	mov    %rax,%rsi
    34c7:	bf 00 00 00 00       	mov    $0x0,%edi
    34cc:	e8 5f e6 ff ff       	callq  1b30 <clock_gettime@plt>
    34d1:	c7 85 cc fe ff ff 00 	movl   $0x0,-0x134(%rbp)
    34d8:	00 00 00 
    34db:	8b 85 cc fe ff ff    	mov    -0x134(%rbp),%eax
    34e1:	3b 85 bc fe ff ff    	cmp    -0x144(%rbp),%eax
    34e7:	7d 33                	jge    351c <_Z22multiPurposeThreadTestim+0x757>
    34e9:	8b 85 cc fe ff ff    	mov    -0x134(%rbp),%eax
    34ef:	48 98                	cltq   
    34f1:	48 8d 14 c5 00 00 00 	lea    0x0(,%rax,8),%rdx
    34f8:	00 
    34f9:	48 8b 85 f0 fe ff ff 	mov    -0x110(%rbp),%rax
    3500:	48 01 d0             	add    %rdx,%rax
    3503:	48 8b 00             	mov    (%rax),%rax
    3506:	be 00 00 00 00       	mov    $0x0,%esi
    350b:	48 89 c7             	mov    %rax,%rdi
    350e:	e8 8d e5 ff ff       	callq  1aa0 <pthread_join@plt>
    3513:	83 85 cc fe ff ff 01 	addl   $0x1,-0x134(%rbp)
    351a:	eb bf                	jmp    34db <_Z22multiPurposeThreadTestim+0x716>
    351c:	48 8d 85 20 ff ff ff 	lea    -0xe0(%rbp),%rax
    3523:	48 89 c6             	mov    %rax,%rsi
    3526:	bf 00 00 00 00       	mov    $0x0,%edi
    352b:	e8 00 e6 ff ff       	callq  1b30 <clock_gettime@plt>
    3530:	48 8b 95 28 ff ff ff 	mov    -0xd8(%rbp),%rdx
    3537:	48 8b 85 18 ff ff ff 	mov    -0xe8(%rbp),%rax
    353e:	48 29 c2             	sub    %rax,%rdx
    3541:	48 89 d0             	mov    %rdx,%rax
    3544:	48 89 85 38 ff ff ff 	mov    %rax,-0xc8(%rbp)
    354b:	48 8b 95 20 ff ff ff 	mov    -0xe0(%rbp),%rdx
    3552:	48 8b 85 10 ff ff ff 	mov    -0xf0(%rbp),%rax
    3559:	48 29 c2             	sub    %rax,%rdx
    355c:	48 89 d0             	mov    %rdx,%rax
    355f:	48 89 85 30 ff ff ff 	mov    %rax,-0xd0(%rbp)
    3566:	48 8b 85 30 ff ff ff 	mov    -0xd0(%rbp),%rax
    356d:	48 69 f0 a0 86 01 00 	imul   $0x186a0,%rax,%rsi
    3574:	48 8b 8d 38 ff ff ff 	mov    -0xc8(%rbp),%rcx
    357b:	48 ba cf f7 53 e3 a5 	movabs $0x20c49ba5e353f7cf,%rdx
    3582:	9b c4 20 
    3585:	48 89 c8             	mov    %rcx,%rax
    3588:	48 f7 ea             	imul   %rdx
    358b:	48 c1 fa 07          	sar    $0x7,%rdx
    358f:	48 89 c8             	mov    %rcx,%rax
    3592:	48 c1 f8 3f          	sar    $0x3f,%rax
    3596:	48 29 c2             	sub    %rax,%rdx
    3599:	48 89 d0             	mov    %rdx,%rax
    359c:	48 01 f0             	add    %rsi,%rax
    359f:	48 89 85 08 ff ff ff 	mov    %rax,-0xf8(%rbp)
    35a6:	48 83 bd f0 fe ff ff 	cmpq   $0x0,-0x110(%rbp)
    35ad:	00 
    35ae:	74 0f                	je     35bf <_Z22multiPurposeThreadTestim+0x7fa>
    35b0:	48 8b 85 f0 fe ff ff 	mov    -0x110(%rbp),%rax
    35b7:	48 89 c7             	mov    %rax,%rdi
    35ba:	e8 e1 e5 ff ff       	callq  1ba0 <_ZdaPv@plt>
    35bf:	48 83 bd f8 fe ff ff 	cmpq   $0x0,-0x108(%rbp)
    35c6:	00 
    35c7:	74 77                	je     3640 <_Z22multiPurposeThreadTestim+0x87b>
    35c9:	48 8b 85 f8 fe ff ff 	mov    -0x108(%rbp),%rax
    35d0:	48 83 e8 08          	sub    $0x8,%rax
    35d4:	48 8b 10             	mov    (%rax),%rdx
    35d7:	48 89 d0             	mov    %rdx,%rax
    35da:	48 c1 e0 02          	shl    $0x2,%rax
    35de:	48 01 d0             	add    %rdx,%rax
    35e1:	48 c1 e0 04          	shl    $0x4,%rax
    35e5:	48 89 c2             	mov    %rax,%rdx
    35e8:	48 8b 85 f8 fe ff ff 	mov    -0x108(%rbp),%rax
    35ef:	48 8d 1c 02          	lea    (%rdx,%rax,1),%rbx
    35f3:	48 3b 9d f8 fe ff ff 	cmp    -0x108(%rbp),%rbx
    35fa:	74 0e                	je     360a <_Z22multiPurposeThreadTestim+0x845>
    35fc:	48 83 eb 50          	sub    $0x50,%rbx
    3600:	48 89 df             	mov    %rbx,%rdi
    3603:	e8 6c 13 00 00       	callq  4974 <_ZN8all_dataD1Ev>
    3608:	eb e9                	jmp    35f3 <_Z22multiPurposeThreadTestim+0x82e>
    360a:	48 8b 85 f8 fe ff ff 	mov    -0x108(%rbp),%rax
    3611:	48 83 e8 08          	sub    $0x8,%rax
    3615:	48 8b 10             	mov    (%rax),%rdx
    3618:	48 89 d0             	mov    %rdx,%rax
    361b:	48 c1 e0 02          	shl    $0x2,%rax
    361f:	48 01 d0             	add    %rdx,%rax
    3622:	48 c1 e0 04          	shl    $0x4,%rax
    3626:	48 8d 50 08          	lea    0x8(%rax),%rdx
    362a:	48 8b 85 f8 fe ff ff 	mov    -0x108(%rbp),%rax
    3631:	48 83 e8 08          	sub    $0x8,%rax
    3635:	48 89 d6             	mov    %rdx,%rsi
    3638:	48 89 c7             	mov    %rax,%rdi
    363b:	e8 70 e6 ff ff       	callq  1cb0 <_ZdaPvm@plt>
    3640:	48 8b 9d 08 ff ff ff 	mov    -0xf8(%rbp),%rbx
    3647:	48 8d 85 40 ff ff ff 	lea    -0xc0(%rbp),%rax
    364e:	48 89 c7             	mov    %rax,%rdi
    3651:	e8 0c 20 00 00       	callq  5662 <_ZNSt6vectorISt4pairIiiESaIS1_EED1Ev>
    3656:	48 8d 85 60 ff ff ff 	lea    -0xa0(%rbp),%rax
    365d:	48 89 c7             	mov    %rax,%rdi
    3660:	e8 2f 24 00 00       	callq  5a94 <_ZN9HashTableIiiED1Ev>
    3665:	48 89 d8             	mov    %rbx,%rax
    3668:	48 8b 4d d8          	mov    -0x28(%rbp),%rcx
    366c:	64 48 33 0c 25 28 00 	xor    %fs:0x28,%rcx
    3673:	00 00 
    3675:	74 33                	je     36aa <_Z22multiPurposeThreadTestim+0x8e5>
    3677:	eb 2c                	jmp    36a5 <_Z22multiPurposeThreadTestim+0x8e0>
    3679:	48 89 c3             	mov    %rax,%rbx
    367c:	48 8d 85 40 ff ff ff 	lea    -0xc0(%rbp),%rax
    3683:	48 89 c7             	mov    %rax,%rdi
    3686:	e8 d7 1f 00 00       	callq  5662 <_ZNSt6vectorISt4pairIiiESaIS1_EED1Ev>
    368b:	48 8d 85 60 ff ff ff 	lea    -0xa0(%rbp),%rax
    3692:	48 89 c7             	mov    %rax,%rdi
    3695:	e8 fa 23 00 00       	callq  5a94 <_ZN9HashTableIiiED1Ev>
    369a:	48 89 d8             	mov    %rbx,%rax
    369d:	48 89 c7             	mov    %rax,%rdi
    36a0:	e8 bb e5 ff ff       	callq  1c60 <_Unwind_Resume@plt>
    36a5:	e8 e6 e4 ff ff       	callq  1b90 <__stack_chk_fail@plt>
    36aa:	48 81 c4 38 01 00 00 	add    $0x138,%rsp
    36b1:	5b                   	pop    %rbx
    36b2:	41 5c                	pop    %r12
    36b4:	41 5d                	pop    %r13
    36b6:	5d                   	pop    %rbp
    36b7:	c3                   	retq   

00000000000036b8 <_Z18nbr_of_thread_compv>:
    36b8:	55                   	push   %rbp
    36b9:	48 89 e5             	mov    %rsp,%rbp
    36bc:	41 55                	push   %r13
    36be:	41 54                	push   %r12
    36c0:	53                   	push   %rbx
    36c1:	48 83 ec 78          	sub    $0x78,%rsp
    36c5:	64 48 8b 04 25 28 00 	mov    %fs:0x28,%rax
    36cc:	00 00 
    36ce:	48 89 45 d8          	mov    %rax,-0x28(%rbp)
    36d2:	31 c0                	xor    %eax,%eax
    36d4:	c7 45 d0 08 00 00 00 	movl   $0x8,-0x30(%rbp)
    36db:	c7 45 d4 10 00 00 00 	movl   $0x10,-0x2c(%rbp)
    36e2:	48 8d 45 d0          	lea    -0x30(%rbp),%rax
    36e6:	49 89 c4             	mov    %rax,%r12
    36e9:	41 bd 02 00 00 00    	mov    $0x2,%r13d
    36ef:	48 8d 45 88          	lea    -0x78(%rbp),%rax
    36f3:	48 89 c7             	mov    %rax,%rdi
    36f6:	e8 37 29 00 00       	callq  6032 <_ZNSaIiEC1Ev>
    36fb:	48 8d 55 88          	lea    -0x78(%rbp),%rdx
    36ff:	4c 89 e6             	mov    %r12,%rsi
    3702:	4c 89 ef             	mov    %r13,%rdi
    3705:	4c 89 e1             	mov    %r12,%rcx
    3708:	4c 89 eb             	mov    %r13,%rbx
    370b:	48 89 df             	mov    %rbx,%rdi
    370e:	48 8d 45 b0          	lea    -0x50(%rbp),%rax
    3712:	48 89 d1             	mov    %rdx,%rcx
    3715:	48 89 fa             	mov    %rdi,%rdx
    3718:	48 89 c7             	mov    %rax,%rdi
    371b:	e8 2e 29 00 00       	callq  604e <_ZNSt6vectorIiSaIiEEC1ESt16initializer_listIiERKS0_>
    3720:	48 8d 45 88          	lea    -0x78(%rbp),%rax
    3724:	48 89 c7             	mov    %rax,%rdi
    3727:	e8 a2 1f 00 00       	callq  56ce <_ZNSaIiED1Ev>
    372c:	48 c7 45 90 00 00 00 	movq   $0x0,-0x70(%rbp)
    3733:	00 
    3734:	48 c7 45 98 c8 00 00 	movq   $0xc8,-0x68(%rbp)
    373b:	00 
    373c:	48 8d 45 b0          	lea    -0x50(%rbp),%rax
    3740:	48 89 45 a0          	mov    %rax,-0x60(%rbp)
    3744:	48 8b 45 a0          	mov    -0x60(%rbp),%rax
    3748:	48 89 c7             	mov    %rax,%rdi
    374b:	e8 64 13 00 00       	callq  4ab4 <_ZNSt6vectorIiSaIiEE5beginEv>
    3750:	48 89 45 80          	mov    %rax,-0x80(%rbp)
    3754:	48 8b 45 a0          	mov    -0x60(%rbp),%rax
    3758:	48 89 c7             	mov    %rax,%rdi
    375b:	e8 9c 13 00 00       	callq  4afc <_ZNSt6vectorIiSaIiEE3endEv>
    3760:	48 89 45 88          	mov    %rax,-0x78(%rbp)
    3764:	48 8d 55 88          	lea    -0x78(%rbp),%rdx
    3768:	48 8d 45 80          	lea    -0x80(%rbp),%rax
    376c:	48 89 d6             	mov    %rdx,%rsi
    376f:	48 89 c7             	mov    %rax,%rdi
    3772:	e8 d1 13 00 00       	callq  4b48 <_ZN9__gnu_cxxneIPiSt6vectorIiSaIiEEEEbRKNS_17__normal_iteratorIT_T0_EESA_>
    3777:	84 c0                	test   %al,%al
    3779:	0f 84 1a 01 00 00    	je     3899 <_Z18nbr_of_thread_compv+0x1e1>
    377f:	48 8d 45 80          	lea    -0x80(%rbp),%rax
    3783:	48 89 c7             	mov    %rax,%rdi
    3786:	e8 19 14 00 00       	callq  4ba4 <_ZNK9__gnu_cxx17__normal_iteratorIPiSt6vectorIiSaIiEEEdeEv>
    378b:	8b 00                	mov    (%rax),%eax
    378d:	89 85 7c ff ff ff    	mov    %eax,-0x84(%rbp)
    3793:	48 c7 45 90 00 00 00 	movq   $0x0,-0x70(%rbp)
    379a:	00 
    379b:	8b 85 7c ff ff ff    	mov    -0x84(%rbp),%eax
    37a1:	89 c6                	mov    %eax,%esi
    37a3:	48 8d 3d 76 b9 20 00 	lea    0x20b976(%rip),%rdi        # 20f120 <_ZSt4cout@@GLIBCXX_3.4>
    37aa:	e8 a1 e4 ff ff       	callq  1c50 <_ZNSolsEi@plt>
    37af:	48 8d 35 ba 64 00 00 	lea    0x64ba(%rip),%rsi        # 9c70 <_ZN6__pstl9execution2v1L5unseqE+0x41>
    37b6:	48 89 c7             	mov    %rax,%rdi
    37b9:	e8 92 e3 ff ff       	callq  1b50 <_ZStlsISt11char_traitsIcEERSt13basic_ostreamIcT_ES5_PKc@plt>
    37be:	48 89 c2             	mov    %rax,%rdx
    37c1:	48 8b 05 e0 b7 20 00 	mov    0x20b7e0(%rip),%rax        # 20efa8 <_ZSt4endlIcSt11char_traitsIcEERSt13basic_ostreamIT_T0_ES6_@GLIBCXX_3.4>
    37c8:	48 89 c6             	mov    %rax,%rsi
    37cb:	48 89 d7             	mov    %rdx,%rdi
    37ce:	e8 ad e3 ff ff       	callq  1b80 <_ZNSolsEPFRSoS_E@plt>
    37d3:	c7 85 78 ff ff ff 00 	movl   $0x0,-0x88(%rbp)
    37da:	00 00 00 
    37dd:	8b 85 78 ff ff ff    	mov    -0x88(%rbp),%eax
    37e3:	48 98                	cltq   
    37e5:	48 39 45 98          	cmp    %rax,-0x68(%rbp)
    37e9:	7e 47                	jle    3832 <_Z18nbr_of_thread_compv+0x17a>
    37eb:	8b 85 7c ff ff ff    	mov    -0x84(%rbp),%eax
    37f1:	be a0 86 01 00       	mov    $0x186a0,%esi
    37f6:	89 c7                	mov    %eax,%edi
    37f8:	e8 c8 f5 ff ff       	callq  2dc5 <_Z22multiPurposeThreadTestim>
    37fd:	48 89 45 a8          	mov    %rax,-0x58(%rbp)
    3801:	48 b8 30 7b 38 98 b0 	movabs $0x12c16b098387b30,%rax
    3808:	16 2c 01 
    380b:	48 39 45 a8          	cmp    %rax,-0x58(%rbp)
    380f:	7f 07                	jg     3818 <_Z18nbr_of_thread_compv+0x160>
    3811:	48 83 7d a8 00       	cmpq   $0x0,-0x58(%rbp)
    3816:	79 09                	jns    3821 <_Z18nbr_of_thread_compv+0x169>
    3818:	83 ad 78 ff ff ff 01 	subl   $0x1,-0x88(%rbp)
    381f:	eb 08                	jmp    3829 <_Z18nbr_of_thread_compv+0x171>
    3821:	48 8b 45 a8          	mov    -0x58(%rbp),%rax
    3825:	48 01 45 90          	add    %rax,-0x70(%rbp)
    3829:	83 85 78 ff ff ff 01 	addl   $0x1,-0x88(%rbp)
    3830:	eb ab                	jmp    37dd <_Z18nbr_of_thread_compv+0x125>
    3832:	48 8d 35 41 64 00 00 	lea    0x6441(%rip),%rsi        # 9c7a <_ZN6__pstl9execution2v1L5unseqE+0x4b>
    3839:	48 8d 3d e0 b8 20 00 	lea    0x20b8e0(%rip),%rdi        # 20f120 <_ZSt4cout@@GLIBCXX_3.4>
    3840:	e8 0b e3 ff ff       	callq  1b50 <_ZStlsISt11char_traitsIcEERSt13basic_ostreamIcT_ES5_PKc@plt>
    3845:	48 89 c1             	mov    %rax,%rcx
    3848:	48 8b 45 90          	mov    -0x70(%rbp),%rax
    384c:	48 99                	cqto   
    384e:	48 f7 7d 98          	idivq  -0x68(%rbp)
    3852:	48 89 c6             	mov    %rax,%rsi
    3855:	48 89 cf             	mov    %rcx,%rdi
    3858:	e8 13 e4 ff ff       	callq  1c70 <_ZNSolsEl@plt>
    385d:	48 89 c2             	mov    %rax,%rdx
    3860:	48 8b 05 41 b7 20 00 	mov    0x20b741(%rip),%rax        # 20efa8 <_ZSt4endlIcSt11char_traitsIcEERSt13basic_ostreamIT_T0_ES6_@GLIBCXX_3.4>
    3867:	48 89 c6             	mov    %rax,%rsi
    386a:	48 89 d7             	mov    %rdx,%rdi
    386d:	e8 0e e3 ff ff       	callq  1b80 <_ZNSolsEPFRSoS_E@plt>
    3872:	48 8b 05 2f b7 20 00 	mov    0x20b72f(%rip),%rax        # 20efa8 <_ZSt4endlIcSt11char_traitsIcEERSt13basic_ostreamIT_T0_ES6_@GLIBCXX_3.4>
    3879:	48 89 c6             	mov    %rax,%rsi
    387c:	48 8d 3d 9d b8 20 00 	lea    0x20b89d(%rip),%rdi        # 20f120 <_ZSt4cout@@GLIBCXX_3.4>
    3883:	e8 f8 e2 ff ff       	callq  1b80 <_ZNSolsEPFRSoS_E@plt>
    3888:	48 8d 45 80          	lea    -0x80(%rbp),%rax
    388c:	48 89 c7             	mov    %rax,%rdi
    388f:	e8 f0 12 00 00       	callq  4b84 <_ZN9__gnu_cxx17__normal_iteratorIPiSt6vectorIiSaIiEEEppEv>
    3894:	e9 cb fe ff ff       	jmpq   3764 <_Z18nbr_of_thread_compv+0xac>
    3899:	48 8d 45 b0          	lea    -0x50(%rbp),%rax
    389d:	48 89 c7             	mov    %rax,%rdi
    38a0:	e8 93 1e 00 00       	callq  5738 <_ZNSt6vectorIiSaIiEED1Ev>
    38a5:	90                   	nop
    38a6:	48 8b 45 d8          	mov    -0x28(%rbp),%rax
    38aa:	64 48 33 04 25 28 00 	xor    %fs:0x28,%rax
    38b1:	00 00 
    38b3:	74 3b                	je     38f0 <_Z18nbr_of_thread_compv+0x238>
    38b5:	eb 34                	jmp    38eb <_Z18nbr_of_thread_compv+0x233>
    38b7:	48 89 c3             	mov    %rax,%rbx
    38ba:	48 8d 45 88          	lea    -0x78(%rbp),%rax
    38be:	48 89 c7             	mov    %rax,%rdi
    38c1:	e8 08 1e 00 00       	callq  56ce <_ZNSaIiED1Ev>
    38c6:	48 89 d8             	mov    %rbx,%rax
    38c9:	48 89 c7             	mov    %rax,%rdi
    38cc:	e8 8f e3 ff ff       	callq  1c60 <_Unwind_Resume@plt>
    38d1:	48 89 c3             	mov    %rax,%rbx
    38d4:	48 8d 45 b0          	lea    -0x50(%rbp),%rax
    38d8:	48 89 c7             	mov    %rax,%rdi
    38db:	e8 58 1e 00 00       	callq  5738 <_ZNSt6vectorIiSaIiEED1Ev>
    38e0:	48 89 d8             	mov    %rbx,%rax
    38e3:	48 89 c7             	mov    %rax,%rdi
    38e6:	e8 75 e3 ff ff       	callq  1c60 <_Unwind_Resume@plt>
    38eb:	e8 a0 e2 ff ff       	callq  1b90 <__stack_chk_fail@plt>
    38f0:	48 83 c4 78          	add    $0x78,%rsp
    38f4:	5b                   	pop    %rbx
    38f5:	41 5c                	pop    %r12
    38f7:	41 5d                	pop    %r13
    38f9:	5d                   	pop    %rbp
    38fa:	c3                   	retq   

00000000000038fb <_Z9load_compv>:
    38fb:	55                   	push   %rbp
    38fc:	48 89 e5             	mov    %rsp,%rbp
    38ff:	41 55                	push   %r13
    3901:	41 54                	push   %r12
    3903:	53                   	push   %rbx
    3904:	48 81 ec 98 00 00 00 	sub    $0x98,%rsp
    390b:	64 48 8b 04 25 28 00 	mov    %fs:0x28,%rax
    3912:	00 00 
    3914:	48 89 45 d8          	mov    %rax,-0x28(%rbp)
    3918:	31 c0                	xor    %eax,%eax
    391a:	48 c7 45 b0 a0 86 01 	movq   $0x186a0,-0x50(%rbp)
    3921:	00 
    3922:	48 c7 45 b8 40 0d 03 	movq   $0x30d40,-0x48(%rbp)
    3929:	00 
    392a:	48 c7 45 c0 80 1a 06 	movq   $0x61a80,-0x40(%rbp)
    3931:	00 
    3932:	48 c7 45 c8 00 35 0c 	movq   $0xc3500,-0x38(%rbp)
    3939:	00 
    393a:	48 8d 45 b0          	lea    -0x50(%rbp),%rax
    393e:	49 89 c4             	mov    %rax,%r12
    3941:	41 bd 04 00 00 00    	mov    $0x4,%r13d
    3947:	48 8d 85 68 ff ff ff 	lea    -0x98(%rbp),%rax
    394e:	48 89 c7             	mov    %rax,%rdi
    3951:	e8 a4 27 00 00       	callq  60fa <_ZNSaImEC1Ev>
    3956:	48 8d 95 68 ff ff ff 	lea    -0x98(%rbp),%rdx
    395d:	4c 89 e6             	mov    %r12,%rsi
    3960:	4c 89 ef             	mov    %r13,%rdi
    3963:	4c 89 e1             	mov    %r12,%rcx
    3966:	4c 89 eb             	mov    %r13,%rbx
    3969:	48 89 df             	mov    %rbx,%rdi
    396c:	48 8d 45 90          	lea    -0x70(%rbp),%rax
    3970:	48 89 d1             	mov    %rdx,%rcx
    3973:	48 89 fa             	mov    %rdi,%rdx
    3976:	48 89 c7             	mov    %rax,%rdi
    3979:	e8 b4 27 00 00       	callq  6132 <_ZNSt6vectorImSaImEEC1ESt16initializer_listImERKS0_>
    397e:	48 8d 85 68 ff ff ff 	lea    -0x98(%rbp),%rax
    3985:	48 89 c7             	mov    %rax,%rdi
    3988:	e8 89 27 00 00       	callq  6116 <_ZNSaImED1Ev>
    398d:	48 c7 85 70 ff ff ff 	movq   $0x0,-0x90(%rbp)
    3994:	00 00 00 00 
    3998:	48 c7 85 78 ff ff ff 	movq   $0xc8,-0x88(%rbp)
    399f:	c8 00 00 00 
    39a3:	48 8d 45 90          	lea    -0x70(%rbp),%rax
    39a7:	48 89 45 80          	mov    %rax,-0x80(%rbp)
    39ab:	48 8b 45 80          	mov    -0x80(%rbp),%rax
    39af:	48 89 c7             	mov    %rax,%rdi
    39b2:	e8 6b 28 00 00       	callq  6222 <_ZNSt6vectorImSaImEE5beginEv>
    39b7:	48 89 85 60 ff ff ff 	mov    %rax,-0xa0(%rbp)
    39be:	48 8b 45 80          	mov    -0x80(%rbp),%rax
    39c2:	48 89 c7             	mov    %rax,%rdi
    39c5:	e8 a0 28 00 00       	callq  626a <_ZNSt6vectorImSaImEE3endEv>
    39ca:	48 89 85 68 ff ff ff 	mov    %rax,-0x98(%rbp)
    39d1:	48 8d 95 68 ff ff ff 	lea    -0x98(%rbp),%rdx
    39d8:	48 8d 85 60 ff ff ff 	lea    -0xa0(%rbp),%rax
    39df:	48 89 d6             	mov    %rdx,%rsi
    39e2:	48 89 c7             	mov    %rax,%rdi
    39e5:	e8 cc 28 00 00       	callq  62b6 <_ZN9__gnu_cxxneIPmSt6vectorImSaImEEEEbRKNS_17__normal_iteratorIT_T0_EESA_>
    39ea:	84 c0                	test   %al,%al
    39ec:	0f 84 33 01 00 00    	je     3b25 <_Z9load_compv+0x22a>
    39f2:	48 8d 85 60 ff ff ff 	lea    -0xa0(%rbp),%rax
    39f9:	48 89 c7             	mov    %rax,%rdi
    39fc:	e8 11 29 00 00       	callq  6312 <_ZNK9__gnu_cxx17__normal_iteratorIPmSt6vectorImSaImEEEdeEv>
    3a01:	48 8b 00             	mov    (%rax),%rax
    3a04:	89 85 5c ff ff ff    	mov    %eax,-0xa4(%rbp)
    3a0a:	48 c7 85 70 ff ff ff 	movq   $0x0,-0x90(%rbp)
    3a11:	00 00 00 00 
    3a15:	8b 85 5c ff ff ff    	mov    -0xa4(%rbp),%eax
    3a1b:	89 c6                	mov    %eax,%esi
    3a1d:	48 8d 3d fc b6 20 00 	lea    0x20b6fc(%rip),%rdi        # 20f120 <_ZSt4cout@@GLIBCXX_3.4>
    3a24:	e8 27 e2 ff ff       	callq  1c50 <_ZNSolsEi@plt>
    3a29:	48 8d 35 50 62 00 00 	lea    0x6250(%rip),%rsi        # 9c80 <_ZN6__pstl9execution2v1L5unseqE+0x51>
    3a30:	48 89 c7             	mov    %rax,%rdi
    3a33:	e8 18 e1 ff ff       	callq  1b50 <_ZStlsISt11char_traitsIcEERSt13basic_ostreamIcT_ES5_PKc@plt>
    3a38:	48 89 c2             	mov    %rax,%rdx
    3a3b:	48 8b 05 66 b5 20 00 	mov    0x20b566(%rip),%rax        # 20efa8 <_ZSt4endlIcSt11char_traitsIcEERSt13basic_ostreamIT_T0_ES6_@GLIBCXX_3.4>
    3a42:	48 89 c6             	mov    %rax,%rsi
    3a45:	48 89 d7             	mov    %rdx,%rdi
    3a48:	e8 33 e1 ff ff       	callq  1b80 <_ZNSolsEPFRSoS_E@plt>
    3a4d:	c7 85 58 ff ff ff 00 	movl   $0x0,-0xa8(%rbp)
    3a54:	00 00 00 
    3a57:	8b 85 58 ff ff ff    	mov    -0xa8(%rbp),%eax
    3a5d:	48 98                	cltq   
    3a5f:	48 39 85 78 ff ff ff 	cmp    %rax,-0x88(%rbp)
    3a66:	7e 4d                	jle    3ab5 <_Z9load_compv+0x1ba>
    3a68:	8b 85 5c ff ff ff    	mov    -0xa4(%rbp),%eax
    3a6e:	48 98                	cltq   
    3a70:	48 89 c6             	mov    %rax,%rsi
    3a73:	bf 08 00 00 00       	mov    $0x8,%edi
    3a78:	e8 48 f3 ff ff       	callq  2dc5 <_Z22multiPurposeThreadTestim>
    3a7d:	48 89 45 88          	mov    %rax,-0x78(%rbp)
    3a81:	48 b8 30 7b 38 98 b0 	movabs $0x12c16b098387b30,%rax
    3a88:	16 2c 01 
    3a8b:	48 39 45 88          	cmp    %rax,-0x78(%rbp)
    3a8f:	7f 07                	jg     3a98 <_Z9load_compv+0x19d>
    3a91:	48 83 7d 88 00       	cmpq   $0x0,-0x78(%rbp)
    3a96:	79 09                	jns    3aa1 <_Z9load_compv+0x1a6>
    3a98:	83 ad 58 ff ff ff 01 	subl   $0x1,-0xa8(%rbp)
    3a9f:	eb 0b                	jmp    3aac <_Z9load_compv+0x1b1>
    3aa1:	48 8b 45 88          	mov    -0x78(%rbp),%rax
    3aa5:	48 01 85 70 ff ff ff 	add    %rax,-0x90(%rbp)
    3aac:	83 85 58 ff ff ff 01 	addl   $0x1,-0xa8(%rbp)
    3ab3:	eb a2                	jmp    3a57 <_Z9load_compv+0x15c>
    3ab5:	48 8d 35 be 61 00 00 	lea    0x61be(%rip),%rsi        # 9c7a <_ZN6__pstl9execution2v1L5unseqE+0x4b>
    3abc:	48 8d 3d 5d b6 20 00 	lea    0x20b65d(%rip),%rdi        # 20f120 <_ZSt4cout@@GLIBCXX_3.4>
    3ac3:	e8 88 e0 ff ff       	callq  1b50 <_ZStlsISt11char_traitsIcEERSt13basic_ostreamIcT_ES5_PKc@plt>
    3ac8:	48 89 c1             	mov    %rax,%rcx
    3acb:	48 8b 85 70 ff ff ff 	mov    -0x90(%rbp),%rax
    3ad2:	48 99                	cqto   
    3ad4:	48 f7 bd 78 ff ff ff 	idivq  -0x88(%rbp)
    3adb:	48 89 c6             	mov    %rax,%rsi
    3ade:	48 89 cf             	mov    %rcx,%rdi
    3ae1:	e8 8a e1 ff ff       	callq  1c70 <_ZNSolsEl@plt>
    3ae6:	48 89 c2             	mov    %rax,%rdx
    3ae9:	48 8b 05 b8 b4 20 00 	mov    0x20b4b8(%rip),%rax        # 20efa8 <_ZSt4endlIcSt11char_traitsIcEERSt13basic_ostreamIT_T0_ES6_@GLIBCXX_3.4>
    3af0:	48 89 c6             	mov    %rax,%rsi
    3af3:	48 89 d7             	mov    %rdx,%rdi
    3af6:	e8 85 e0 ff ff       	callq  1b80 <_ZNSolsEPFRSoS_E@plt>
    3afb:	48 8b 05 a6 b4 20 00 	mov    0x20b4a6(%rip),%rax        # 20efa8 <_ZSt4endlIcSt11char_traitsIcEERSt13basic_ostreamIT_T0_ES6_@GLIBCXX_3.4>
    3b02:	48 89 c6             	mov    %rax,%rsi
    3b05:	48 8d 3d 14 b6 20 00 	lea    0x20b614(%rip),%rdi        # 20f120 <_ZSt4cout@@GLIBCXX_3.4>
    3b0c:	e8 6f e0 ff ff       	callq  1b80 <_ZNSolsEPFRSoS_E@plt>
    3b11:	48 8d 85 60 ff ff ff 	lea    -0xa0(%rbp),%rax
    3b18:	48 89 c7             	mov    %rax,%rdi
    3b1b:	e8 d2 27 00 00       	callq  62f2 <_ZN9__gnu_cxx17__normal_iteratorIPmSt6vectorImSaImEEEppEv>
    3b20:	e9 ac fe ff ff       	jmpq   39d1 <_Z9load_compv+0xd6>
    3b25:	48 8d 45 90          	lea    -0x70(%rbp),%rax
    3b29:	48 89 c7             	mov    %rax,%rdi
    3b2c:	e8 ad 26 00 00       	callq  61de <_ZNSt6vectorImSaImEED1Ev>
    3b31:	90                   	nop
    3b32:	48 8b 45 d8          	mov    -0x28(%rbp),%rax
    3b36:	64 48 33 04 25 28 00 	xor    %fs:0x28,%rax
    3b3d:	00 00 
    3b3f:	74 3e                	je     3b7f <_Z9load_compv+0x284>
    3b41:	eb 37                	jmp    3b7a <_Z9load_compv+0x27f>
    3b43:	48 89 c3             	mov    %rax,%rbx
    3b46:	48 8d 85 68 ff ff ff 	lea    -0x98(%rbp),%rax
    3b4d:	48 89 c7             	mov    %rax,%rdi
    3b50:	e8 c1 25 00 00       	callq  6116 <_ZNSaImED1Ev>
    3b55:	48 89 d8             	mov    %rbx,%rax
    3b58:	48 89 c7             	mov    %rax,%rdi
    3b5b:	e8 00 e1 ff ff       	callq  1c60 <_Unwind_Resume@plt>
    3b60:	48 89 c3             	mov    %rax,%rbx
    3b63:	48 8d 45 90          	lea    -0x70(%rbp),%rax
    3b67:	48 89 c7             	mov    %rax,%rdi
    3b6a:	e8 6f 26 00 00       	callq  61de <_ZNSt6vectorImSaImEED1Ev>
    3b6f:	48 89 d8             	mov    %rbx,%rax
    3b72:	48 89 c7             	mov    %rax,%rdi
    3b75:	e8 e6 e0 ff ff       	callq  1c60 <_Unwind_Resume@plt>
    3b7a:	e8 11 e0 ff ff       	callq  1b90 <__stack_chk_fail@plt>
    3b7f:	48 81 c4 98 00 00 00 	add    $0x98,%rsp
    3b86:	5b                   	pop    %rbx
    3b87:	41 5c                	pop    %r12
    3b89:	41 5d                	pop    %r13
    3b8b:	5d                   	pop    %rbp
    3b8c:	c3                   	retq   

0000000000003b8d <main>:
    3b8d:	55                   	push   %rbp
    3b8e:	48 89 e5             	mov    %rsp,%rbp
    3b91:	48 8d 35 ef 60 00 00 	lea    0x60ef(%rip),%rsi        # 9c87 <_ZN6__pstl9execution2v1L5unseqE+0x58>
    3b98:	48 8d 3d 81 b5 20 00 	lea    0x20b581(%rip),%rdi        # 20f120 <_ZSt4cout@@GLIBCXX_3.4>
    3b9f:	e8 ac df ff ff       	callq  1b50 <_ZStlsISt11char_traitsIcEERSt13basic_ostreamIcT_ES5_PKc@plt>
    3ba4:	48 8d 35 f0 60 00 00 	lea    0x60f0(%rip),%rsi        # 9c9b <_ZN6__pstl9execution2v1L5unseqE+0x6c>
    3bab:	48 89 c7             	mov    %rax,%rdi
    3bae:	e8 9d df ff ff       	callq  1b50 <_ZStlsISt11char_traitsIcEERSt13basic_ostreamIcT_ES5_PKc@plt>
    3bb3:	48 89 c2             	mov    %rax,%rdx
    3bb6:	48 8b 05 eb b3 20 00 	mov    0x20b3eb(%rip),%rax        # 20efa8 <_ZSt4endlIcSt11char_traitsIcEERSt13basic_ostreamIT_T0_ES6_@GLIBCXX_3.4>
    3bbd:	48 89 c6             	mov    %rax,%rsi
    3bc0:	48 89 d7             	mov    %rdx,%rdi
    3bc3:	e8 b8 df ff ff       	callq  1b80 <_ZNSolsEPFRSoS_E@plt>
    3bc8:	e8 2e fd ff ff       	callq  38fb <_Z9load_compv>
    3bcd:	b8 00 00 00 00       	mov    $0x0,%eax
    3bd2:	5d                   	pop    %rbp
    3bd3:	c3                   	retq   

0000000000003bd4 <_Z41__static_initialization_and_destruction_0ii>:
    3bd4:	55                   	push   %rbp
    3bd5:	48 89 e5             	mov    %rsp,%rbp
    3bd8:	48 83 ec 10          	sub    $0x10,%rsp
    3bdc:	89 7d fc             	mov    %edi,-0x4(%rbp)
    3bdf:	89 75 f8             	mov    %esi,-0x8(%rbp)
    3be2:	83 7d fc 01          	cmpl   $0x1,-0x4(%rbp)
    3be6:	75 32                	jne    3c1a <_Z41__static_initialization_and_destruction_0ii+0x46>
    3be8:	81 7d f8 ff ff 00 00 	cmpl   $0xffff,-0x8(%rbp)
    3bef:	75 29                	jne    3c1a <_Z41__static_initialization_and_destruction_0ii+0x46>
    3bf1:	48 8d 3d 39 b6 20 00 	lea    0x20b639(%rip),%rdi        # 20f231 <_ZStL8__ioinit>
    3bf8:	e8 f3 df ff ff       	callq  1bf0 <_ZNSt8ios_base4InitC1Ev@plt>
    3bfd:	48 8d 15 04 b4 20 00 	lea    0x20b404(%rip),%rdx        # 20f008 <__dso_handle>
    3c04:	48 8d 35 26 b6 20 00 	lea    0x20b626(%rip),%rsi        # 20f231 <_ZStL8__ioinit>
    3c0b:	48 8b 05 ce b3 20 00 	mov    0x20b3ce(%rip),%rax        # 20efe0 <_ZNSt8ios_base4InitD1Ev@GLIBCXX_3.4>
    3c12:	48 89 c7             	mov    %rax,%rdi
    3c15:	e8 f6 de ff ff       	callq  1b10 <__cxa_atexit@plt>
    3c1a:	90                   	nop
    3c1b:	c9                   	leaveq 
    3c1c:	c3                   	retq   

0000000000003c1d <_GLOBAL__sub_I__Z9mapDeletePv>:
    3c1d:	55                   	push   %rbp
    3c1e:	48 89 e5             	mov    %rsp,%rbp
    3c21:	be ff ff 00 00       	mov    $0xffff,%esi
    3c26:	bf 01 00 00 00       	mov    $0x1,%edi
    3c2b:	e8 a4 ff ff ff       	callq  3bd4 <_Z41__static_initialization_and_destruction_0ii>
    3c30:	5d                   	pop    %rbp
    3c31:	c3                   	retq   

0000000000003c32 <_ZGTtN8HashNodeIiiE8getValueEv>:
    3c32:	55                   	push   %rbp
    3c33:	48 89 e5             	mov    %rsp,%rbp
    3c36:	48 89 7d f8          	mov    %rdi,-0x8(%rbp)
    3c3a:	48 8b 45 f8          	mov    -0x8(%rbp),%rax
    3c3e:	48 83 c0 0c          	add    $0xc,%rax
    3c42:	5d                   	pop    %rbp
    3c43:	c3                   	retq   

0000000000003c44 <_ZGTtN8HashNodeIiiE8setValueEi>:
    3c44:	55                   	push   %rbp
    3c45:	48 89 e5             	mov    %rsp,%rbp
    3c48:	48 83 ec 10          	sub    $0x10,%rsp
    3c4c:	48 89 7d f8          	mov    %rdi,-0x8(%rbp)
    3c50:	89 75 f4             	mov    %esi,-0xc(%rbp)
    3c53:	48 8d 45 f4          	lea    -0xc(%rbp),%rax
    3c57:	48 89 c7             	mov    %rax,%rdi
    3c5a:	e8 33 02 00 00       	callq  3e92 <_ZGTtSt4moveIRiEONSt16remove_referenceIT_E4typeEOS2_>
    3c5f:	48 89 c7             	mov    %rax,%rdi
    3c62:	e8 69 df ff ff       	callq  1bd0 <_ITM_RU4@plt>
    3c67:	89 c2                	mov    %eax,%edx
    3c69:	48 8b 45 f8          	mov    -0x8(%rbp),%rax
    3c6d:	48 83 c0 0c          	add    $0xc,%rax
    3c71:	89 d6                	mov    %edx,%esi
    3c73:	48 89 c7             	mov    %rax,%rdi
    3c76:	e8 a5 dd ff ff       	callq  1a20 <_ITM_WU4@plt>
    3c7b:	90                   	nop
    3c7c:	c9                   	leaveq 
    3c7d:	c3                   	retq   

0000000000003c7e <_ZGTtN8HashNodeIiiE7getNextEv>:
    3c7e:	55                   	push   %rbp
    3c7f:	48 89 e5             	mov    %rsp,%rbp
    3c82:	48 83 ec 10          	sub    $0x10,%rsp
    3c86:	48 89 7d f8          	mov    %rdi,-0x8(%rbp)
    3c8a:	48 8b 45 f8          	mov    -0x8(%rbp),%rax
    3c8e:	48 89 c7             	mov    %rax,%rdi
    3c91:	e8 ea dd ff ff       	callq  1a80 <_ITM_RU8@plt>
    3c96:	c9                   	leaveq 
    3c97:	c3                   	retq   

0000000000003c98 <_ZGTtN8HashNodeIiiE6getKeyEv>:
    3c98:	55                   	push   %rbp
    3c99:	48 89 e5             	mov    %rsp,%rbp
    3c9c:	48 89 7d f8          	mov    %rdi,-0x8(%rbp)
    3ca0:	48 8b 45 f8          	mov    -0x8(%rbp),%rax
    3ca4:	48 83 c0 08          	add    $0x8,%rax
    3ca8:	5d                   	pop    %rbp
    3ca9:	c3                   	retq   

0000000000003caa <_ZGTtN8HashNodeI9tm_stringS0_E10insertNextEPS1_>:
    3caa:	55                   	push   %rbp
    3cab:	48 89 e5             	mov    %rsp,%rbp
    3cae:	48 83 ec 10          	sub    $0x10,%rsp
    3cb2:	48 89 7d f8          	mov    %rdi,-0x8(%rbp)
    3cb6:	48 89 75 f0          	mov    %rsi,-0x10(%rbp)
    3cba:	48 8b 55 f0          	mov    -0x10(%rbp),%rdx
    3cbe:	48 8b 45 f8          	mov    -0x8(%rbp),%rax
    3cc2:	48 89 d6             	mov    %rdx,%rsi
    3cc5:	48 89 c7             	mov    %rax,%rdi
    3cc8:	e8 33 de ff ff       	callq  1b00 <_ITM_WU8@plt>
    3ccd:	90                   	nop
    3cce:	c9                   	leaveq 
    3ccf:	c3                   	retq   

0000000000003cd0 <_ZGTtN8HashNodeIi9tm_stringE10insertNextEPS1_>:
    3cd0:	55                   	push   %rbp
    3cd1:	48 89 e5             	mov    %rsp,%rbp
    3cd4:	48 83 ec 10          	sub    $0x10,%rsp
    3cd8:	48 89 7d f8          	mov    %rdi,-0x8(%rbp)
    3cdc:	48 89 75 f0          	mov    %rsi,-0x10(%rbp)
    3ce0:	48 8b 55 f0          	mov    -0x10(%rbp),%rdx
    3ce4:	48 8b 45 f8          	mov    -0x8(%rbp),%rax
    3ce8:	48 89 d6             	mov    %rdx,%rsi
    3ceb:	48 89 c7             	mov    %rax,%rdi
    3cee:	e8 0d de ff ff       	callq  1b00 <_ITM_WU8@plt>
    3cf3:	90                   	nop
    3cf4:	c9                   	leaveq 
    3cf5:	c3                   	retq   

0000000000003cf6 <_ZGTtN8HashNodeI9tm_stringiE10insertNextEPS1_>:
    3cf6:	55                   	push   %rbp
    3cf7:	48 89 e5             	mov    %rsp,%rbp
    3cfa:	48 83 ec 10          	sub    $0x10,%rsp
    3cfe:	48 89 7d f8          	mov    %rdi,-0x8(%rbp)
    3d02:	48 89 75 f0          	mov    %rsi,-0x10(%rbp)
    3d06:	48 8b 55 f0          	mov    -0x10(%rbp),%rdx
    3d0a:	48 8b 45 f8          	mov    -0x8(%rbp),%rax
    3d0e:	48 89 d6             	mov    %rdx,%rsi
    3d11:	48 89 c7             	mov    %rax,%rdi
    3d14:	e8 e7 dd ff ff       	callq  1b00 <_ITM_WU8@plt>
    3d19:	90                   	nop
    3d1a:	c9                   	leaveq 
    3d1b:	c3                   	retq   

0000000000003d1c <_ZGTtN8HashNodeIiiE10insertNextEPS0_>:
    3d1c:	55                   	push   %rbp
    3d1d:	48 89 e5             	mov    %rsp,%rbp
    3d20:	48 83 ec 10          	sub    $0x10,%rsp
    3d24:	48 89 7d f8          	mov    %rdi,-0x8(%rbp)
    3d28:	48 89 75 f0          	mov    %rsi,-0x10(%rbp)
    3d2c:	48 8b 55 f0          	mov    -0x10(%rbp),%rdx
    3d30:	48 8b 45 f8          	mov    -0x8(%rbp),%rax
    3d34:	48 89 d6             	mov    %rdx,%rsi
    3d37:	48 89 c7             	mov    %rax,%rdi
    3d3a:	e8 c1 dd ff ff       	callq  1b00 <_ITM_WU8@plt>
    3d3f:	90                   	nop
    3d40:	c9                   	leaveq 
    3d41:	c3                   	retq   

0000000000003d42 <_ZGTtN6BucketI9tm_stringS0_E6appendEP8HashNodeIS0_S0_E>:
    3d42:	55                   	push   %rbp
    3d43:	48 89 e5             	mov    %rsp,%rbp
    3d46:	48 83 ec 10          	sub    $0x10,%rsp
    3d4a:	48 89 7d f8          	mov    %rdi,-0x8(%rbp)
    3d4e:	48 89 75 f0          	mov    %rsi,-0x10(%rbp)
    3d52:	48 8b 45 f8          	mov    -0x8(%rbp),%rax
    3d56:	48 89 c7             	mov    %rax,%rdi
    3d59:	e8 22 dd ff ff       	callq  1a80 <_ITM_RU8@plt>
    3d5e:	48 89 c2             	mov    %rax,%rdx
    3d61:	48 8b 45 f0          	mov    -0x10(%rbp),%rax
    3d65:	48 89 d6             	mov    %rdx,%rsi
    3d68:	48 89 c7             	mov    %rax,%rdi
    3d6b:	e8 3a ff ff ff       	callq  3caa <_ZGTtN8HashNodeI9tm_stringS0_E10insertNextEPS1_>
    3d70:	48 8b 55 f0          	mov    -0x10(%rbp),%rdx
    3d74:	48 8b 45 f8          	mov    -0x8(%rbp),%rax
    3d78:	48 89 d6             	mov    %rdx,%rsi
    3d7b:	48 89 c7             	mov    %rax,%rdi
    3d7e:	e8 7d dd ff ff       	callq  1b00 <_ITM_WU8@plt>
    3d83:	90                   	nop
    3d84:	c9                   	leaveq 
    3d85:	c3                   	retq   

0000000000003d86 <_ZGTtN6BucketIi9tm_stringE6appendEP8HashNodeIiS0_E>:
    3d86:	55                   	push   %rbp
    3d87:	48 89 e5             	mov    %rsp,%rbp
    3d8a:	48 83 ec 10          	sub    $0x10,%rsp
    3d8e:	48 89 7d f8          	mov    %rdi,-0x8(%rbp)
    3d92:	48 89 75 f0          	mov    %rsi,-0x10(%rbp)
    3d96:	48 8b 45 f8          	mov    -0x8(%rbp),%rax
    3d9a:	48 89 c7             	mov    %rax,%rdi
    3d9d:	e8 de dc ff ff       	callq  1a80 <_ITM_RU8@plt>
    3da2:	48 89 c2             	mov    %rax,%rdx
    3da5:	48 8b 45 f0          	mov    -0x10(%rbp),%rax
    3da9:	48 89 d6             	mov    %rdx,%rsi
    3dac:	48 89 c7             	mov    %rax,%rdi
    3daf:	e8 1c ff ff ff       	callq  3cd0 <_ZGTtN8HashNodeIi9tm_stringE10insertNextEPS1_>
    3db4:	48 8b 55 f0          	mov    -0x10(%rbp),%rdx
    3db8:	48 8b 45 f8          	mov    -0x8(%rbp),%rax
    3dbc:	48 89 d6             	mov    %rdx,%rsi
    3dbf:	48 89 c7             	mov    %rax,%rdi
    3dc2:	e8 39 dd ff ff       	callq  1b00 <_ITM_WU8@plt>
    3dc7:	90                   	nop
    3dc8:	c9                   	leaveq 
    3dc9:	c3                   	retq   

0000000000003dca <_ZGTtN6BucketI9tm_stringiE6appendEP8HashNodeIS0_iE>:
    3dca:	55                   	push   %rbp
    3dcb:	48 89 e5             	mov    %rsp,%rbp
    3dce:	48 83 ec 10          	sub    $0x10,%rsp
    3dd2:	48 89 7d f8          	mov    %rdi,-0x8(%rbp)
    3dd6:	48 89 75 f0          	mov    %rsi,-0x10(%rbp)
    3dda:	48 8b 45 f8          	mov    -0x8(%rbp),%rax
    3dde:	48 89 c7             	mov    %rax,%rdi
    3de1:	e8 9a dc ff ff       	callq  1a80 <_ITM_RU8@plt>
    3de6:	48 89 c2             	mov    %rax,%rdx
    3de9:	48 8b 45 f0          	mov    -0x10(%rbp),%rax
    3ded:	48 89 d6             	mov    %rdx,%rsi
    3df0:	48 89 c7             	mov    %rax,%rdi
    3df3:	e8 fe fe ff ff       	callq  3cf6 <_ZGTtN8HashNodeI9tm_stringiE10insertNextEPS1_>
    3df8:	48 8b 55 f0          	mov    -0x10(%rbp),%rdx
    3dfc:	48 8b 45 f8          	mov    -0x8(%rbp),%rax
    3e00:	48 89 d6             	mov    %rdx,%rsi
    3e03:	48 89 c7             	mov    %rax,%rdi
    3e06:	e8 f5 dc ff ff       	callq  1b00 <_ITM_WU8@plt>
    3e0b:	90                   	nop
    3e0c:	c9                   	leaveq 
    3e0d:	c3                   	retq   

0000000000003e0e <_ZGTtN6BucketIiiE6appendEP8HashNodeIiiE>:
    3e0e:	55                   	push   %rbp
    3e0f:	48 89 e5             	mov    %rsp,%rbp
    3e12:	48 83 ec 10          	sub    $0x10,%rsp
    3e16:	48 89 7d f8          	mov    %rdi,-0x8(%rbp)
    3e1a:	48 89 75 f0          	mov    %rsi,-0x10(%rbp)
    3e1e:	48 8b 45 f8          	mov    -0x8(%rbp),%rax
    3e22:	48 89 c7             	mov    %rax,%rdi
    3e25:	e8 56 dc ff ff       	callq  1a80 <_ITM_RU8@plt>
    3e2a:	48 89 c2             	mov    %rax,%rdx
    3e2d:	48 8b 45 f0          	mov    -0x10(%rbp),%rax
    3e31:	48 89 d6             	mov    %rdx,%rsi
    3e34:	48 89 c7             	mov    %rax,%rdi
    3e37:	e8 e0 fe ff ff       	callq  3d1c <_ZGTtN8HashNodeIiiE10insertNextEPS0_>
    3e3c:	48 8b 55 f0          	mov    -0x10(%rbp),%rdx
    3e40:	48 8b 45 f8          	mov    -0x8(%rbp),%rax
    3e44:	48 89 d6             	mov    %rdx,%rsi
    3e47:	48 89 c7             	mov    %rax,%rdi
    3e4a:	e8 b1 dc ff ff       	callq  1b00 <_ITM_WU8@plt>
    3e4f:	90                   	nop
    3e50:	c9                   	leaveq 
    3e51:	c3                   	retq   

0000000000003e52 <_ZGTtN6BucketIiiE7getNodeEv>:
    3e52:	55                   	push   %rbp
    3e53:	48 89 e5             	mov    %rsp,%rbp
    3e56:	48 83 ec 10          	sub    $0x10,%rsp
    3e5a:	48 89 7d f8          	mov    %rdi,-0x8(%rbp)
    3e5e:	48 8b 45 f8          	mov    -0x8(%rbp),%rax
    3e62:	48 89 c7             	mov    %rax,%rdi
    3e65:	e8 16 dc ff ff       	callq  1a80 <_ITM_RU8@plt>
    3e6a:	c9                   	leaveq 
    3e6b:	c3                   	retq   

0000000000003e6c <_ZGTtN6BucketIiiE7setNodeEP8HashNodeIiiE>:
    3e6c:	55                   	push   %rbp
    3e6d:	48 89 e5             	mov    %rsp,%rbp
    3e70:	48 83 ec 10          	sub    $0x10,%rsp
    3e74:	48 89 7d f8          	mov    %rdi,-0x8(%rbp)
    3e78:	48 89 75 f0          	mov    %rsi,-0x10(%rbp)
    3e7c:	48 8b 55 f0          	mov    -0x10(%rbp),%rdx
    3e80:	48 8b 45 f8          	mov    -0x8(%rbp),%rax
    3e84:	48 89 d6             	mov    %rdx,%rsi
    3e87:	48 89 c7             	mov    %rax,%rdi
    3e8a:	e8 71 dc ff ff       	callq  1b00 <_ITM_WU8@plt>
    3e8f:	90                   	nop
    3e90:	c9                   	leaveq 
    3e91:	c3                   	retq   

0000000000003e92 <_ZGTtSt4moveIRiEONSt16remove_referenceIT_E4typeEOS2_>:
    3e92:	55                   	push   %rbp
    3e93:	48 89 e5             	mov    %rsp,%rbp
    3e96:	48 89 7d f8          	mov    %rdi,-0x8(%rbp)
    3e9a:	48 8b 45 f8          	mov    -0x8(%rbp),%rax
    3e9e:	5d                   	pop    %rbp
    3e9f:	c3                   	retq   

0000000000003ea0 <_ZNSt9exceptionC1Ev>:
    3ea0:	55                   	push   %rbp
    3ea1:	48 89 e5             	mov    %rsp,%rbp
    3ea4:	48 89 7d f8          	mov    %rdi,-0x8(%rbp)
    3ea8:	48 8d 15 e9 ac 20 00 	lea    0x20ace9(%rip),%rdx        # 20eb98 <_ZTVSt9exception@@GLIBCXX_3.4+0x10>
    3eaf:	48 8b 45 f8          	mov    -0x8(%rbp),%rax
    3eb3:	48 89 10             	mov    %rdx,(%rax)
    3eb6:	90                   	nop
    3eb7:	5d                   	pop    %rbp
    3eb8:	c3                   	retq   

0000000000003eb9 <_ZnwmPv>:
    3eb9:	55                   	push   %rbp
    3eba:	48 89 e5             	mov    %rsp,%rbp
    3ebd:	48 89 7d f8          	mov    %rdi,-0x8(%rbp)
    3ec1:	48 89 75 f0          	mov    %rsi,-0x10(%rbp)
    3ec5:	48 8b 45 f0          	mov    -0x10(%rbp),%rax
    3ec9:	5d                   	pop    %rbp
    3eca:	c3                   	retq   

0000000000003ecb <_ZL20__gthread_mutex_lockP15pthread_mutex_t>:
    3ecb:	55                   	push   %rbp
    3ecc:	48 89 e5             	mov    %rsp,%rbp
    3ecf:	48 83 ec 10          	sub    $0x10,%rsp
    3ed3:	48 89 7d f8          	mov    %rdi,-0x8(%rbp)
    3ed7:	e8 da de ff ff       	callq  1db6 <_ZL18__gthread_active_pv>
    3edc:	85 c0                	test   %eax,%eax
    3ede:	0f 95 c0             	setne  %al
    3ee1:	84 c0                	test   %al,%al
    3ee3:	74 0e                	je     3ef3 <_ZL20__gthread_mutex_lockP15pthread_mutex_t+0x28>
    3ee5:	48 8b 45 f8          	mov    -0x8(%rbp),%rax
    3ee9:	48 89 c7             	mov    %rax,%rdi
    3eec:	e8 ef dc ff ff       	callq  1be0 <pthread_mutex_lock@plt>
    3ef1:	eb 05                	jmp    3ef8 <_ZL20__gthread_mutex_lockP15pthread_mutex_t+0x2d>
    3ef3:	b8 00 00 00 00       	mov    $0x0,%eax
    3ef8:	c9                   	leaveq 
    3ef9:	c3                   	retq   

0000000000003efa <_ZL22__gthread_mutex_unlockP15pthread_mutex_t>:
    3efa:	55                   	push   %rbp
    3efb:	48 89 e5             	mov    %rsp,%rbp
    3efe:	48 83 ec 10          	sub    $0x10,%rsp
    3f02:	48 89 7d f8          	mov    %rdi,-0x8(%rbp)
    3f06:	e8 ab de ff ff       	callq  1db6 <_ZL18__gthread_active_pv>
    3f0b:	85 c0                	test   %eax,%eax
    3f0d:	0f 95 c0             	setne  %al
    3f10:	84 c0                	test   %al,%al
    3f12:	74 0e                	je     3f22 <_ZL22__gthread_mutex_unlockP15pthread_mutex_t+0x28>
    3f14:	48 8b 45 f8          	mov    -0x8(%rbp),%rax
    3f18:	48 89 c7             	mov    %rax,%rdi
    3f1b:	e8 c0 db ff ff       	callq  1ae0 <pthread_mutex_unlock@plt>
    3f20:	eb 05                	jmp    3f27 <_ZL22__gthread_mutex_unlockP15pthread_mutex_t+0x2d>
    3f22:	b8 00 00 00 00       	mov    $0x0,%eax
    3f27:	c9                   	leaveq 
    3f28:	c3                   	retq   
    3f29:	90                   	nop

0000000000003f2a <_ZNKSt4hashIiEclEi>:
    3f2a:	55                   	push   %rbp
    3f2b:	48 89 e5             	mov    %rsp,%rbp
    3f2e:	48 89 7d f8          	mov    %rdi,-0x8(%rbp)
    3f32:	89 75 f4             	mov    %esi,-0xc(%rbp)
    3f35:	8b 45 f4             	mov    -0xc(%rbp),%eax
    3f38:	48 98                	cltq   
    3f3a:	5d                   	pop    %rbp
    3f3b:	c3                   	retq   

0000000000003f3c <_ZNK19InvalidReadExeption4whatEv>:
    3f3c:	55                   	push   %rbp
    3f3d:	48 89 e5             	mov    %rsp,%rbp
    3f40:	48 89 7d f8          	mov    %rdi,-0x8(%rbp)
    3f44:	48 8d 05 bd 5c 00 00 	lea    0x5cbd(%rip),%rax        # 9c08 <_IO_stdin_used+0x8>
    3f4b:	5d                   	pop    %rbp
    3f4c:	c3                   	retq   

0000000000003f4d <_ZStanSt12memory_orderSt23__memory_order_modifier>:
    3f4d:	55                   	push   %rbp
    3f4e:	48 89 e5             	mov    %rsp,%rbp
    3f51:	89 7d fc             	mov    %edi,-0x4(%rbp)
    3f54:	89 75 f8             	mov    %esi,-0x8(%rbp)
    3f57:	8b 55 fc             	mov    -0x4(%rbp),%edx
    3f5a:	8b 45 f8             	mov    -0x8(%rbp),%eax
    3f5d:	21 d0                	and    %edx,%eax
    3f5f:	5d                   	pop    %rbp
    3f60:	c3                   	retq   
    3f61:	90                   	nop

0000000000003f62 <_ZNSt11atomic_flagC1Eb>:
    3f62:	55                   	push   %rbp
    3f63:	48 89 e5             	mov    %rsp,%rbp
    3f66:	48 83 ec 10          	sub    $0x10,%rsp
    3f6a:	48 89 7d f8          	mov    %rdi,-0x8(%rbp)
    3f6e:	89 f0                	mov    %esi,%eax
    3f70:	88 45 f4             	mov    %al,-0xc(%rbp)
    3f73:	0f b6 45 f4          	movzbl -0xc(%rbp),%eax
    3f77:	89 c7                	mov    %eax,%edi
    3f79:	e8 09 00 00 00       	callq  3f87 <_ZNSt11atomic_flag7_S_initEb>
    3f7e:	48 8b 55 f8          	mov    -0x8(%rbp),%rdx
    3f82:	88 02                	mov    %al,(%rdx)
    3f84:	90                   	nop
    3f85:	c9                   	leaveq 
    3f86:	c3                   	retq   

0000000000003f87 <_ZNSt11atomic_flag7_S_initEb>:
    3f87:	55                   	push   %rbp
    3f88:	48 89 e5             	mov    %rsp,%rbp
    3f8b:	89 f8                	mov    %edi,%eax
    3f8d:	88 45 fc             	mov    %al,-0x4(%rbp)
    3f90:	80 7d fc 00          	cmpb   $0x0,-0x4(%rbp)
    3f94:	74 07                	je     3f9d <_ZNSt11atomic_flag7_S_initEb+0x16>
    3f96:	b8 01 00 00 00       	mov    $0x1,%eax
    3f9b:	eb 05                	jmp    3fa2 <_ZNSt11atomic_flag7_S_initEb+0x1b>
    3f9d:	b8 00 00 00 00       	mov    $0x0,%eax
    3fa2:	85 c0                	test   %eax,%eax
    3fa4:	0f 95 c0             	setne  %al
    3fa7:	5d                   	pop    %rbp
    3fa8:	c3                   	retq   

0000000000003fa9 <_ZSt3minImERKT_S2_S2_>:
    3fa9:	55                   	push   %rbp
    3faa:	48 89 e5             	mov    %rsp,%rbp
    3fad:	48 89 7d f8          	mov    %rdi,-0x8(%rbp)
    3fb1:	48 89 75 f0          	mov    %rsi,-0x10(%rbp)
    3fb5:	48 8b 45 f0          	mov    -0x10(%rbp),%rax
    3fb9:	48 8b 10             	mov    (%rax),%rdx
    3fbc:	48 8b 45 f8          	mov    -0x8(%rbp),%rax
    3fc0:	48 8b 00             	mov    (%rax),%rax
    3fc3:	48 39 c2             	cmp    %rax,%rdx
    3fc6:	73 06                	jae    3fce <_ZSt3minImERKT_S2_S2_+0x25>
    3fc8:	48 8b 45 f0          	mov    -0x10(%rbp),%rax
    3fcc:	eb 04                	jmp    3fd2 <_ZSt3minImERKT_S2_S2_+0x29>
    3fce:	48 8b 45 f8          	mov    -0x8(%rbp),%rax
    3fd2:	5d                   	pop    %rbp
    3fd3:	c3                   	retq   

0000000000003fd4 <_ZNSt6thread2idC1Ev>:
    3fd4:	55                   	push   %rbp
    3fd5:	48 89 e5             	mov    %rsp,%rbp
    3fd8:	48 89 7d f8          	mov    %rdi,-0x8(%rbp)
    3fdc:	48 8b 45 f8          	mov    -0x8(%rbp),%rax
    3fe0:	48 c7 00 00 00 00 00 	movq   $0x0,(%rax)
    3fe7:	90                   	nop
    3fe8:	5d                   	pop    %rbp
    3fe9:	c3                   	retq   

0000000000003fea <_ZNSt6threadD1Ev>:
    3fea:	55                   	push   %rbp
    3feb:	48 89 e5             	mov    %rsp,%rbp
    3fee:	48 83 ec 10          	sub    $0x10,%rsp
    3ff2:	48 89 7d f8          	mov    %rdi,-0x8(%rbp)
    3ff6:	48 8b 45 f8          	mov    -0x8(%rbp),%rax
    3ffa:	48 89 c7             	mov    %rax,%rdi
    3ffd:	e8 70 00 00 00       	callq  4072 <_ZNKSt6thread8joinableEv>
    4002:	84 c0                	test   %al,%al
    4004:	74 05                	je     400b <_ZNSt6threadD1Ev+0x21>
    4006:	e8 35 da ff ff       	callq  1a40 <_ZSt9terminatev@plt>
    400b:	90                   	nop
    400c:	c9                   	leaveq 
    400d:	c3                   	retq   

000000000000400e <_ZNSt6threadaSEOS_>:
    400e:	55                   	push   %rbp
    400f:	48 89 e5             	mov    %rsp,%rbp
    4012:	48 83 ec 10          	sub    $0x10,%rsp
    4016:	48 89 7d f8          	mov    %rdi,-0x8(%rbp)
    401a:	48 89 75 f0          	mov    %rsi,-0x10(%rbp)
    401e:	48 8b 45 f8          	mov    -0x8(%rbp),%rax
    4022:	48 89 c7             	mov    %rax,%rdi
    4025:	e8 48 00 00 00       	callq  4072 <_ZNKSt6thread8joinableEv>
    402a:	84 c0                	test   %al,%al
    402c:	74 05                	je     4033 <_ZNSt6threadaSEOS_+0x25>
    402e:	e8 0d da ff ff       	callq  1a40 <_ZSt9terminatev@plt>
    4033:	48 8b 55 f0          	mov    -0x10(%rbp),%rdx
    4037:	48 8b 45 f8          	mov    -0x8(%rbp),%rax
    403b:	48 89 d6             	mov    %rdx,%rsi
    403e:	48 89 c7             	mov    %rax,%rdi
    4041:	e8 06 00 00 00       	callq  404c <_ZNSt6thread4swapERS_>
    4046:	48 8b 45 f8          	mov    -0x8(%rbp),%rax
    404a:	c9                   	leaveq 
    404b:	c3                   	retq   

000000000000404c <_ZNSt6thread4swapERS_>:
    404c:	55                   	push   %rbp
    404d:	48 89 e5             	mov    %rsp,%rbp
    4050:	48 83 ec 10          	sub    $0x10,%rsp
    4054:	48 89 7d f8          	mov    %rdi,-0x8(%rbp)
    4058:	48 89 75 f0          	mov    %rsi,-0x10(%rbp)
    405c:	48 8b 55 f0          	mov    -0x10(%rbp),%rdx
    4060:	48 8b 45 f8          	mov    -0x8(%rbp),%rax
    4064:	48 89 d6             	mov    %rdx,%rsi
    4067:	48 89 c7             	mov    %rax,%rdi
    406a:	e8 7d 09 00 00       	callq  49ec <_ZSt4swapINSt6thread2idEENSt9enable_ifIXsrSt6__and_IJSt6__not_ISt15__is_tuple_likeIT_EESt21is_move_constructibleIS6_ESt18is_move_assignableIS6_EEE5valueEvE4typeERS6_SG_>
    406f:	90                   	nop
    4070:	c9                   	leaveq 
    4071:	c3                   	retq   

0000000000004072 <_ZNKSt6thread8joinableEv>:
    4072:	55                   	push   %rbp
    4073:	48 89 e5             	mov    %rsp,%rbp
    4076:	48 83 ec 20          	sub    $0x20,%rsp
    407a:	48 89 7d e8          	mov    %rdi,-0x18(%rbp)
    407e:	64 48 8b 04 25 28 00 	mov    %fs:0x28,%rax
    4085:	00 00 
    4087:	48 89 45 f8          	mov    %rax,-0x8(%rbp)
    408b:	31 c0                	xor    %eax,%eax
    408d:	48 8d 45 f0          	lea    -0x10(%rbp),%rax
    4091:	48 89 c7             	mov    %rax,%rdi
    4094:	e8 3b ff ff ff       	callq  3fd4 <_ZNSt6thread2idC1Ev>
    4099:	48 8b 45 f0          	mov    -0x10(%rbp),%rax
    409d:	48 8b 55 e8          	mov    -0x18(%rbp),%rdx
    40a1:	48 89 c6             	mov    %rax,%rsi
    40a4:	48 8b 3a             	mov    (%rdx),%rdi
    40a7:	e8 19 00 00 00       	callq  40c5 <_ZSteqNSt6thread2idES0_>
    40ac:	83 f0 01             	xor    $0x1,%eax
    40af:	48 8b 4d f8          	mov    -0x8(%rbp),%rcx
    40b3:	64 48 33 0c 25 28 00 	xor    %fs:0x28,%rcx
    40ba:	00 00 
    40bc:	74 05                	je     40c3 <_ZNKSt6thread8joinableEv+0x51>
    40be:	e8 cd da ff ff       	callq  1b90 <__stack_chk_fail@plt>
    40c3:	c9                   	leaveq 
    40c4:	c3                   	retq   

00000000000040c5 <_ZSteqNSt6thread2idES0_>:
    40c5:	55                   	push   %rbp
    40c6:	48 89 e5             	mov    %rsp,%rbp
    40c9:	48 89 7d f8          	mov    %rdi,-0x8(%rbp)
    40cd:	48 89 75 f0          	mov    %rsi,-0x10(%rbp)
    40d1:	48 8b 55 f8          	mov    -0x8(%rbp),%rdx
    40d5:	48 8b 45 f0          	mov    -0x10(%rbp),%rax
    40d9:	48 39 c2             	cmp    %rax,%rdx
    40dc:	0f 94 c0             	sete   %al
    40df:	5d                   	pop    %rbp
    40e0:	c3                   	retq   
    40e1:	90                   	nop

00000000000040e2 <_ZNSt5mutex4lockEv>:
    40e2:	55                   	push   %rbp
    40e3:	48 89 e5             	mov    %rsp,%rbp
    40e6:	48 83 ec 20          	sub    $0x20,%rsp
    40ea:	48 89 7d e8          	mov    %rdi,-0x18(%rbp)
    40ee:	48 8b 45 e8          	mov    -0x18(%rbp),%rax
    40f2:	48 89 c7             	mov    %rax,%rdi
    40f5:	e8 d1 fd ff ff       	callq  3ecb <_ZL20__gthread_mutex_lockP15pthread_mutex_t>
    40fa:	89 45 fc             	mov    %eax,-0x4(%rbp)
    40fd:	83 7d fc 00          	cmpl   $0x0,-0x4(%rbp)
    4101:	74 0a                	je     410d <_ZNSt5mutex4lockEv+0x2b>
    4103:	8b 45 fc             	mov    -0x4(%rbp),%eax
    4106:	89 c7                	mov    %eax,%edi
    4108:	e8 b3 d9 ff ff       	callq  1ac0 <_ZSt20__throw_system_errori@plt>
    410d:	90                   	nop
    410e:	c9                   	leaveq 
    410f:	c3                   	retq   

0000000000004110 <_ZNSt5mutex6unlockEv>:
    4110:	55                   	push   %rbp
    4111:	48 89 e5             	mov    %rsp,%rbp
    4114:	48 83 ec 10          	sub    $0x10,%rsp
    4118:	48 89 7d f8          	mov    %rdi,-0x8(%rbp)
    411c:	48 8b 45 f8          	mov    -0x8(%rbp),%rax
    4120:	48 89 c7             	mov    %rax,%rdi
    4123:	e8 d2 fd ff ff       	callq  3efa <_ZL22__gthread_mutex_unlockP15pthread_mutex_t>
    4128:	90                   	nop
    4129:	c9                   	leaveq 
    412a:	c3                   	retq   

000000000000412b <_ZStL23__glibcxx_rwlock_rdlockP16pthread_rwlock_t>:
    412b:	55                   	push   %rbp
    412c:	48 89 e5             	mov    %rsp,%rbp
    412f:	48 83 ec 10          	sub    $0x10,%rsp
    4133:	48 89 7d f8          	mov    %rdi,-0x8(%rbp)
    4137:	e8 7a dc ff ff       	callq  1db6 <_ZL18__gthread_active_pv>
    413c:	85 c0                	test   %eax,%eax
    413e:	0f 95 c0             	setne  %al
    4141:	84 c0                	test   %al,%al
    4143:	74 0e                	je     4153 <_ZStL23__glibcxx_rwlock_rdlockP16pthread_rwlock_t+0x28>
    4145:	48 8b 45 f8          	mov    -0x8(%rbp),%rax
    4149:	48 89 c7             	mov    %rax,%rdi
    414c:	e8 5f da ff ff       	callq  1bb0 <pthread_rwlock_rdlock@plt>
    4151:	eb 05                	jmp    4158 <_ZStL23__glibcxx_rwlock_rdlockP16pthread_rwlock_t+0x2d>
    4153:	b8 00 00 00 00       	mov    $0x0,%eax
    4158:	c9                   	leaveq 
    4159:	c3                   	retq   

000000000000415a <_ZStL23__glibcxx_rwlock_wrlockP16pthread_rwlock_t>:
    415a:	55                   	push   %rbp
    415b:	48 89 e5             	mov    %rsp,%rbp
    415e:	48 83 ec 10          	sub    $0x10,%rsp
    4162:	48 89 7d f8          	mov    %rdi,-0x8(%rbp)
    4166:	e8 4b dc ff ff       	callq  1db6 <_ZL18__gthread_active_pv>
    416b:	85 c0                	test   %eax,%eax
    416d:	0f 95 c0             	setne  %al
    4170:	84 c0                	test   %al,%al
    4172:	74 0e                	je     4182 <_ZStL23__glibcxx_rwlock_wrlockP16pthread_rwlock_t+0x28>
    4174:	48 8b 45 f8          	mov    -0x8(%rbp),%rax
    4178:	48 89 c7             	mov    %rax,%rdi
    417b:	e8 70 d9 ff ff       	callq  1af0 <pthread_rwlock_wrlock@plt>
    4180:	eb 05                	jmp    4187 <_ZStL23__glibcxx_rwlock_wrlockP16pthread_rwlock_t+0x2d>
    4182:	b8 00 00 00 00       	mov    $0x0,%eax
    4187:	c9                   	leaveq 
    4188:	c3                   	retq   

0000000000004189 <_ZStL23__glibcxx_rwlock_unlockP16pthread_rwlock_t>:
    4189:	55                   	push   %rbp
    418a:	48 89 e5             	mov    %rsp,%rbp
    418d:	48 83 ec 10          	sub    $0x10,%rsp
    4191:	48 89 7d f8          	mov    %rdi,-0x8(%rbp)
    4195:	e8 1c dc ff ff       	callq  1db6 <_ZL18__gthread_active_pv>
    419a:	85 c0                	test   %eax,%eax
    419c:	0f 95 c0             	setne  %al
    419f:	84 c0                	test   %al,%al
    41a1:	74 0e                	je     41b1 <_ZStL23__glibcxx_rwlock_unlockP16pthread_rwlock_t+0x28>
    41a3:	48 8b 45 f8          	mov    -0x8(%rbp),%rax
    41a7:	48 89 c7             	mov    %rax,%rdi
    41aa:	e8 61 da ff ff       	callq  1c10 <pthread_rwlock_unlock@plt>
    41af:	eb 05                	jmp    41b6 <_ZStL23__glibcxx_rwlock_unlockP16pthread_rwlock_t+0x2d>
    41b1:	b8 00 00 00 00       	mov    $0x0,%eax
    41b6:	c9                   	leaveq 
    41b7:	c3                   	retq   

00000000000041b8 <_ZNSt22__shared_mutex_pthread4lockEv>:
    41b8:	55                   	push   %rbp
    41b9:	48 89 e5             	mov    %rsp,%rbp
    41bc:	48 83 ec 20          	sub    $0x20,%rsp
    41c0:	48 89 7d e8          	mov    %rdi,-0x18(%rbp)
    41c4:	48 8b 45 e8          	mov    -0x18(%rbp),%rax
    41c8:	48 89 c7             	mov    %rax,%rdi
    41cb:	e8 8a ff ff ff       	callq  415a <_ZStL23__glibcxx_rwlock_wrlockP16pthread_rwlock_t>
    41d0:	89 45 fc             	mov    %eax,-0x4(%rbp)
    41d3:	83 7d fc 23          	cmpl   $0x23,-0x4(%rbp)
    41d7:	75 0a                	jne    41e3 <_ZNSt22__shared_mutex_pthread4lockEv+0x2b>
    41d9:	bf 23 00 00 00       	mov    $0x23,%edi
    41de:	e8 dd d8 ff ff       	callq  1ac0 <_ZSt20__throw_system_errori@plt>
    41e3:	90                   	nop
    41e4:	c9                   	leaveq 
    41e5:	c3                   	retq   

00000000000041e6 <_ZNSt22__shared_mutex_pthread6unlockEv>:
    41e6:	55                   	push   %rbp
    41e7:	48 89 e5             	mov    %rsp,%rbp
    41ea:	48 83 ec 20          	sub    $0x20,%rsp
    41ee:	48 89 7d e8          	mov    %rdi,-0x18(%rbp)
    41f2:	48 8b 45 e8          	mov    -0x18(%rbp),%rax
    41f6:	48 89 c7             	mov    %rax,%rdi
    41f9:	e8 8b ff ff ff       	callq  4189 <_ZStL23__glibcxx_rwlock_unlockP16pthread_rwlock_t>
    41fe:	89 45 fc             	mov    %eax,-0x4(%rbp)
    4201:	90                   	nop
    4202:	c9                   	leaveq 
    4203:	c3                   	retq   

0000000000004204 <_ZNSt22__shared_mutex_pthread11lock_sharedEv>:
    4204:	55                   	push   %rbp
    4205:	48 89 e5             	mov    %rsp,%rbp
    4208:	48 83 ec 20          	sub    $0x20,%rsp
    420c:	48 89 7d e8          	mov    %rdi,-0x18(%rbp)
    4210:	eb 01                	jmp    4213 <_ZNSt22__shared_mutex_pthread11lock_sharedEv+0xf>
    4212:	90                   	nop
    4213:	48 8b 45 e8          	mov    -0x18(%rbp),%rax
    4217:	48 89 c7             	mov    %rax,%rdi
    421a:	e8 0c ff ff ff       	callq  412b <_ZStL23__glibcxx_rwlock_rdlockP16pthread_rwlock_t>
    421f:	89 45 fc             	mov    %eax,-0x4(%rbp)
    4222:	83 7d fc 0b          	cmpl   $0xb,-0x4(%rbp)
    4226:	74 ea                	je     4212 <_ZNSt22__shared_mutex_pthread11lock_sharedEv+0xe>
    4228:	83 7d fc 23          	cmpl   $0x23,-0x4(%rbp)
    422c:	75 0a                	jne    4238 <_ZNSt22__shared_mutex_pthread11lock_sharedEv+0x34>
    422e:	bf 23 00 00 00       	mov    $0x23,%edi
    4233:	e8 88 d8 ff ff       	callq  1ac0 <_ZSt20__throw_system_errori@plt>
    4238:	90                   	nop
    4239:	c9                   	leaveq 
    423a:	c3                   	retq   
    423b:	90                   	nop

000000000000423c <_ZNSt22__shared_mutex_pthread13unlock_sharedEv>:
    423c:	55                   	push   %rbp
    423d:	48 89 e5             	mov    %rsp,%rbp
    4240:	48 83 ec 10          	sub    $0x10,%rsp
    4244:	48 89 7d f8          	mov    %rdi,-0x8(%rbp)
    4248:	48 8b 45 f8          	mov    -0x8(%rbp),%rax
    424c:	48 89 c7             	mov    %rax,%rdi
    424f:	e8 92 ff ff ff       	callq  41e6 <_ZNSt22__shared_mutex_pthread6unlockEv>
    4254:	90                   	nop
    4255:	c9                   	leaveq 
    4256:	c3                   	retq   
    4257:	90                   	nop

0000000000004258 <_ZNSt18shared_timed_mutex4lockEv>:
    4258:	55                   	push   %rbp
    4259:	48 89 e5             	mov    %rsp,%rbp
    425c:	48 83 ec 10          	sub    $0x10,%rsp
    4260:	48 89 7d f8          	mov    %rdi,-0x8(%rbp)
    4264:	48 8b 45 f8          	mov    -0x8(%rbp),%rax
    4268:	48 89 c7             	mov    %rax,%rdi
    426b:	e8 48 ff ff ff       	callq  41b8 <_ZNSt22__shared_mutex_pthread4lockEv>
    4270:	90                   	nop
    4271:	c9                   	leaveq 
    4272:	c3                   	retq   
    4273:	90                   	nop

0000000000004274 <_ZNSt18shared_timed_mutex6unlockEv>:
    4274:	55                   	push   %rbp
    4275:	48 89 e5             	mov    %rsp,%rbp
    4278:	48 83 ec 10          	sub    $0x10,%rsp
    427c:	48 89 7d f8          	mov    %rdi,-0x8(%rbp)
    4280:	48 8b 45 f8          	mov    -0x8(%rbp),%rax
    4284:	48 89 c7             	mov    %rax,%rdi
    4287:	e8 5a ff ff ff       	callq  41e6 <_ZNSt22__shared_mutex_pthread6unlockEv>
    428c:	90                   	nop
    428d:	c9                   	leaveq 
    428e:	c3                   	retq   
    428f:	90                   	nop

0000000000004290 <_ZNSt18shared_timed_mutex11lock_sharedEv>:
    4290:	55                   	push   %rbp
    4291:	48 89 e5             	mov    %rsp,%rbp
    4294:	48 83 ec 10          	sub    $0x10,%rsp
    4298:	48 89 7d f8          	mov    %rdi,-0x8(%rbp)
    429c:	48 8b 45 f8          	mov    -0x8(%rbp),%rax
    42a0:	48 89 c7             	mov    %rax,%rdi
    42a3:	e8 5c ff ff ff       	callq  4204 <_ZNSt22__shared_mutex_pthread11lock_sharedEv>
    42a8:	90                   	nop
    42a9:	c9                   	leaveq 
    42aa:	c3                   	retq   
    42ab:	90                   	nop

00000000000042ac <_ZNSt18shared_timed_mutex13unlock_sharedEv>:
    42ac:	55                   	push   %rbp
    42ad:	48 89 e5             	mov    %rsp,%rbp
    42b0:	48 83 ec 10          	sub    $0x10,%rsp
    42b4:	48 89 7d f8          	mov    %rdi,-0x8(%rbp)
    42b8:	48 8b 45 f8          	mov    -0x8(%rbp),%rax
    42bc:	48 89 c7             	mov    %rax,%rdi
    42bf:	e8 78 ff ff ff       	callq  423c <_ZNSt22__shared_mutex_pthread13unlock_sharedEv>
    42c4:	90                   	nop
    42c5:	c9                   	leaveq 
    42c6:	c3                   	retq   
    42c7:	90                   	nop

00000000000042c8 <_ZN6BucketIiiE7setNodeEP8HashNodeIiiE>:
    42c8:	55                   	push   %rbp
    42c9:	48 89 e5             	mov    %rsp,%rbp
    42cc:	48 89 7d f8          	mov    %rdi,-0x8(%rbp)
    42d0:	48 89 75 f0          	mov    %rsi,-0x10(%rbp)
    42d4:	48 8b 45 f8          	mov    -0x8(%rbp),%rax
    42d8:	48 8b 55 f0          	mov    -0x10(%rbp),%rdx
    42dc:	48 89 10             	mov    %rdx,(%rax)
    42df:	90                   	nop
    42e0:	5d                   	pop    %rbp
    42e1:	c3                   	retq   

00000000000042e2 <_ZN6BucketIiiE7getNodeEv>:
    42e2:	55                   	push   %rbp
    42e3:	48 89 e5             	mov    %rsp,%rbp
    42e6:	48 89 7d f8          	mov    %rdi,-0x8(%rbp)
    42ea:	48 8b 45 f8          	mov    -0x8(%rbp),%rax
    42ee:	48 8b 00             	mov    (%rax),%rax
    42f1:	5d                   	pop    %rbp
    42f2:	c3                   	retq   
    42f3:	90                   	nop

00000000000042f4 <_ZN6BucketIiiE5emptyEv>:
    42f4:	55                   	push   %rbp
    42f5:	48 89 e5             	mov    %rsp,%rbp
    42f8:	48 89 7d f8          	mov    %rdi,-0x8(%rbp)
    42fc:	48 8b 45 f8          	mov    -0x8(%rbp),%rax
    4300:	48 8b 00             	mov    (%rax),%rax
    4303:	48 85 c0             	test   %rax,%rax
    4306:	0f 94 c0             	sete   %al
    4309:	5d                   	pop    %rbp
    430a:	c3                   	retq   
    430b:	90                   	nop

000000000000430c <_ZN6BucketIiiE6appendEP8HashNodeIiiE>:
    430c:	55                   	push   %rbp
    430d:	48 89 e5             	mov    %rsp,%rbp
    4310:	48 83 ec 10          	sub    $0x10,%rsp
    4314:	48 89 7d f8          	mov    %rdi,-0x8(%rbp)
    4318:	48 89 75 f0          	mov    %rsi,-0x10(%rbp)
    431c:	48 8b 45 f8          	mov    -0x8(%rbp),%rax
    4320:	48 8b 10             	mov    (%rax),%rdx
    4323:	48 8b 45 f0          	mov    -0x10(%rbp),%rax
    4327:	48 89 d6             	mov    %rdx,%rsi
    432a:	48 89 c7             	mov    %rax,%rdi
    432d:	e8 00 20 00 00       	callq  6332 <_ZN8HashNodeIiiE10insertNextEPS0_>
    4332:	48 8b 45 f8          	mov    -0x8(%rbp),%rax
    4336:	48 8b 55 f0          	mov    -0x10(%rbp),%rdx
    433a:	48 89 10             	mov    %rdx,(%rax)
    433d:	90                   	nop
    433e:	c9                   	leaveq 
    433f:	c3                   	retq   

0000000000004340 <_ZN6BucketIiiEC1Ev>:
    4340:	55                   	push   %rbp
    4341:	48 89 e5             	mov    %rsp,%rbp
    4344:	48 89 7d f8          	mov    %rdi,-0x8(%rbp)
    4348:	48 8b 45 f8          	mov    -0x8(%rbp),%rax
    434c:	48 c7 00 00 00 00 00 	movq   $0x0,(%rax)
    4353:	90                   	nop
    4354:	5d                   	pop    %rbp
    4355:	c3                   	retq   

0000000000004356 <_ZN6BucketIiiEC1EP8HashNodeIiiE>:
    4356:	55                   	push   %rbp
    4357:	48 89 e5             	mov    %rsp,%rbp
    435a:	48 89 7d f8          	mov    %rdi,-0x8(%rbp)
    435e:	48 89 75 f0          	mov    %rsi,-0x10(%rbp)
    4362:	48 8b 45 f8          	mov    -0x8(%rbp),%rax
    4366:	48 8b 55 f0          	mov    -0x10(%rbp),%rdx
    436a:	48 89 10             	mov    %rdx,(%rax)
    436d:	90                   	nop
    436e:	5d                   	pop    %rbp
    436f:	c3                   	retq   

0000000000004370 <_ZN6BucketIiiEC1ERKS0_>:
    4370:	55                   	push   %rbp
    4371:	48 89 e5             	mov    %rsp,%rbp
    4374:	48 89 7d f8          	mov    %rdi,-0x8(%rbp)
    4378:	48 89 75 f0          	mov    %rsi,-0x10(%rbp)
    437c:	48 8b 45 f0          	mov    -0x10(%rbp),%rax
    4380:	48 8b 10             	mov    (%rax),%rdx
    4383:	48 8b 45 f8          	mov    -0x8(%rbp),%rax
    4387:	48 89 10             	mov    %rdx,(%rax)
    438a:	90                   	nop
    438b:	5d                   	pop    %rbp
    438c:	c3                   	retq   
    438d:	90                   	nop

000000000000438e <_ZN6BucketIiiEaSES0_>:
    438e:	55                   	push   %rbp
    438f:	48 89 e5             	mov    %rsp,%rbp
    4392:	48 89 7d f8          	mov    %rdi,-0x8(%rbp)
    4396:	48 89 75 f0          	mov    %rsi,-0x10(%rbp)
    439a:	48 8b 45 f0          	mov    -0x10(%rbp),%rax
    439e:	48 8b 10             	mov    (%rax),%rdx
    43a1:	48 8b 45 f8          	mov    -0x8(%rbp),%rax
    43a5:	48 89 10             	mov    %rdx,(%rax)
    43a8:	48 8b 45 f8          	mov    -0x8(%rbp),%rax
    43ac:	5d                   	pop    %rbp
    43ad:	c3                   	retq   

00000000000043ae <_ZN6BucketIiiEC1EOS0_>:
    43ae:	55                   	push   %rbp
    43af:	48 89 e5             	mov    %rsp,%rbp
    43b2:	48 89 7d f8          	mov    %rdi,-0x8(%rbp)
    43b6:	48 89 75 f0          	mov    %rsi,-0x10(%rbp)
    43ba:	48 8b 45 f0          	mov    -0x10(%rbp),%rax
    43be:	48 8b 10             	mov    (%rax),%rdx
    43c1:	48 8b 45 f8          	mov    -0x8(%rbp),%rax
    43c5:	48 89 10             	mov    %rdx,(%rax)
    43c8:	90                   	nop
    43c9:	5d                   	pop    %rbp
    43ca:	c3                   	retq   
    43cb:	90                   	nop

00000000000043cc <_ZN6BucketIiiEaSEOS0_>:
    43cc:	55                   	push   %rbp
    43cd:	48 89 e5             	mov    %rsp,%rbp
    43d0:	48 89 7d f8          	mov    %rdi,-0x8(%rbp)
    43d4:	48 89 75 f0          	mov    %rsi,-0x10(%rbp)
    43d8:	48 8b 45 f0          	mov    -0x10(%rbp),%rax
    43dc:	48 8b 10             	mov    (%rax),%rdx
    43df:	48 8b 45 f8          	mov    -0x8(%rbp),%rax
    43e3:	48 89 10             	mov    %rdx,(%rax)
    43e6:	48 8b 45 f8          	mov    -0x8(%rbp),%rax
    43ea:	5d                   	pop    %rbp
    43eb:	c3                   	retq   

00000000000043ec <_ZN6BucketI9tm_stringiE7setNodeEP8HashNodeIS0_iE>:
    43ec:	55                   	push   %rbp
    43ed:	48 89 e5             	mov    %rsp,%rbp
    43f0:	48 89 7d f8          	mov    %rdi,-0x8(%rbp)
    43f4:	48 89 75 f0          	mov    %rsi,-0x10(%rbp)
    43f8:	48 8b 45 f8          	mov    -0x8(%rbp),%rax
    43fc:	48 8b 55 f0          	mov    -0x10(%rbp),%rdx
    4400:	48 89 10             	mov    %rdx,(%rax)
    4403:	90                   	nop
    4404:	5d                   	pop    %rbp
    4405:	c3                   	retq   

0000000000004406 <_ZN6BucketI9tm_stringiE7getNodeEv>:
    4406:	55                   	push   %rbp
    4407:	48 89 e5             	mov    %rsp,%rbp
    440a:	48 89 7d f8          	mov    %rdi,-0x8(%rbp)
    440e:	48 8b 45 f8          	mov    -0x8(%rbp),%rax
    4412:	48 8b 00             	mov    (%rax),%rax
    4415:	5d                   	pop    %rbp
    4416:	c3                   	retq   
    4417:	90                   	nop

0000000000004418 <_ZN6BucketI9tm_stringiE5emptyEv>:
    4418:	55                   	push   %rbp
    4419:	48 89 e5             	mov    %rsp,%rbp
    441c:	48 89 7d f8          	mov    %rdi,-0x8(%rbp)
    4420:	48 8b 45 f8          	mov    -0x8(%rbp),%rax
    4424:	48 8b 00             	mov    (%rax),%rax
    4427:	48 85 c0             	test   %rax,%rax
    442a:	0f 94 c0             	sete   %al
    442d:	5d                   	pop    %rbp
    442e:	c3                   	retq   
    442f:	90                   	nop

0000000000004430 <_ZN6BucketI9tm_stringiE6appendEP8HashNodeIS0_iE>:
    4430:	55                   	push   %rbp
    4431:	48 89 e5             	mov    %rsp,%rbp
    4434:	48 83 ec 10          	sub    $0x10,%rsp
    4438:	48 89 7d f8          	mov    %rdi,-0x8(%rbp)
    443c:	48 89 75 f0          	mov    %rsi,-0x10(%rbp)
    4440:	48 8b 45 f8          	mov    -0x8(%rbp),%rax
    4444:	48 8b 10             	mov    (%rax),%rdx
    4447:	48 8b 45 f0          	mov    -0x10(%rbp),%rax
    444b:	48 89 d6             	mov    %rdx,%rsi
    444e:	48 89 c7             	mov    %rax,%rdi
    4451:	e8 f6 1e 00 00       	callq  634c <_ZN8HashNodeI9tm_stringiE10insertNextEPS1_>
    4456:	48 8b 45 f8          	mov    -0x8(%rbp),%rax
    445a:	48 8b 55 f0          	mov    -0x10(%rbp),%rdx
    445e:	48 89 10             	mov    %rdx,(%rax)
    4461:	90                   	nop
    4462:	c9                   	leaveq 
    4463:	c3                   	retq   

0000000000004464 <_ZN6BucketI9tm_stringiEC1Ev>:
    4464:	55                   	push   %rbp
    4465:	48 89 e5             	mov    %rsp,%rbp
    4468:	48 89 7d f8          	mov    %rdi,-0x8(%rbp)
    446c:	48 8b 45 f8          	mov    -0x8(%rbp),%rax
    4470:	48 c7 00 00 00 00 00 	movq   $0x0,(%rax)
    4477:	90                   	nop
    4478:	5d                   	pop    %rbp
    4479:	c3                   	retq   

000000000000447a <_ZN6BucketI9tm_stringiEC1EP8HashNodeIS0_iE>:
    447a:	55                   	push   %rbp
    447b:	48 89 e5             	mov    %rsp,%rbp
    447e:	48 89 7d f8          	mov    %rdi,-0x8(%rbp)
    4482:	48 89 75 f0          	mov    %rsi,-0x10(%rbp)
    4486:	48 8b 45 f8          	mov    -0x8(%rbp),%rax
    448a:	48 8b 55 f0          	mov    -0x10(%rbp),%rdx
    448e:	48 89 10             	mov    %rdx,(%rax)
    4491:	90                   	nop
    4492:	5d                   	pop    %rbp
    4493:	c3                   	retq   

0000000000004494 <_ZN6BucketI9tm_stringiEC1ERKS1_>:
    4494:	55                   	push   %rbp
    4495:	48 89 e5             	mov    %rsp,%rbp
    4498:	48 89 7d f8          	mov    %rdi,-0x8(%rbp)
    449c:	48 89 75 f0          	mov    %rsi,-0x10(%rbp)
    44a0:	48 8b 45 f0          	mov    -0x10(%rbp),%rax
    44a4:	48 8b 10             	mov    (%rax),%rdx
    44a7:	48 8b 45 f8          	mov    -0x8(%rbp),%rax
    44ab:	48 89 10             	mov    %rdx,(%rax)
    44ae:	90                   	nop
    44af:	5d                   	pop    %rbp
    44b0:	c3                   	retq   
    44b1:	90                   	nop

00000000000044b2 <_ZN6BucketI9tm_stringiEaSES1_>:
    44b2:	55                   	push   %rbp
    44b3:	48 89 e5             	mov    %rsp,%rbp
    44b6:	48 89 7d f8          	mov    %rdi,-0x8(%rbp)
    44ba:	48 89 75 f0          	mov    %rsi,-0x10(%rbp)
    44be:	48 8b 45 f0          	mov    -0x10(%rbp),%rax
    44c2:	48 8b 10             	mov    (%rax),%rdx
    44c5:	48 8b 45 f8          	mov    -0x8(%rbp),%rax
    44c9:	48 89 10             	mov    %rdx,(%rax)
    44cc:	48 8b 45 f8          	mov    -0x8(%rbp),%rax
    44d0:	5d                   	pop    %rbp
    44d1:	c3                   	retq   

00000000000044d2 <_ZN6BucketI9tm_stringiEC1EOS1_>:
    44d2:	55                   	push   %rbp
    44d3:	48 89 e5             	mov    %rsp,%rbp
    44d6:	48 89 7d f8          	mov    %rdi,-0x8(%rbp)
    44da:	48 89 75 f0          	mov    %rsi,-0x10(%rbp)
    44de:	48 8b 45 f0          	mov    -0x10(%rbp),%rax
    44e2:	48 8b 10             	mov    (%rax),%rdx
    44e5:	48 8b 45 f8          	mov    -0x8(%rbp),%rax
    44e9:	48 89 10             	mov    %rdx,(%rax)
    44ec:	90                   	nop
    44ed:	5d                   	pop    %rbp
    44ee:	c3                   	retq   
    44ef:	90                   	nop

00000000000044f0 <_ZN6BucketI9tm_stringiEaSEOS1_>:
    44f0:	55                   	push   %rbp
    44f1:	48 89 e5             	mov    %rsp,%rbp
    44f4:	48 89 7d f8          	mov    %rdi,-0x8(%rbp)
    44f8:	48 89 75 f0          	mov    %rsi,-0x10(%rbp)
    44fc:	48 8b 45 f0          	mov    -0x10(%rbp),%rax
    4500:	48 8b 10             	mov    (%rax),%rdx
    4503:	48 8b 45 f8          	mov    -0x8(%rbp),%rax
    4507:	48 89 10             	mov    %rdx,(%rax)
    450a:	48 8b 45 f8          	mov    -0x8(%rbp),%rax
    450e:	5d                   	pop    %rbp
    450f:	c3                   	retq   

0000000000004510 <_ZN6BucketIi9tm_stringE7setNodeEP8HashNodeIiS0_E>:
    4510:	55                   	push   %rbp
    4511:	48 89 e5             	mov    %rsp,%rbp
    4514:	48 89 7d f8          	mov    %rdi,-0x8(%rbp)
    4518:	48 89 75 f0          	mov    %rsi,-0x10(%rbp)
    451c:	48 8b 45 f8          	mov    -0x8(%rbp),%rax
    4520:	48 8b 55 f0          	mov    -0x10(%rbp),%rdx
    4524:	48 89 10             	mov    %rdx,(%rax)
    4527:	90                   	nop
    4528:	5d                   	pop    %rbp
    4529:	c3                   	retq   

000000000000452a <_ZN6BucketIi9tm_stringE7getNodeEv>:
    452a:	55                   	push   %rbp
    452b:	48 89 e5             	mov    %rsp,%rbp
    452e:	48 89 7d f8          	mov    %rdi,-0x8(%rbp)
    4532:	48 8b 45 f8          	mov    -0x8(%rbp),%rax
    4536:	48 8b 00             	mov    (%rax),%rax
    4539:	5d                   	pop    %rbp
    453a:	c3                   	retq   
    453b:	90                   	nop

000000000000453c <_ZN6BucketIi9tm_stringE5emptyEv>:
    453c:	55                   	push   %rbp
    453d:	48 89 e5             	mov    %rsp,%rbp
    4540:	48 89 7d f8          	mov    %rdi,-0x8(%rbp)
    4544:	48 8b 45 f8          	mov    -0x8(%rbp),%rax
    4548:	48 8b 00             	mov    (%rax),%rax
    454b:	48 85 c0             	test   %rax,%rax
    454e:	0f 94 c0             	sete   %al
    4551:	5d                   	pop    %rbp
    4552:	c3                   	retq   
    4553:	90                   	nop

0000000000004554 <_ZN6BucketIi9tm_stringE6appendEP8HashNodeIiS0_E>:
    4554:	55                   	push   %rbp
    4555:	48 89 e5             	mov    %rsp,%rbp
    4558:	48 83 ec 10          	sub    $0x10,%rsp
    455c:	48 89 7d f8          	mov    %rdi,-0x8(%rbp)
    4560:	48 89 75 f0          	mov    %rsi,-0x10(%rbp)
    4564:	48 8b 45 f8          	mov    -0x8(%rbp),%rax
    4568:	48 8b 10             	mov    (%rax),%rdx
    456b:	48 8b 45 f0          	mov    -0x10(%rbp),%rax
    456f:	48 89 d6             	mov    %rdx,%rsi
    4572:	48 89 c7             	mov    %rax,%rdi
    4575:	e8 ec 1d 00 00       	callq  6366 <_ZN8HashNodeIi9tm_stringE10insertNextEPS1_>
    457a:	48 8b 45 f8          	mov    -0x8(%rbp),%rax
    457e:	48 8b 55 f0          	mov    -0x10(%rbp),%rdx
    4582:	48 89 10             	mov    %rdx,(%rax)
    4585:	90                   	nop
    4586:	c9                   	leaveq 
    4587:	c3                   	retq   

0000000000004588 <_ZN6BucketIi9tm_stringEC1Ev>:
    4588:	55                   	push   %rbp
    4589:	48 89 e5             	mov    %rsp,%rbp
    458c:	48 89 7d f8          	mov    %rdi,-0x8(%rbp)
    4590:	48 8b 45 f8          	mov    -0x8(%rbp),%rax
    4594:	48 c7 00 00 00 00 00 	movq   $0x0,(%rax)
    459b:	90                   	nop
    459c:	5d                   	pop    %rbp
    459d:	c3                   	retq   

000000000000459e <_ZN6BucketIi9tm_stringEC1EP8HashNodeIiS0_E>:
    459e:	55                   	push   %rbp
    459f:	48 89 e5             	mov    %rsp,%rbp
    45a2:	48 89 7d f8          	mov    %rdi,-0x8(%rbp)
    45a6:	48 89 75 f0          	mov    %rsi,-0x10(%rbp)
    45aa:	48 8b 45 f8          	mov    -0x8(%rbp),%rax
    45ae:	48 8b 55 f0          	mov    -0x10(%rbp),%rdx
    45b2:	48 89 10             	mov    %rdx,(%rax)
    45b5:	90                   	nop
    45b6:	5d                   	pop    %rbp
    45b7:	c3                   	retq   

00000000000045b8 <_ZN6BucketIi9tm_stringEC1ERKS1_>:
    45b8:	55                   	push   %rbp
    45b9:	48 89 e5             	mov    %rsp,%rbp
    45bc:	48 89 7d f8          	mov    %rdi,-0x8(%rbp)
    45c0:	48 89 75 f0          	mov    %rsi,-0x10(%rbp)
    45c4:	48 8b 45 f0          	mov    -0x10(%rbp),%rax
    45c8:	48 8b 10             	mov    (%rax),%rdx
    45cb:	48 8b 45 f8          	mov    -0x8(%rbp),%rax
    45cf:	48 89 10             	mov    %rdx,(%rax)
    45d2:	90                   	nop
    45d3:	5d                   	pop    %rbp
    45d4:	c3                   	retq   
    45d5:	90                   	nop

00000000000045d6 <_ZN6BucketIi9tm_stringEaSES1_>:
    45d6:	55                   	push   %rbp
    45d7:	48 89 e5             	mov    %rsp,%rbp
    45da:	48 89 7d f8          	mov    %rdi,-0x8(%rbp)
    45de:	48 89 75 f0          	mov    %rsi,-0x10(%rbp)
    45e2:	48 8b 45 f0          	mov    -0x10(%rbp),%rax
    45e6:	48 8b 10             	mov    (%rax),%rdx
    45e9:	48 8b 45 f8          	mov    -0x8(%rbp),%rax
    45ed:	48 89 10             	mov    %rdx,(%rax)
    45f0:	48 8b 45 f8          	mov    -0x8(%rbp),%rax
    45f4:	5d                   	pop    %rbp
    45f5:	c3                   	retq   

00000000000045f6 <_ZN6BucketIi9tm_stringEC1EOS1_>:
    45f6:	55                   	push   %rbp
    45f7:	48 89 e5             	mov    %rsp,%rbp
    45fa:	48 89 7d f8          	mov    %rdi,-0x8(%rbp)
    45fe:	48 89 75 f0          	mov    %rsi,-0x10(%rbp)
    4602:	48 8b 45 f0          	mov    -0x10(%rbp),%rax
    4606:	48 8b 10             	mov    (%rax),%rdx
    4609:	48 8b 45 f8          	mov    -0x8(%rbp),%rax
    460d:	48 89 10             	mov    %rdx,(%rax)
    4610:	90                   	nop
    4611:	5d                   	pop    %rbp
    4612:	c3                   	retq   
    4613:	90                   	nop

0000000000004614 <_ZN6BucketIi9tm_stringEaSEOS1_>:
    4614:	55                   	push   %rbp
    4615:	48 89 e5             	mov    %rsp,%rbp
    4618:	48 89 7d f8          	mov    %rdi,-0x8(%rbp)
    461c:	48 89 75 f0          	mov    %rsi,-0x10(%rbp)
    4620:	48 8b 45 f0          	mov    -0x10(%rbp),%rax
    4624:	48 8b 10             	mov    (%rax),%rdx
    4627:	48 8b 45 f8          	mov    -0x8(%rbp),%rax
    462b:	48 89 10             	mov    %rdx,(%rax)
    462e:	48 8b 45 f8          	mov    -0x8(%rbp),%rax
    4632:	5d                   	pop    %rbp
    4633:	c3                   	retq   

0000000000004634 <_ZN6BucketI9tm_stringS0_E7setNodeEP8HashNodeIS0_S0_E>:
    4634:	55                   	push   %rbp
    4635:	48 89 e5             	mov    %rsp,%rbp
    4638:	48 89 7d f8          	mov    %rdi,-0x8(%rbp)
    463c:	48 89 75 f0          	mov    %rsi,-0x10(%rbp)
    4640:	48 8b 45 f8          	mov    -0x8(%rbp),%rax
    4644:	48 8b 55 f0          	mov    -0x10(%rbp),%rdx
    4648:	48 89 10             	mov    %rdx,(%rax)
    464b:	90                   	nop
    464c:	5d                   	pop    %rbp
    464d:	c3                   	retq   

000000000000464e <_ZN6BucketI9tm_stringS0_E7getNodeEv>:
    464e:	55                   	push   %rbp
    464f:	48 89 e5             	mov    %rsp,%rbp
    4652:	48 89 7d f8          	mov    %rdi,-0x8(%rbp)
    4656:	48 8b 45 f8          	mov    -0x8(%rbp),%rax
    465a:	48 8b 00             	mov    (%rax),%rax
    465d:	5d                   	pop    %rbp
    465e:	c3                   	retq   
    465f:	90                   	nop

0000000000004660 <_ZN6BucketI9tm_stringS0_E5emptyEv>:
    4660:	55                   	push   %rbp
    4661:	48 89 e5             	mov    %rsp,%rbp
    4664:	48 89 7d f8          	mov    %rdi,-0x8(%rbp)
    4668:	48 8b 45 f8          	mov    -0x8(%rbp),%rax
    466c:	48 8b 00             	mov    (%rax),%rax
    466f:	48 85 c0             	test   %rax,%rax
    4672:	0f 94 c0             	sete   %al
    4675:	5d                   	pop    %rbp
    4676:	c3                   	retq   
    4677:	90                   	nop

0000000000004678 <_ZN6BucketI9tm_stringS0_E6appendEP8HashNodeIS0_S0_E>:
    4678:	55                   	push   %rbp
    4679:	48 89 e5             	mov    %rsp,%rbp
    467c:	48 83 ec 10          	sub    $0x10,%rsp
    4680:	48 89 7d f8          	mov    %rdi,-0x8(%rbp)
    4684:	48 89 75 f0          	mov    %rsi,-0x10(%rbp)
    4688:	48 8b 45 f8          	mov    -0x8(%rbp),%rax
    468c:	48 8b 10             	mov    (%rax),%rdx
    468f:	48 8b 45 f0          	mov    -0x10(%rbp),%rax
    4693:	48 89 d6             	mov    %rdx,%rsi
    4696:	48 89 c7             	mov    %rax,%rdi
    4699:	e8 e2 1c 00 00       	callq  6380 <_ZN8HashNodeI9tm_stringS0_E10insertNextEPS1_>
    469e:	48 8b 45 f8          	mov    -0x8(%rbp),%rax
    46a2:	48 8b 55 f0          	mov    -0x10(%rbp),%rdx
    46a6:	48 89 10             	mov    %rdx,(%rax)
    46a9:	90                   	nop
    46aa:	c9                   	leaveq 
    46ab:	c3                   	retq   

00000000000046ac <_ZN6BucketI9tm_stringS0_EC1Ev>:
    46ac:	55                   	push   %rbp
    46ad:	48 89 e5             	mov    %rsp,%rbp
    46b0:	48 89 7d f8          	mov    %rdi,-0x8(%rbp)
    46b4:	48 8b 45 f8          	mov    -0x8(%rbp),%rax
    46b8:	48 c7 00 00 00 00 00 	movq   $0x0,(%rax)
    46bf:	90                   	nop
    46c0:	5d                   	pop    %rbp
    46c1:	c3                   	retq   

00000000000046c2 <_ZN6BucketI9tm_stringS0_EC1EP8HashNodeIS0_S0_E>:
    46c2:	55                   	push   %rbp
    46c3:	48 89 e5             	mov    %rsp,%rbp
    46c6:	48 89 7d f8          	mov    %rdi,-0x8(%rbp)
    46ca:	48 89 75 f0          	mov    %rsi,-0x10(%rbp)
    46ce:	48 8b 45 f8          	mov    -0x8(%rbp),%rax
    46d2:	48 8b 55 f0          	mov    -0x10(%rbp),%rdx
    46d6:	48 89 10             	mov    %rdx,(%rax)
    46d9:	90                   	nop
    46da:	5d                   	pop    %rbp
    46db:	c3                   	retq   

00000000000046dc <_ZN6BucketI9tm_stringS0_EC1ERKS1_>:
    46dc:	55                   	push   %rbp
    46dd:	48 89 e5             	mov    %rsp,%rbp
    46e0:	48 89 7d f8          	mov    %rdi,-0x8(%rbp)
    46e4:	48 89 75 f0          	mov    %rsi,-0x10(%rbp)
    46e8:	48 8b 45 f0          	mov    -0x10(%rbp),%rax
    46ec:	48 8b 10             	mov    (%rax),%rdx
    46ef:	48 8b 45 f8          	mov    -0x8(%rbp),%rax
    46f3:	48 89 10             	mov    %rdx,(%rax)
    46f6:	90                   	nop
    46f7:	5d                   	pop    %rbp
    46f8:	c3                   	retq   
    46f9:	90                   	nop

00000000000046fa <_ZN6BucketI9tm_stringS0_EaSES1_>:
    46fa:	55                   	push   %rbp
    46fb:	48 89 e5             	mov    %rsp,%rbp
    46fe:	48 89 7d f8          	mov    %rdi,-0x8(%rbp)
    4702:	48 89 75 f0          	mov    %rsi,-0x10(%rbp)
    4706:	48 8b 45 f0          	mov    -0x10(%rbp),%rax
    470a:	48 8b 10             	mov    (%rax),%rdx
    470d:	48 8b 45 f8          	mov    -0x8(%rbp),%rax
    4711:	48 89 10             	mov    %rdx,(%rax)
    4714:	48 8b 45 f8          	mov    -0x8(%rbp),%rax
    4718:	5d                   	pop    %rbp
    4719:	c3                   	retq   

000000000000471a <_ZN6BucketI9tm_stringS0_EC1EOS1_>:
    471a:	55                   	push   %rbp
    471b:	48 89 e5             	mov    %rsp,%rbp
    471e:	48 89 7d f8          	mov    %rdi,-0x8(%rbp)
    4722:	48 89 75 f0          	mov    %rsi,-0x10(%rbp)
    4726:	48 8b 45 f0          	mov    -0x10(%rbp),%rax
    472a:	48 8b 10             	mov    (%rax),%rdx
    472d:	48 8b 45 f8          	mov    -0x8(%rbp),%rax
    4731:	48 89 10             	mov    %rdx,(%rax)
    4734:	90                   	nop
    4735:	5d                   	pop    %rbp
    4736:	c3                   	retq   
    4737:	90                   	nop

0000000000004738 <_ZN6BucketI9tm_stringS0_EaSEOS1_>:
    4738:	55                   	push   %rbp
    4739:	48 89 e5             	mov    %rsp,%rbp
    473c:	48 89 7d f8          	mov    %rdi,-0x8(%rbp)
    4740:	48 89 75 f0          	mov    %rsi,-0x10(%rbp)
    4744:	48 8b 45 f0          	mov    -0x10(%rbp),%rax
    4748:	48 8b 10             	mov    (%rax),%rdx
    474b:	48 8b 45 f8          	mov    -0x8(%rbp),%rax
    474f:	48 89 10             	mov    %rdx,(%rax)
    4752:	48 8b 45 f8          	mov    -0x8(%rbp),%rax
    4756:	5d                   	pop    %rbp
    4757:	c3                   	retq   

0000000000004758 <_ZNSt6atomicIbEaSEb>:
    4758:	55                   	push   %rbp
    4759:	48 89 e5             	mov    %rsp,%rbp
    475c:	48 83 ec 10          	sub    $0x10,%rsp
    4760:	48 89 7d f8          	mov    %rdi,-0x8(%rbp)
    4764:	89 f0                	mov    %esi,%eax
    4766:	88 45 f4             	mov    %al,-0xc(%rbp)
    4769:	48 8b 45 f8          	mov    -0x8(%rbp),%rax
    476d:	0f b6 55 f4          	movzbl -0xc(%rbp),%edx
    4771:	89 d6                	mov    %edx,%esi
    4773:	48 89 c7             	mov    %rax,%rdi
    4776:	e8 e7 02 00 00       	callq  4a62 <_ZNSt13__atomic_baseIbEaSEb>
    477b:	c9                   	leaveq 
    477c:	c3                   	retq   
    477d:	90                   	nop

000000000000477e <_ZNKSt6atomicIbEcvbEv>:
    477e:	55                   	push   %rbp
    477f:	48 89 e5             	mov    %rsp,%rbp
    4782:	48 83 ec 20          	sub    $0x20,%rsp
    4786:	48 89 7d e8          	mov    %rdi,-0x18(%rbp)
    478a:	48 8b 45 e8          	mov    -0x18(%rbp),%rax
    478e:	48 89 45 f8          	mov    %rax,-0x8(%rbp)
    4792:	c7 45 f0 05 00 00 00 	movl   $0x5,-0x10(%rbp)
    4799:	8b 45 f0             	mov    -0x10(%rbp),%eax
    479c:	be ff ff 00 00       	mov    $0xffff,%esi
    47a1:	89 c7                	mov    %eax,%edi
    47a3:	e8 a5 f7 ff ff       	callq  3f4d <_ZStanSt12memory_orderSt23__memory_order_modifier>
    47a8:	89 45 f4             	mov    %eax,-0xc(%rbp)
    47ab:	48 8b 45 f8          	mov    -0x8(%rbp),%rax
    47af:	0f b6 00             	movzbl (%rax),%eax
    47b2:	84 c0                	test   %al,%al
    47b4:	0f 95 c0             	setne  %al
    47b7:	c9                   	leaveq 
    47b8:	c3                   	retq   
    47b9:	90                   	nop

00000000000047ba <_ZNK20InvalidSizeException4whatEv>:
    47ba:	55                   	push   %rbp
    47bb:	48 89 e5             	mov    %rsp,%rbp
    47be:	48 89 7d f8          	mov    %rdi,-0x8(%rbp)
    47c2:	48 8d 05 67 54 00 00 	lea    0x5467(%rip),%rax        # 9c30 <_ZN6__pstl9execution2v1L5unseqE+0x1>
    47c9:	5d                   	pop    %rbp
    47ca:	c3                   	retq   
    47cb:	90                   	nop

00000000000047cc <_ZNSt12_Vector_baseISt4pairIiiESaIS1_EE12_Vector_implD1Ev>:
    47cc:	55                   	push   %rbp
    47cd:	48 89 e5             	mov    %rsp,%rbp
    47d0:	48 83 ec 10          	sub    $0x10,%rsp
    47d4:	48 89 7d f8          	mov    %rdi,-0x8(%rbp)
    47d8:	48 8b 45 f8          	mov    -0x8(%rbp),%rax
    47dc:	48 89 c7             	mov    %rax,%rdi
    47df:	e8 14 0e 00 00       	callq  55f8 <_ZNSaISt4pairIiiEED1Ev>
    47e4:	90                   	nop
    47e5:	c9                   	leaveq 
    47e6:	c3                   	retq   
    47e7:	90                   	nop

00000000000047e8 <_ZNSt12_Vector_baseISt4pairIiiESaIS1_EEC1Ev>:
    47e8:	55                   	push   %rbp
    47e9:	48 89 e5             	mov    %rsp,%rbp
    47ec:	48 83 ec 10          	sub    $0x10,%rsp
    47f0:	48 89 7d f8          	mov    %rdi,-0x8(%rbp)
    47f4:	48 8b 45 f8          	mov    -0x8(%rbp),%rax
    47f8:	48 89 c7             	mov    %rax,%rdi
    47fb:	e8 d0 0d 00 00       	callq  55d0 <_ZNSt12_Vector_baseISt4pairIiiESaIS1_EE12_Vector_implC1Ev>
    4800:	90                   	nop
    4801:	c9                   	leaveq 
    4802:	c3                   	retq   
    4803:	90                   	nop

0000000000004804 <_ZNSt6vectorISt4pairIiiESaIS1_EEC1Ev>:
    4804:	55                   	push   %rbp
    4805:	48 89 e5             	mov    %rsp,%rbp
    4808:	48 83 ec 10          	sub    $0x10,%rsp
    480c:	48 89 7d f8          	mov    %rdi,-0x8(%rbp)
    4810:	48 8b 45 f8          	mov    -0x8(%rbp),%rax
    4814:	48 89 c7             	mov    %rax,%rdi
    4817:	e8 cc ff ff ff       	callq  47e8 <_ZNSt12_Vector_baseISt4pairIiiESaIS1_EEC1Ev>
    481c:	90                   	nop
    481d:	c9                   	leaveq 
    481e:	c3                   	retq   
    481f:	90                   	nop

0000000000004820 <_ZN6w_dataC1Ev>:
    4820:	55                   	push   %rbp
    4821:	48 89 e5             	mov    %rsp,%rbp
    4824:	48 83 ec 10          	sub    $0x10,%rsp
    4828:	48 89 7d f8          	mov    %rdi,-0x8(%rbp)
    482c:	48 8b 45 f8          	mov    -0x8(%rbp),%rax
    4830:	48 83 c0 08          	add    $0x8,%rax
    4834:	48 89 c7             	mov    %rax,%rdi
    4837:	e8 c8 ff ff ff       	callq  4804 <_ZNSt6vectorISt4pairIiiESaIS1_EEC1Ev>
    483c:	90                   	nop
    483d:	c9                   	leaveq 
    483e:	c3                   	retq   
    483f:	90                   	nop

0000000000004840 <_ZN6w_dataD1Ev>:
    4840:	55                   	push   %rbp
    4841:	48 89 e5             	mov    %rsp,%rbp
    4844:	48 83 ec 10          	sub    $0x10,%rsp
    4848:	48 89 7d f8          	mov    %rdi,-0x8(%rbp)
    484c:	48 8b 45 f8          	mov    -0x8(%rbp),%rax
    4850:	48 83 c0 08          	add    $0x8,%rax
    4854:	48 89 c7             	mov    %rax,%rdi
    4857:	e8 06 0e 00 00       	callq  5662 <_ZNSt6vectorISt4pairIiiESaIS1_EED1Ev>
    485c:	90                   	nop
    485d:	c9                   	leaveq 
    485e:	c3                   	retq   
    485f:	90                   	nop

0000000000004860 <_ZNSt12_Vector_baseIiSaIiEE12_Vector_implD1Ev>:
    4860:	55                   	push   %rbp
    4861:	48 89 e5             	mov    %rsp,%rbp
    4864:	48 83 ec 10          	sub    $0x10,%rsp
    4868:	48 89 7d f8          	mov    %rdi,-0x8(%rbp)
    486c:	48 8b 45 f8          	mov    -0x8(%rbp),%rax
    4870:	48 89 c7             	mov    %rax,%rdi
    4873:	e8 56 0e 00 00       	callq  56ce <_ZNSaIiED1Ev>
    4878:	90                   	nop
    4879:	c9                   	leaveq 
    487a:	c3                   	retq   
    487b:	90                   	nop

000000000000487c <_ZNSt12_Vector_baseIiSaIiEEC1Ev>:
    487c:	55                   	push   %rbp
    487d:	48 89 e5             	mov    %rsp,%rbp
    4880:	48 83 ec 10          	sub    $0x10,%rsp
    4884:	48 89 7d f8          	mov    %rdi,-0x8(%rbp)
    4888:	48 8b 45 f8          	mov    -0x8(%rbp),%rax
    488c:	48 89 c7             	mov    %rax,%rdi
    488f:	e8 12 0e 00 00       	callq  56a6 <_ZNSt12_Vector_baseIiSaIiEE12_Vector_implC1Ev>
    4894:	90                   	nop
    4895:	c9                   	leaveq 
    4896:	c3                   	retq   
    4897:	90                   	nop

0000000000004898 <_ZNSt6vectorIiSaIiEEC1Ev>:
    4898:	55                   	push   %rbp
    4899:	48 89 e5             	mov    %rsp,%rbp
    489c:	48 83 ec 10          	sub    $0x10,%rsp
    48a0:	48 89 7d f8          	mov    %rdi,-0x8(%rbp)
    48a4:	48 8b 45 f8          	mov    -0x8(%rbp),%rax
    48a8:	48 89 c7             	mov    %rax,%rdi
    48ab:	e8 cc ff ff ff       	callq  487c <_ZNSt12_Vector_baseIiSaIiEEC1Ev>
    48b0:	90                   	nop
    48b1:	c9                   	leaveq 
    48b2:	c3                   	retq   
    48b3:	90                   	nop

00000000000048b4 <_ZN6r_dataC1Ev>:
    48b4:	55                   	push   %rbp
    48b5:	48 89 e5             	mov    %rsp,%rbp
    48b8:	48 83 ec 10          	sub    $0x10,%rsp
    48bc:	48 89 7d f8          	mov    %rdi,-0x8(%rbp)
    48c0:	48 8b 45 f8          	mov    -0x8(%rbp),%rax
    48c4:	48 83 c0 08          	add    $0x8,%rax
    48c8:	48 89 c7             	mov    %rax,%rdi
    48cb:	e8 c8 ff ff ff       	callq  4898 <_ZNSt6vectorIiSaIiEEC1Ev>
    48d0:	90                   	nop
    48d1:	c9                   	leaveq 
    48d2:	c3                   	retq   
    48d3:	90                   	nop

00000000000048d4 <_ZN6r_dataD1Ev>:
    48d4:	55                   	push   %rbp
    48d5:	48 89 e5             	mov    %rsp,%rbp
    48d8:	48 83 ec 10          	sub    $0x10,%rsp
    48dc:	48 89 7d f8          	mov    %rdi,-0x8(%rbp)
    48e0:	48 8b 45 f8          	mov    -0x8(%rbp),%rax
    48e4:	48 83 c0 08          	add    $1ca0 0x8,%rax
    48e8:	48 89 c7             	mov    %rax,%rdi
    48eb:	e8 48 0e 00 00       	callq  5738 <_ZNSt6vectorIiSaIiEED1Ev>
    48f0:	90                   	nop
    48f1:	c9                   	leaveq 
    48f2:	c3                   	retq   
    48f3:	90                   	nop

00000000000048f4 <_ZN6d_dataC1Ev>:
    48f4:	55                   	push   %rbp
    48f5:	48 89 e5             	mov    %rsp,%rbp
    48f8:	48 83 ec 10          	sub    $0x10,%rsp
    48fc:	48 89 7d f8          	mov    %rdi,-0x8(%rbp)
    4900:	48 8b 45 f8          	mov    -0x8(%rbp),%rax
    4904:	48 83 c0 08          	add    $0x8,%rax
    4908:	48 89 c7             	mov    %rax,%rdi
    490b:	e8 88 ff ff ff       	callq  4898 <_ZNSt6vectorIiSaIiEEC1Ev>
    4910:	90                   	nop
    4911:	c9                   	leaveq 
    4912:	c3                   	retq   
    4913:	90                   	nop

0000000000004914 <_ZN6d_dataD1Ev>:
    4914:	55                   	push   %rbp
    4915:	48 89 e5             	mov    %rsp,%rbp
    4918:	48 83 ec 10          	sub    $0x10,%rsp
    491c:	48 89 7d f8          	mov    %rdi,-0x8(%rbp)
    4920:	48 8b 45 f8          	mov    -0x8(%rbp),%rax
    4924:	48 83 c0 08          	add    $0x8,%rax
    4928:	48 89 c7             	mov    %rax,%rdi
    492b:	e8 08 0e 00 00       	callq  5738 <_ZNSt6vectorIiSaIiEED1Ev>
    4930:	90                   	nop
    4931:	c9                   	leaveq 
    4932:	c3                   	retq   
    4933:	90                   	nop

0000000000004934 <_ZN8all_dataC1Ev>:
    4934:	55                   	push   %rbp
    4935:	48 89 e5             	mov    %rsp,%rbp
    4938:	48 83 ec 10          	sub    $0x10,%rsp
    493c:	48 89 7d f8          	mov    %rdi,-0x8(%rbp)
    4940:	48 8b 45 f8          	mov    -0x8(%rbp),%rax
    4944:	48 83 c0 08          	add    $0x8,%rax
    4948:	48 89 c7             	mov    %rax,%rdi
    494b:	e8 b4 fe ff ff       	callq  4804 <_ZNSt6vectorISt4pairIiiESaIS1_EEC1Ev>
    4950:	48 8b 45 f8          	mov    -0x8(%rbp),%rax
    4954:	48 83 c0 20          	add    $0x20,%rax
    4958:	48 89 c7             	mov    %rax,%rdi
    495b:	e8 38 ff ff ff       	callq  4898 <_ZNSt6vectorIiSaIiEEC1Ev>
    4960:	48 8b 45 f8          	mov    -0x8(%rbp),%rax
    4964:	48 83 c0 38          	add    $0x38,%rax
    4968:	48 89 c7             	mov    %rax,%rdi
    496b:	e8 28 ff ff ff       	callq  4898 <_ZNSt6vectorIiSaIiEEC1Ev>
    4970:	90                   	nop
    4971:	c9                   	leaveq 
    4972:	c3                   	retq   
    4973:	90                   	nop

0000000000004974 <_ZN8all_dataD1Ev>:
    4974:	55                   	push   %rbp
    4975:	48 89 e5             	mov    %rsp,%rbp
    4978:	48 83 ec 10          	sub    $0x10,%rsp
    497c:	48 89 7d f8          	mov    %rdi,-0x8(%rbp)
    4980:	48 8b 45 f8          	mov    -0x8(%rbp),%rax
    4984:	48 83 c0 38          	add    $0x38,%rax
    4988:	48 89 c7             	mov    %rax,%rdi
    498b:	e8 a8 0d 00 00       	callq  5738 <_ZNSt6vectorIiSaIiEED1Ev>
    4990:	48 8b 45 f8          	mov    -0x8(%rbp),%rax
    4994:	48 83 c0 20          	add    $0x20,%rax
    4998:	48 89 c7             	mov    %rax,%rdi
    499b:	e8 98 0d 00 00       	callq  5738 <_ZNSt6vectorIiSaIiEED1Ev>
    49a0:	48 8b 45 f8          	mov    -0x8(%rbp),%rax
    49a4:	48 83 c0 08          	add    $0x8,%rax
    49a8:	48 89 c7             	mov    %rax,%rdi
    49ab:	e8 b2 0c 00 00       	callq  5662 <_ZNSt6vectorISt4pairIiiESaIS1_EED1Ev>
    49b0:	90                   	nop
    49b1:	c9                   	leaveq 
    49b2:	c3                   	retq   

00000000000049b3 <_ZSt3maxImERKT_S2_S2_>:
    49b3:	55                   	push   %rbp
    49b4:	48 89 e5             	mov    %rsp,%rbp
    49b7:	48 89 7d f8          	mov    %rdi,-0x8(%rbp)
    49bb:	48 89 75 f0          	mov    %rsi,-0x10(%rbp)
    49bf:	48 8b 45 f8          	mov    -0x8(%rbp),%rax
    49c3:	48 8b 10             	mov    (%rax),%rdx
    49c6:	48 8b 45 f0          	mov    -0x10(%rbp),%rax
    49ca:	48 8b 00             	mov    (%rax),%rax
    49cd:	48 39 c2             	cmp    %rax,%rdx
    49d0:	73 06                	jae    49d8 <_ZSt3maxImERKT_S2_S2_+0x25>
    49d2:	48 8b 45 f0          	mov    -0x10(%rbp),%rax
    49d6:	eb 04                	jmp    49dc <_ZSt3maxImERKT_S2_S2_+0x29>
    49d8:	48 8b 45 f8          	mov    -0x8(%rbp),%rax
    49dc:	5d                   	pop    %rbp
    49dd:	c3                   	retq   

00000000000049de <_ZSt7forwardIiEOT_RNSt16remove_referenceIS0_E4typeE>:
    49de:	55                   	push   %rbp
    49df:	48 89 e5             	mov    %rsp,%rbp
    49e2:	48 89 7d f8          	mov    %rdi,-0x8(%rbp)
    49e6:	48 8b 45 f8          	mov    -0x8(%rbp),%rax
    49ea:	5d                   	pop    %rbp
    49eb:	c3                   	retq   

00000000000049ec <_ZSt4swapINSt6thread2idEENSt9enable_ifIXsrSt6__and_IJSt6__not_ISt15__is_tuple_likeIT_EESt21is_move_constructibleIS6_ESt18is_move_assignableIS6_EEE5valueEvE4typeERS6_SG_>:
    49ec:	55                   	push   %rbp
    49ed:	48 89 e5             	mov    %rsp,%rbp
    49f0:	48 83 ec 20          	sub    $0x20,%rsp
    49f4:	48 89 7d e8          	mov    %rdi,-0x18(%rbp)
    49f8:	48 89 75 e0          	mov    %rsi,-0x20(%rbp)
    49fc:	64 48 8b 04 25 28 00 	mov    %fs:0x28,%rax
    4a03:	00 00 
    4a05:	48 89 45 f8          	mov    %rax,-0x8(%rbp)
    4a09:	31 c0                	xor    %eax,%eax
    4a0b:	48 8b 45 e8          	mov    -0x18(%rbp),%rax
    4a0f:	48 89 c7             	mov    %rax,%rdi
    4a12:	e8 0c 19 00 00       	callq  6323 <_ZSt4moveIRNSt6thread2idEEONSt16remove_referenceIT_E4typeEOS4_>
    4a17:	48 8b 00             	mov    (%rax),%rax
    4a1a:	48 89 45 f0          	mov    %rax,-0x10(%rbp)
    4a1e:	48 8b 45 e0          	mov    -0x20(%rbp),%rax
    4a22:	48 89 c7             	mov    %rax,%rdi
    4a25:	e8 f9 18 00 00       	callq  6323 <_ZSt4moveIRNSt6thread2idEEONSt16remove_referenceIT_E4typeEOS4_>
    4a2a:	48 8b 55 e8          	mov    -0x18(%rbp),%rdx
    4a2e:	48 8b 00             	mov    (%rax),%rax
    4a31:	48 89 02             	mov    %rax,(%rdx)
    4a34:	48 8d 45 f0          	lea    -0x10(%rbp),%rax
    4a38:	48 89 c7             	mov    %rax,%rdi
    4a3b:	e8 e3 18 00 00       	callq  6323 <_ZSt4moveIRNSt6thread2idEEONSt16remove_referenceIT_E4typeEOS4_>
    4a40:	48 8b 55 e0          	mov    -0x20(%rbp),%rdx
    4a44:	48 8b 00             	mov    (%rax),%rax
    4a47:	48 89 02             	mov    %rax,(%rdx)
    4a4a:	90                   	nop
    4a4b:	48 8b 45 f8          	mov    -0x8(%rbp),%rax
    4a4f:	64 48 33 04 25 28 00 	xor    %fs:0x28,%rax
    4a56:	00 00 
    4a58:	74 05                	je     4a5f <_ZSt4swapINSt6thread2idEENSt9enable_ifIXsrSt6__and_IJSt6__not_ISt15__is_tuple_likeIT_EESt21is_move_constructibleIS6_ESt18is_move_assignableIS6_EEE5valueEvE4typeERS6_SG_+0x73>
    4a5a:	e8 31 d1 ff ff       	callq  1b90 <__stack_chk_fail@plt>
    4a5f:	c9                   	leaveq 
    4a60:	c3                   	retq   
    4a61:	90                   	nop

0000000000004a62 <_ZNSt13__atomic_baseIbEaSEb>:
    4a62:	55                   	push   %rbp
    4a63:	48 89 e5             	mov    %rsp,%rbp
    4a66:	48 83 ec 30          	sub    $0x30,%rsp
    4a6a:	48 89 7d d8          	mov    %rdi,-0x28(%rbp)
    4a6e:	89 f0                	mov    %esi,%eax
    4a70:	88 45 d4             	mov    %al,-0x2c(%rbp)
    4a73:	0f b6 45 d4          	movzbl -0x2c(%rbp),%eax
    4a77:	48 8b 55 d8          	mov    -0x28(%rbp),%rdx
    4a7b:	48 89 55 f8          	mov    %rdx,-0x8(%rbp)
    4a7f:	88 45 ef             	mov    %al,-0x11(%rbp)
    4a82:	80 65 ef 01          	andb   $0x1,-0x11(%rbp)
    4a86:	c7 45 f0 05 00 00 00 	movl   $0x5,-0x10(%rbp)
    4a8d:	8b 45 f0             	mov    -0x10(%rbp),%eax
    4a90:	be ff ff 00 00       	mov    $0xffff,%esi
    4a95:	89 c7                	mov    %eax,%edi
    4a97:	e8 b1 f4 ff ff       	callq  3f4d <_ZStanSt12memory_orderSt23__memory_order_modifier>
    4a9c:	89 45 f4             	mov    %eax,-0xc(%rbp)
    4a9f:	0f b6 55 ef          	movzbl -0x11(%rbp),%edx
    4aa3:	48 8b 45 f8          	mov    -0x8(%rbp),%rax
    4aa7:	88 10                	mov    %dl,(%rax)
    4aa9:	0f ae f0             	mfence 
    4aac:	90                   	nop
    4aad:	0f b6 45 d4          	movzbl -0x2c(%rbp),%eax
    4ab1:	c9                   	leaveq 
    4ab2:	c3                   	retq   
    4ab3:	90                   	nop

0000000000004ab4 <_ZNSt6vectorIiSaIiEE5beginEv>:
    4ab4:	55                   	push   %rbp
    4ab5:	48 89 e5             	mov    %rsp,%rbp
    4ab8:	48 83 ec 20          	sub    $0x20,%rsp
    4abc:	48 89 7d e8          	mov    %rdi,-0x18(%rbp)
    4ac0:	64 48 8b 04 25 28 00 	mov    %fs:0x28,%rax
    4ac7:	00 00 
    4ac9:	48 89 45 f8          	mov    %rax,-0x8(%rbp)
    4acd:	31 c0                	xor    %eax,%eax
    4acf:	48 8b 55 e8          	mov    -0x18(%rbp),%rdx
    4ad3:	48 8d 45 f0          	lea    -0x10(%rbp),%rax
    4ad7:	48 89 d6             	mov    %rdx,%rsi
    4ada:	48 89 c7             	mov    %rax,%rdi
    4add:	e8 b8 18 00 00       	callq  639a <_ZN9__gnu_cxx17__normal_iteratorIPiSt6vectorIiSaIiEEEC1ERKS1_>
    4ae2:	48 8b 45 f0          	mov    -0x10(%rbp),%rax
    4ae6:	48 8b 4d f8          	mov    -0x8(%rbp),%rcx
    4aea:	64 48 33 0c 25 28 00 	xor    %fs:0x28,%rcx
    4af1:	00 00 
    4af3:	74 05                	je     4afa <_ZNSt6vectorIiSaIiEE5beginEv+0x46>
    4af5:	e8 96 d0 ff ff       	callq  1b90 <__stack_chk_fail@plt>
    4afa:	c9                   	leaveq 
    4afb:	c3                   	retq   

0000000000004afc <_ZNSt6vectorIiSaIiEE3endEv>:
    4afc:	55                   	push   %rbp
    4afd:	48 89 e5             	mov    %rsp,%rbp
    4b00:	48 83 ec 20          	sub    $0x20,%rsp
    4b04:	48 89 7d e8          	mov    %rdi,-0x18(%rbp)
    4b08:	64 48 8b 04 25 28 00 	mov    %fs:0x28,%rax
    4b0f:	00 00 
    4b11:	48 89 45 f8          	mov    %rax,-0x8(%rbp)
    4b15:	31 c0                	xor    %eax,%eax
    4b17:	48 8b 45 e8          	mov    -0x18(%rbp),%rax
    4b1b:	48 8d 50 08          	lea    0x8(%rax),%rdx
    4b1f:	48 8d 45 f0          	lea    -0x10(%rbp),%rax
    4b23:	48 89 d6             	mov    %rdx,%rsi
    4b26:	48 89 c7             	mov    %rax,%rdi
    4b29:	e8 6c 18 00 00       	callq  639a <_ZN9__gnu_cxx17__normal_iteratorIPiSt6vectorIiSaIiEEEC1ERKS1_>
    4b2e:	48 8b 45 f0          	mov    -0x10(%rbp),%rax
    4b32:	48 8b 4d f8          	mov    -0x8(%rbp),%rcx
    4b36:	64 48 33 0c 25 28 00 	xor    %fs:0x28,%rcx
    4b3d:	00 00 
    4b3f:	74 05                	je     4b46 <_ZNSt6vectorIiSaIiEE3endEv+0x4a>
    4b41:	e8 4a d0 ff ff       	callq  1b90 <__stack_chk_fail@plt>
    4b46:	c9                   	leaveq 
    4b47:	c3                   	retq   

0000000000004b48 <_ZN9__gnu_cxxneIPiSt6vectorIiSaIiEEEEbRKNS_17__normal_iteratorIT_T0_EESA_>:
    4b48:	55                   	push   %rbp
    4b49:	48 89 e5             	mov    %rsp,%rbp
    4b4c:	53                   	push   %rbx
    4b4d:	48 83 ec 18          	sub    $0x18,%rsp
    4b51:	48 89 7d e8          	mov    %rdi,-0x18(%rbp)
    4b55:	48 89 75 e0          	mov    %rsi,-0x20(%rbp)
    4b59:	48 8b 45 e8          	mov    -0x18(%rbp),%rax
    4b5d:	48 89 c7             	mov    %rax,%rdi
    4b60:	e8 53 18 00 00       	callq  63b8 <_ZNK9__gnu_cxx17__normal_iteratorIPiSt6vectorIiSaIiEEE4baseEv>
    4b65:	48 8b 18             	mov    (%rax),%rbx
    4b68:	48 8b 45 e0          	mov    -0x20(%rbp),%rax
    4b6c:	48 89 c7             	mov    %rax,%rdi
    4b6f:	e8 44 18 00 00       	callq  63b8 <_ZNK9__gnu_cxx17__normal_iteratorIPiSt6vectorIiSaIiEEE4baseEv>
    4b74:	48 8b 00             	mov    (%rax),%rax
    4b77:	48 39 c3             	cmp    %rax,%rbx
    4b7a:	0f 95 c0             	setne  %al
    4b7d:	48 83 c4 18          	add    $0x18,%rsp
    4b81:	5b                   	pop    %rbx
    4b82:	5d                   	pop    %rbp
    4b83:	c3                   	retq   

0000000000004b84 <_ZN9__gnu_cxx17__normal_iteratorIPiSt6vectorIiSaIiEEEppEv>:
    4b84:	55                   	push   %rbp
    4b85:	48 89 e5             	mov    %rsp,%rbp
    4b88:	48 89 7d f8          	mov    %rdi,-0x8(%rbp)
    4b8c:	48 8b 45 f8          	mov    -0x8(%rbp),%rax
    4b90:	48 8b 00             	mov    (%rax),%rax
    4b93:	48 8d 50 04          	lea    0x4(%rax),%rdx
    4b97:	48 8b 45 f8          	mov    -0x8(%rbp),%rax
    4b9b:	48 89 10             	mov    %rdx,(%rax)
    4b9e:	48 8b 45 f8          	mov    -0x8(%rbp),%rax
    4ba2:	5d                   	pop    %rbp
    4ba3:	c3                   	retq   

0000000000004ba4 <_ZNK9__gnu_cxx17__normal_iteratorIPiSt6vectorIiSaIiEEEdeEv>:
    4ba4:	55                   	push   %rbp
    4ba5:	48 89 e5             	mov    %rsp,%rbp
    4ba8:	48 89 7d f8          	mov    %rdi,-0x8(%rbp)
    4bac:	48 8b 45 f8          	mov    -0x8(%rbp),%rax
    4bb0:	48 8b 00             	mov    (%rax),%rax
    4bb3:	5d                   	pop    %rbp
    4bb4:	c3                   	retq   
    4bb5:	90                   	nop

0000000000004bb6 <_ZN9HashTableIiiE6removeEi>:
    4bb6:	55                   	push   %rbp
    4bb7:	48 89 e5             	mov    %rsp,%rbp
    4bba:	53                   	push   %rbx
    4bbb:	48 83 ec 78          	sub    $0x78,%rsp
    4bbf:	48 89 7d 88          	mov    %rdi,-0x78(%rbp)
    4bc3:	89 75 84             	mov    %esi,-0x7c(%rbp)
    4bc6:	64 48 8b 04 25 28 00 	mov    %fs:0x28,%rax
    4bcd:	00 00 
    4bcf:	48 89 45 e8          	mov    %rax,-0x18(%rbp)
    4bd3:	31 c0                	xor    %eax,%eax
    4bd5:	48 8b 45 88          	mov    -0x78(%rbp),%rax
    4bd9:	48 8d 50 30          	lea    0x30(%rax),%rdx
    4bdd:	48 8d 45 d0          	lea    -0x30(%rbp),%rax
    4be1:	48 89 d6             	mov    %rdx,%rsi
    4be4:	48 89 c7             	mov    %rax,%rdi
    4be7:	e8 da 17 00 00       	callq  63c6 <_ZNSt11shared_lockISt18shared_timed_mutexEC1ERS0_>
    4bec:	48 8b 45 88          	mov    -0x78(%rbp),%rax
    4bf0:	48 8b 18             	mov    (%rax),%rbx
    4bf3:	8b 55 84             	mov    -0x7c(%rbp),%edx
    4bf6:	48 8b 45 88          	mov    -0x78(%rbp),%rax
    4bfa:	89 d6                	mov    %edx,%esi
    4bfc:	48 89 c7             	mov    %rax,%rdi
    4bff:	e8 26 18 00 00       	callq  642a <_ZN9HashTableIiiE9hash_funcEi>
    4c04:	48 c1 e0 03          	shl    $0x3,%rax
    4c08:	48 01 d8             	add    %rbx,%rax
    4c0b:	48 89 45 c0          	mov    %rax,-0x40(%rbp)
    4c0f:	48 c7 45 b0 00 00 00 	movq   $0x0,-0x50(%rbp)
    4c16:	00 
    4c17:	c6 45 98 00          	movb   $0x0,-0x68(%rbp)
    4c1b:	bf 2b 00 00 00       	mov    $0x2b,%edi
    4c20:	b8 00 00 00 00       	mov    $0x0,%eax
    4c25:	e8 76 d0 ff ff       	callq  1ca0 <_ITM_beginTransaction@plt>
    4c2a:	83 e0 02             	and    $0x2,%eax
    4c2d:	85 c0                	test   %eax,%eax
    4c2f:	75 17                	jne    4c48 <_ZN9HashTableIiiE6removeEi+0x92>
    4c31:	48 8b 45 c0          	mov    -0x40(%rbp),%rax
    4c35:	48 89 c7             	mov    %rax,%rdi
    4c38:	e8 15 f2 ff ff       	callq  3e52 <_ZGTtN6BucketIiiE7getNodeEv>
    4c3d:	48 89 45 a0          	mov    %rax,-0x60(%rbp)
    4c41:	e8 8a ce ff ff       	callq  1ad0 <_ITM_commitTransaction@plt>
    4c46:	eb 15                	jmp    4c5d <_ZN9HashTableIiiE6removeEi+0xa7>
    4c48:	48 8b 45 c0          	mov    -0x40(%rbp),%rax
    4c4c:	48 89 c7             	mov    %rax,%rdi
    4c4f:	e8 8e f6 ff ff       	callq  42e2 <_ZN6BucketIiiE7getNodeEv>
    4c54:	48 89 45 a0          	mov    %rax,-0x60(%rbp)
    4c58:	e8 73 ce ff ff       	callq  1ad0 <_ITM_commitTransaction@plt>
    4c5d:	48 83 7d a0 00       	cmpq   $0x0,-0x60(%rbp)
    4c62:	0f 84 8e 01 00 00    	je     4df6 <_ZN9HashTableIiiE6removeEi+0x240>
    4c68:	bf 2b 00 00 00       	mov    $0x2b,%edi
    4c6d:	b8 00 00 00 00       	mov    $0x0,%eax
    4c72:	e8 29 d0 ff ff       	callq  1ca0 <_ITM_beginTransaction@plt>
    4c77:	83 e0 02             	and    $0x2,%eax
    4c7a:	85 c0                	test   %eax,%eax
    4c7c:	0f 85 c4 00 00 00    	jne    4d46 <_ZN9HashTableIiiE6removeEi+0x190>
    4c82:	48 8b 45 a0          	mov    -0x60(%rbp),%rax
    4c86:	48 89 c7             	mov    %rax,%rdi
    4c89:	e8 0a f0 ff ff       	callq  3c98 <_ZGTtN8HashNodeIiiE6getKeyEv>
    4c8e:	48 89 c7             	mov    %rax,%rdi
    4c91:	e8 3a cf ff ff       	callq  1bd0 <_ITM_RU4@plt>
    4c96:	3b 45 84             	cmp    -0x7c(%rbp),%eax
    4c99:	0f 94 c0             	sete   %al
    4c9c:	84 c0                	test   %al,%al
    4c9e:	74 60                	je     4d00 <_ZN9HashTableIiiE6removeEi+0x14a>
    4ca0:	48 83 7d b0 00       	cmpq   $0x0,-0x50(%rbp)
    4ca5:	74 20                	je     4cc7 <_ZN9HashTableIiiE6removeEi+0x111>
    4ca7:	48 8b 45 a0          	mov    -0x60(%rbp),%rax
    4cab:	48 89 c7             	mov    %rax,%rdi
    4cae:	e8 cb ef ff ff       	callq  3c7e <_ZGTtN8HashNodeIiiE7getNextEv>
    4cb3:	48 89 c2             	mov    %rax,%rdx
    4cb6:	48 8b 45 b0          	mov    -0x50(%rbp),%rax
    4cba:	48 89 d6             	mov    %rdx,%rsi
    4cbd:	48 89 c7             	mov    %rax,%rdi
    4cc0:	e8 57 f0 ff ff       	callq  3d1c <_ZGTtN8HashNodeIiiE10insertNextEPS0_>
    4cc5:	eb 1e                	jmp    4ce5 <_ZN9HashTableIiiE6removeEi+0x12f>
    4cc7:	48 8b 45 a0          	mov    -0x60(%rbp),%rax
    4ccb:	48 89 c7             	mov    %rax,%rdi
    4cce:	e8 ab ef ff ff       	callq  3c7e <_ZGTtN8HashNodeIiiE7getNextEv>
    4cd3:	48 89 c2             	mov    %rax,%rdx
    4cd6:	48 8b 45 c0          	mov    -0x40(%rbp),%rax
    4cda:	48 89 d6             	mov    %rdx,%rsi
    4cdd:	48 89 c7             	mov    %rax,%rdi
    4ce0:	e8 87 f1 ff ff       	callq  3e6c <_ZGTtN6BucketIiiE7setNodeEP8HashNodeIiiE>
    4ce5:	c6 45 99 01          	movb   $0x1,-0x67(%rbp)
    4ce9:	bb 00 00 00 00       	mov    $0x0,%ebx
    4cee:	48 8b 45 b0          	mov    -0x50(%rbp),%rax
    4cf2:	48 89 45 b8          	mov    %rax,-0x48(%rbp)
    4cf6:	48 8b 45 a0          	mov    -0x60(%rbp),%rax
    4cfa:	48 89 45 a8          	mov    %rax,-0x58(%rbp)
    4cfe:	eb 24                	jmp    4d24 <_ZN9HashTableIiiE6removeEi+0x16e>
    4d00:	48 8b 45 a0          	mov    -0x60(%rbp),%rax
    4d04:	48 89 45 b8          	mov    %rax,-0x48(%rbp)
    4d08:	48 8b 45 a0          	mov    -0x60(%rbp),%rax
    4d0c:	48 89 c7             	mov    %rax,%rdi
    4d0f:	e8 6a ef ff ff       	callq  3c7e <_ZGTtN8HashNodeIiiE7getNextEv>
    4d14:	48 89 45 a8          	mov    %rax,-0x58(%rbp)
    4d18:	bb 01 00 00 00       	mov    $0x1,%ebx
    4d1d:	0f b6 45 98          	movzbl -0x68(%rbp),%eax
    4d21:	88 45 99             	mov    %al,-0x67(%rbp)
    4d24:	e8 a7 cd ff ff       	callq  1ad0 <_ITM_commitTransaction@plt>
    4d29:	83 fb 01             	cmp    $0x1,%ebx
    4d2c:	0f 84 a8 00 00 00    	je     4dda <_ZN9HashTableIiiE6removeEi+0x224>
    4d32:	0f b6 45 99          	movzbl -0x67(%rbp),%eax
    4d36:	88 45 98             	mov    %al,-0x68(%rbp)
    4d39:	48 8b 45 a8          	mov    -0x58(%rbp),%rax
    4d3d:	48 89 45 a0          	mov    %rax,-0x60(%rbp)
    4d41:	e9 b0 00 00 00       	jmpq   4df6 <_ZN9HashTableIiiE6removeEi+0x240>
    4d46:	48 8b 45 a0          	mov    -0x60(%rbp),%rax
    4d4a:	48 89 c7             	mov    %rax,%rdi
    4d4d:	e8 30 17 00 00       	callq  6482 <_ZN8HashNodeIiiE6getKeyEv>
    4d52:	8b 00                	mov    (%rax),%eax
    4d54:	3b 45 84             	cmp    -0x7c(%rbp),%eax
    4d57:	0f 94 c0             	sete   %al
    4d5a:	84 c0                	test   %al,%al
    4d5c:	74 50                	je     4dae <_ZN9HashTableIiiE6removeEi+0x1f8>
    4d5e:	48 83 7d b0 00       	cmpq   $0x0,-0x50(%rbp)
    4d63:	74 20                	je     4d85 <_ZN9HashTableIiiE6removeEi+0x1cf>
    4d65:	48 8b 45 a0          	mov    -0x60(%rbp),%rax
    4d69:	48 89 c7             	mov    %rax,%rdi
    4d6c:	e8 23 17 00 00       	callq  6494 <_ZN8HashNodeIiiE7getNextEv>
    4d71:	48 89 c2             	mov    %rax,%rdx
    4d74:	48 8b 45 b0          	mov    -0x50(%rbp),%rax
    4d78:	48 89 d6             	mov    %rdx,%rsi
    4d7b:	48 89 c7             	mov    %rax,%rdi
    4d7e:	e8 af 15 00 00       	callq  6332 <_ZN8HashNodeIiiE10insertNextEPS0_>
    4d83:	eb 1e                	jmp    4da3 <_ZN9HashTableIiiE6removeEi+0x1ed>
    4d85:	48 8b 45 a0          	mov    -0x60(%rbp),%rax
    4d89:	48 89 c7             	mov    %rax,%rdi
    4d8c:	e8 03 17 00 00       	callq  6494 <_ZN8HashNodeIiiE7getNextEv>
    4d91:	48 89 c2             	mov    %rax,%rdx
    4d94:	48 8b 45 c0          	mov    -0x40(%rbp),%rax
    4d98:	48 89 d6             	mov    %rdx,%rsi
    4d9b:	48 89 c7             	mov    %rax,%rdi
    4d9e:	e8 25 f5 ff ff       	callq  42c8 <_ZN6BucketIiiE7setNodeEP8HashNodeIiiE>
    4da3:	c6 45 98 01          	movb   $0x1,-0x68(%rbp)
    4da7:	bb 00 00 00 00       	mov    $0x0,%ebx
    4dac:	eb 1d                	jmp    4dcb <_ZN9HashTableIiiE6removeEi+0x215>
    4dae:	48 8b 45 a0          	mov    -0x60(%rbp),%rax
    4db2:	48 89 45 b0          	mov    %rax,-0x50(%rbp)
    4db6:	48 8b 45 a0          	mov    -0x60(%rbp),%rax
    4dba:	48 89 c7             	mov    %rax,%rdi
    4dbd:	e8 d2 16 00 00       	callq  6494 <_ZN8HashNodeIiiE7getNextEv>
    4dc2:	48 89 45 a0          	mov    %rax,-0x60(%rbp)
    4dc6:	bb 01 00 00 00       	mov    $0x1,%ebx
    4dcb:	e8 00 cd ff ff       	callq  1ad0 <_ITM_commitTransaction@plt>
    4dd0:	83 fb 01             	cmp    $0x1,%ebx
    4dd3:	75 21                	jne    4df6 <_ZN9HashTableIiiE6removeEi+0x240>
    4dd5:	e9 83 fe ff ff       	jmpq   4c5d <_ZN9HashTableIiiE6removeEi+0xa7>
    4dda:	0f b6 45 99          	movzbl -0x67(%rbp),%eax
    4dde:	88 45 98             	mov    %al,-0x68(%rbp)
    4de1:	48 8b 45 b8          	mov    -0x48(%rbp),%rax
    4de5:	48 89 45 b0          	mov    %rax,-0x50(%rbp)
    4de9:	48 8b 45 a8          	mov    -0x58(%rbp),%rax
    4ded:	48 89 45 a0          	mov    %rax,-0x60(%rbp)
    4df1:	e9 67 fe ff ff       	jmpq   4c5d <_ZN9HashTableIiiE6removeEi+0xa7>
    4df6:	80 7d 98 00          	cmpb   $0x0,-0x68(%rbp)
    4dfa:	74 47                	je     4e43 <_ZN9HashTableIiiE6removeEi+0x28d>
    4dfc:	48 8b 45 88          	mov    -0x78(%rbp),%rax
    4e00:	48 83 c0 20          	add    $0x20,%rax
    4e04:	48 89 45 c8          	mov    %rax,-0x38(%rbp)
    4e08:	66 c7 45 9a 01 00    	movw   $0x1,-0x66(%rbp)
    4e0e:	c7 45 9c 00 00 00 00 	movl   $0x0,-0x64(%rbp)
    4e15:	0f b7 55 9a          	movzwl -0x66(%rbp),%edx
    4e19:	48 8b 45 c8          	mov    -0x38(%rbp),%rax
    4e1d:	f7 da                	neg    %edx
    4e1f:	66 f0 0f c1 10       	lock xadd %dx,(%rax)
    4e24:	90                   	nop
    4e25:	48 8b 45 88          	mov    -0x78(%rbp),%rax
    4e29:	48 8b 40 08          	mov    0x8(%rax),%rax
    4e2d:	48 8b 55 a0          	mov    -0x60(%rbp),%rdx
    4e31:	48 89 d6             	mov    %rdx,%rsi
    4e34:	48 89 c7             	mov    %rax,%rdi
    4e37:	e8 6a 16 00 00       	callq  64a6 <_ZN5ArenaIiiE4freeEP8HashNodeIiiE>
    4e3c:	bb 01 00 00 00       	mov    $0x1,%ebx
    4e41:	eb 05                	jmp    4e48 <_ZN9HashTableIiiE6removeEi+0x292>
    4e43:	bb 00 00 00 00       	mov    $0x0,%ebx
    4e48:	48 8d 45 d0          	lea    -0x30(%rbp),%rax
    4e4c:	48 89 c7             	mov    %rax,%rdi
    4e4f:	e8 ac 15 00 00       	callq  6400 <_ZNSt11shared_lockISt18shared_timed_mutexED1Ev>
    4e54:	89 d8                	mov    %ebx,%eax
    4e56:	48 8b 4d e8          	mov    -0x18(%rbp),%rcx
    4e5a:	64 48 33 0c 25 28 00 	xor    %fs:0x28,%rcx
    4e61:	00 00 
    4e63:	74 21                	je     4e86 <_ZN9HashTableIiiE6removeEi+0x2d0>
    4e65:	eb 1a                	jmp    4e81 <_ZN9HashTableIiiE6removeEi+0x2cb>
    4e67:	48 89 c3             	mov    %rax,%rbx
    4e6a:	48 8d 45 d0          	lea    -0x30(%rbp),%rax
    4e6e:	48 89 c7             	mov    %rax,%rdi
    4e71:	e8 8a 15 00 00       	callq  6400 <_ZNSt11shared_lockISt18shared_timed_mutexED1Ev>
    4e76:	48 89 d8             	mov    %rbx,%rax
    4e79:	48 89 c7             	mov    %rax,%rdi
    4e7c:	e8 df cd ff ff       	callq  1c60 <_Unwind_Resume@plt>
    4e81:	e8 0a cd ff ff       	callq  1b90 <__stack_chk_fail@plt>
    4e86:	48 83 c4 78          	add    $0x78,%rsp
    4e8a:	5b                   	pop    %rbx
    4e8b:	5d                   	pop    %rbp
    4e8c:	c3                   	retq   
    4e8d:	90                   	nop

0000000000004e8e <_ZNSt6vectorISt4pairIiiESaIS1_EE5beginEv>:
    4e8e:	55                   	push   %rbp
    4e8f:	48 89 e5             	mov    %rsp,%rbp
    4e92:	48 83 ec 20          	sub    $0x20,%rsp
    4e96:	48 89 7d e8          	mov    %rdi,-0x18(%rbp)
    4e9a:	64 48 8b 04 25 28 00 	mov    %fs:0x28,%rax
    4ea1:	00 00 
    4ea3:	48 89 45 f8          	mov    %rax,-0x8(%rbp)
    4ea7:	31 c0                	xor    %eax,%eax
    4ea9:	48 8b 55 e8          	mov    -0x18(%rbp),%rdx
    4ead:	48 8d 45 f0          	lea    -0x10(%rbp),%rax
    4eb1:	48 89 d6             	mov    %rdx,%rsi
    4eb4:	48 89 c7             	mov    %rax,%rdi
    4eb7:	e8 50 16 00 00       	callq  650c <_ZN9__gnu_cxx17__normal_iteratorIPSt4pairIiiESt6vectorIS2_SaIS2_EEEC1ERKS3_>
    4ebc:	48 8b 45 f0          	mov    -0x10(%rbp),%rax
    4ec0:	48 8b 4d f8          	mov    -0x8(%rbp),%rcx
    4ec4:	64 48 33 0c 25 28 00 	xor    %fs:0x28,%rcx
    4ecb:	00 00 
    4ecd:	74 05                	je     4ed4 <_ZNSt6vectorISt4pairIiiESaIS1_EE5beginEv+0x46>
    4ecf:	e8 bc cc ff ff       	callq  1b90 <__stack_chk_fail@plt>
    4ed4:	c9                   	leaveq 
    4ed5:	c3                   	retq   

0000000000004ed6 <_ZNSt6vectorISt4pairIiiESaIS1_EE3endEv>:
    4ed6:	55                   	push   %rbp
    4ed7:	48 89 e5             	mov    %rsp,%rbp
    4eda:	48 83 ec 20          	sub    $0x20,%rsp
    4ede:	48 89 7d e8          	mov    %rdi,-0x18(%rbp)
    4ee2:	64 48 8b 04 25 28 00 	mov    %fs:0x28,%rax
    4ee9:	00 00 
    4eeb:	48 89 45 f8          	mov    %rax,-0x8(%rbp)
    4eef:	31 c0                	xor    %eax,%eax
    4ef1:	48 8b 45 e8          	mov    -0x18(%rbp),%rax
    4ef5:	48 8d 50 08          	lea    0x8(%rax),%rdx
    4ef9:	48 8d 45 f0          	lea    -0x10(%rbp),%rax
    4efd:	48 89 d6             	mov    %rdx,%rsi
    4f00:	48 89 c7             	mov    %rax,%rdi
    4f03:	e8 04 16 00 00       	callq  650c <_ZN9__gnu_cxx17__normal_iteratorIPSt4pairIiiESt6vectorIS2_SaIS2_EEEC1ERKS3_>
    4f08:	48 8b 45 f0          	mov    -0x10(%rbp),%rax
    4f0c:	48 8b 4d f8          	mov    -0x8(%rbp),%rcx
    4f10:	64 48 33 0c 25 28 00 	xor    %fs:0x28,%rcx
    4f17:	00 00 
    4f19:	74 05                	je     4f20 <_ZNSt6vectorISt4pairIiiESaIS1_EE3endEv+0x4a>
    4f1b:	e8 70 cc ff ff       	callq  1b90 <__stack_chk_fail@plt>
    4f20:	c9                   	leaveq 
    4f21:	c3                   	retq   

0000000000004f22 <_ZN9__gnu_cxxneIPSt4pairIiiESt6vectorIS2_SaIS2_EEEEbRKNS_17__normal_iteratorIT_T0_EESC_>:
    4f22:	55                   	push   %rbp
    4f23:	48 89 e5             	mov    %rsp,%rbp
    4f26:	53                   	push   %rbx
    4f27:	48 83 ec 18          	sub    $0x18,%rsp
    4f2b:	48 89 7d e8          	mov    %rdi,-0x18(%rbp)
    4f2f:	48 89 75 e0          	mov    %rsi,-0x20(%rbp)
    4f33:	48 8b 45 e8          	mov    -0x18(%rbp),%rax
    4f37:	48 89 c7             	mov    %rax,%rdi
    4f3a:	e8 eb 15 00 00       	callq  652a <_ZNK9__gnu_cxx17__normal_iteratorIPSt4pairIiiESt6vectorIS2_SaIS2_EEE4baseEv>
    4f3f:	48 8b 18             	mov    (%rax),%rbx
    4f42:	48 8b 45 e0          	mov    -0x20(%rbp),%rax
    4f46:	48 89 c7             	mov    %rax,%rdi
    4f49:	e8 dc 15 00 00       	callq  652a <_ZNK9__gnu_cxx17__normal_iteratorIPSt4pairIiiESt6vectorIS2_SaIS2_EEE4baseEv>
    4f4e:	48 8b 00             	mov    (%rax),%rax
    4f51:	48 39 c3             	cmp    %rax,%rbx
    4f54:	0f 95 c0             	setne  %al
    4f57:	48 83 c4 18          	add    $0x18,%rsp
    4f5b:	5b                   	pop    %rbx
    4f5c:	5d                   	pop    %rbp
    4f5d:	c3                   	retq   

0000000000004f5e <_ZN9__gnu_cxx17__normal_iteratorIPSt4pairIiiESt6vectorIS2_SaIS2_EEEppEv>:
    4f5e:	55                   	push   %rbp
    4f5f:	48 89 e5             	mov    %rsp,%rbp
    4f62:	48 89 7d f8          	mov    %rdi,-0x8(%rbp)
    4f66:	48 8b 45 f8          	mov    -0x8(%rbp),%rax
    4f6a:	48 8b 00             	mov    (%rax),%rax
    4f6d:	48 8d 50 08          	lea    0x8(%rax),%rdx
    4f71:	48 8b 45 f8          	mov    -0x8(%rbp),%rax
    4f75:	48 89 10             	mov    %rdx,(%rax)
    4f78:	48 8b 45 f8          	mov    -0x8(%rbp),%rax
    4f7c:	5d                   	pop    %rbp
    4f7d:	c3                   	retq   

0000000000004f7e <_ZNK9__gnu_cxx17__normal_iteratorIPSt4pairIiiESt6vectorIS2_SaIS2_EEEdeEv>:
    4f7e:	55                   	push   %rbp
    4f7f:	48 89 e5             	mov    %rsp,%rbp
    4f82:	48 89 7d f8          	mov    %rdi,-0x8(%rbp)
    4f86:	48 8b 45 f8          	mov    -0x8(%rbp),%rax
    4f8a:	48 8b 00             	mov    (%rax),%rax
    4f8d:	5d                   	pop    %rbp
    4f8e:	c3                   	retq   
    4f8f:	90                   	nop

0000000000004f90 <_ZN9HashTableIiiE5writeEii>:
    4f90:	55                   	push   %rbp
    4f91:	48 89 e5             	mov    %rsp,%rbp
    4f94:	53                   	push   %rbx
    4f95:	48 81 ec 98 00 00 00 	sub    $0x98,%rsp
    4f9c:	48 89 bd 68 ff ff ff 	mov    %rdi,-0x98(%rbp)
    4fa3:	89 b5 64 ff ff ff    	mov    %esi,-0x9c(%rbp)
    4fa9:	89 95 60 ff ff ff    	mov    %edx,-0xa0(%rbp)
    4faf:	64 48 8b 04 25 28 00 	mov    %fs:0x28,%rax
    4fb6:	00 00 
    4fb8:	48 89 45 e8          	mov    %rax,-0x18(%rbp)
    4fbc:	31 c0                	xor    %eax,%eax
    4fbe:	48 8b 85 68 ff ff ff 	mov    -0x98(%rbp),%rax
    4fc5:	48 8d 50 30          	lea    0x30(%rax),%rdx
    4fc9:	48 8d 45 d0          	lea    -0x30(%rbp),%rax
    4fcd:	48 89 d6             	mov    %rdx,%rsi
    4fd0:	48 89 c7             	mov    %rax,%rdi
    4fd3:	e8 ee 13 00 00       	callq  63c6 <_ZNSt11shared_lockISt18shared_timed_mutexEC1ERS0_>
    4fd8:	48 8b 85 68 ff ff ff 	mov    -0x98(%rbp),%rax
    4fdf:	48 8b 18             	mov    (%rax),%rbx
    4fe2:	8b 95 64 ff ff ff    	mov    -0x9c(%rbp),%edx
    4fe8:	48 8b 85 68 ff ff ff 	mov    -0x98(%rbp),%rax
    4fef:	89 d6                	mov    %edx,%esi
    4ff1:	48 89 c7             	mov    %rax,%rdi
    4ff4:	e8 31 14 00 00       	callq  642a <_ZN9HashTableIiiE9hash_funcEi>
    4ff9:	48 c1 e0 03          	shl    $0x3,%rax
    4ffd:	48 01 d8             	add    %rbx,%rax
    5000:	48 89 45 a8          	mov    %rax,-0x58(%rbp)
    5004:	c7 85 7c ff ff ff 31 	movl   $0xd431,-0x84(%rbp)
    500b:	d4 00 00 
    500e:	bf 2b 00 00 00       	mov    $0x2b,%edi
    5013:	b8 00 00 00 00       	mov    $0x0,%eax
    5018:	e8 83 cc ff ff       	callq  1ca0 <_ITM_beginTransaction@plt>
    501d:	83 e0 02             	and    $0x2,%eax
    5020:	85 c0                	test   %eax,%eax
    5022:	75 17                	jne    503b <_ZN9HashTableIiiE5writeEii+0xab>
    5024:	48 8b 45 a8          	mov    -0x58(%rbp),%rax
    5028:	48 89 c7             	mov    %rax,%rdi
    502b:	e8 22 ee ff ff       	callq  3e52 <_ZGTtN6BucketIiiE7getNodeEv>
    5030:	48 89 45 98          	mov    %rax,-0x68(%rbp)
    5034:	e8 97 ca ff ff       	callq  1ad0 <_ITM_commitTransaction@plt>
    5039:	eb 15                	jmp    5050 <_ZN9HashTableIiiE5writeEii+0xc0>
    503b:	48 8b 45 a8          	mov    -0x58(%rbp),%rax
    503f:	48 89 c7             	mov    %rax,%rdi
    5042:	e8 9b f2 ff ff       	callq  42e2 <_ZN6BucketIiiE7getNodeEv>
    5047:	48 89 45 98          	mov    %rax,-0x68(%rbp)
    504b:	e8 80 ca ff ff       	callq  1ad0 <_ITM_commitTransaction@plt>
    5050:	48 83 7d 98 00       	cmpq   $0x0,-0x68(%rbp)
    5055:	0f 84 ea 00 00 00    	je     5145 <_ZN9HashTableIiiE5writeEii+0x1b5>
    505b:	bf 2b 00 00 00       	mov    $0x2b,%edi
    5060:	b8 00 00 00 00       	mov    $0x0,%eax
    5065:	e8 36 cc ff ff       	callq  1ca0 <_ITM_beginTransaction@plt>
    506a:	83 e0 02             	and    $0x2,%eax
    506d:	85 c0                	test   %eax,%eax
    506f:	75 6d                	jne    50de <_ZN9HashTableIiiE5writeEii+0x14e>
    5071:	48 8b 45 98          	mov    -0x68(%rbp),%rax
    5075:	48 89 c7             	mov    %rax,%rdi
    5078:	e8 1b ec ff ff       	callq  3c98 <_ZGTtN8HashNodeIiiE6getKeyEv>
    507d:	48 89 c7             	mov    %rax,%rdi
    5080:	e8 4b cb ff ff       	callq  1bd0 <_ITM_RU4@plt>
    5085:	3b 85 64 ff ff ff    	cmp    -0x9c(%rbp),%eax
    508b:	0f 94 c0             	sete   %al
    508e:	84 c0                	test   %al,%al
    5090:	74 23                	je     50b5 <_ZN9HashTableIiiE5writeEii+0x125>
    5092:	8b 95 60 ff ff ff    	mov    -0xa0(%rbp),%edx
    5098:	48 8b 45 98          	mov    -0x68(%rbp),%rax
    509c:	89 d6                	mov    %edx,%esi
    509e:	48 89 c7             	mov    %rax,%rdi
    50a1:	e8 9e eb ff ff       	callq  3c44 <_ZGTtN8HashNodeIiiE8setValueEi>
    50a6:	bb 00 00 00 00       	mov    $0x0,%ebx
    50ab:	48 8b 45 98          	mov    -0x68(%rbp),%rax
    50af:	48 89 45 a0          	mov    %rax,-0x60(%rbp)
    50b3:	eb 15                	jmp    50ca <_ZN9HashTableIiiE5writeEii+0x13a>
    50b5:	48 8b 45 98          	mov    -0x68(%rbp),%rax
    50b9:	48 89 c7             	mov    %rax,%rdi
    50bc:	e8 bd eb ff ff       	callq  3c7e <_ZGTtN8HashNodeIiiE7getNextEv>
    50c1:	48 89 45 a0          	mov    %rax,-0x60(%rbp)
    50c5:	bb 01 00 00 00       	mov    $0x1,%ebx
    50ca:	e8 01 ca ff ff       	callq  1ad0 <_ITM_commitTransaction@plt>
    50cf:	83 fb 01             	cmp    $0x1,%ebx
    50d2:	74 64                	je     5138 <_ZN9HashTableIiiE5writeEii+0x1a8>
    50d4:	48 8b 45 a0          	mov    -0x60(%rbp),%rax
    50d8:	48 89 45 98          	mov    %rax,-0x68(%rbp)
    50dc:	eb 67                	jmp    5145 <_ZN9HashTableIiiE5writeEii+0x1b5>
    50de:	48 8b 45 98          	mov    -0x68(%rbp),%rax
    50e2:	48 89 c7             	mov    %rax,%rdi
    50e5:	e8 98 13 00 00       	callq  6482 <_ZN8HashNodeIiiE6getKeyEv>
    50ea:	8b 00                	mov    (%rax),%eax
    50ec:	3b 85 64 ff ff ff    	cmp    -0x9c(%rbp),%eax
    50f2:	0f 94 c0             	sete   %al
    50f5:	84 c0                	test   %al,%al
    50f7:	74 1b                	je     5114 <_ZN9HashTableIiiE5writeEii+0x184>
    50f9:	8b 95 60 ff ff ff    	mov    -0xa0(%rbp),%edx
    50ff:	48 8b 45 98          	mov    -0x68(%rbp),%rax
    5103:	89 d6                	mov    %edx,%esi
    5105:	48 89 c7             	mov    %rax,%rdi
    5108:	e8 2b 14 00 00       	callq  6538 <_ZN8HashNodeIiiE8setValueEi>
    510d:	bb 00 00 00 00       	mov    $0x0,%ebx
    5112:	eb 15                	jmp    5129 <_ZN9HashTableIiiE5writeEii+0x199>
    5114:	48 8b 45 98          	mov    -0x68(%rbp),%rax
    5118:	48 89 c7             	mov    %rax,%rdi
    511b:	e8 74 13 00 00       	callq  6494 <_ZN8HashNodeIiiE7getNextEv>
    5120:	48 89 45 98          	mov    %rax,-0x68(%rbp)
    5124:	bb 01 00 00 00       	mov    $0x1,%ebx
    5129:	e8 a2 c9 ff ff       	callq  1ad0 <_ITM_commitTransaction@plt>
    512e:	83 fb 01             	cmp    $0x1,%ebx
    5131:	75 12                	jne    5145 <_ZN9HashTableIiiE5writeEii+0x1b5>
    5133:	e9 18 ff ff ff       	jmpq   5050 <_ZN9HashTableIiiE5writeEii+0xc0>
    5138:	48 8b 45 a0          	mov    -0x60(%rbp),%rax
    513c:	48 89 45 98          	mov    %rax,-0x68(%rbp)
    5140:	e9 0b ff ff ff       	jmpq   5050 <_ZN9HashTableIiiE5writeEii+0xc0>
    5145:	48 83 7d 98 00       	cmpq   $0x0,-0x68(%rbp)
    514a:	0f 85 9d 00 00 00    	jne    51ed <_ZN9HashTableIiiE5writeEii+0x25d>
    5150:	48 8b 85 68 ff ff ff 	mov    -0x98(%rbp),%rax
    5157:	48 8b 40 08          	mov    0x8(%rax),%rax
    515b:	8b 95 60 ff ff ff    	mov    -0xa0(%rbp),%edx
    5161:	8b 8d 64 ff ff ff    	mov    -0x9c(%rbp),%ecx
    5167:	89 ce                	mov    %ecx,%esi
    5169:	48 89 c7             	mov    %rax,%rdi
    516c:	e8 ef 13 00 00       	callq  6560 <_ZN5ArenaIiiE5allocEii>
    5171:	48 89 45 98          	mov    %rax,-0x68(%rbp)
    5175:	bf 2b 00 00 00       	mov    $0x2b,%edi
    517a:	b8 00 00 00 00       	mov    $0x0,%eax
    517f:	e8 1c cb ff ff       	callq  1ca0 <_ITM_beginTransaction@plt>
    5184:	83 e0 02             	and    $0x2,%eax
    5187:	85 c0                	test   %eax,%eax
    5189:	75 1a                	jne    51a5 <_ZN9HashTableIiiE5writeEii+0x215>
    518b:	48 8b 55 98          	mov    -0x68(%rbp),%rdx
    518f:	48 8b 45 a8          	mov    -0x58(%rbp),%rax
    5193:	48 89 d6             	mov    %rdx,%rsi
    5196:	48 89 c7             	mov    %rax,%rdi
    5199:	e8 70 ec ff ff       	callq  3e0e <_ZGTtN6BucketIiiE6appendEP8HashNodeIiiE>
    519e:	e8 2d c9 ff ff       	callq  1ad0 <_ITM_commitTransaction@plt>
    51a3:	eb 18                	jmp    51bd <_ZN9HashTableIiiE5writeEii+0x22d>
    51a5:	48 8b 55 98          	mov    -0x68(%rbp),%rdx
    51a9:	48 8b 45 a8          	mov    -0x58(%rbp),%rax
    51ad:	48 89 d6             	mov    %rdx,%rsi
    51b0:	48 89 c7             	mov    %rax,%rdi
    51b3:	e8 54 f1 ff ff       	callq  430c <_ZN6BucketIiiE6appendEP8HashNodeIiiE>
    51b8:	e8 13 c9 ff ff       	callq  1ad0 <_ITM_commitTransaction@plt>
    51bd:	48 8b 85 68 ff ff ff 	mov    -0x98(%rbp),%rax
    51c4:	48 83 c0 20          	add    $0x20,%rax
    51c8:	48 89 45 b0          	mov    %rax,-0x50(%rbp)
    51cc:	66 c7 85 7a ff ff ff 	movw   $0x1,-0x86(%rbp)
    51d3:	01 00 
    51d5:	c7 45 80 00 00 00 00 	movl   $0x0,-0x80(%rbp)
    51dc:	0f b7 95 7a ff ff ff 	movzwl -0x86(%rbp),%edx
    51e3:	48 8b 45 b0          	mov    -0x50(%rbp),%rax
    51e7:	66 f0 0f c1 10       	lock xadd %dx,(%rax)
    51ec:	90                   	nop
    51ed:	48 8d 45 d0          	lea    -0x30(%rbp),%rax
    51f1:	48 89 c7             	mov    %rax,%rdi
    51f4:	e8 07 12 00 00       	callq  6400 <_ZNSt11shared_lockISt18shared_timed_mutexED1Ev>
    51f9:	48 8b 85 68 ff ff ff 	mov    -0x98(%rbp),%rax
    5200:	48 83 c0 20          	add    $0x20,%rax
    5204:	48 89 45 b8          	mov    %rax,-0x48(%rbp)
    5208:	c7 45 84 00 00 00 00 	movl   $0x0,-0x7c(%rbp)
    520f:	8b 45 84             	mov    -0x7c(%rbp),%eax
    5212:	be ff ff 00 00       	mov    $0xffff,%esi
    5217:	89 c7                	mov    %eax,%edi
    5219:	e8 2f ed ff ff       	callq  3f4d <_ZStanSt12memory_orderSt23__memory_order_modifier>
    521e:	89 45 88             	mov    %eax,-0x78(%rbp)
    5221:	48 8b 45 b8          	mov    -0x48(%rbp),%rax
    5225:	0f b7 00             	movzwl (%rax),%eax
    5228:	90                   	nop
    5229:	0f b7 d0             	movzwl %ax,%edx
    522c:	48 8b 85 68 ff ff ff 	mov    -0x98(%rbp),%rax
    5233:	48 8b 40 18          	mov    0x18(%rax),%rax
    5237:	48 d1 e8             	shr    %rax
    523a:	48 89 c1             	mov    %rax,%rcx
    523d:	48 8b 85 68 ff ff ff 	mov    -0x98(%rbp),%rax
    5244:	48 8b 40 18          	mov    0x18(%rax),%rax
    5248:	48 c1 e8 02          	shr    $0x2,%rax
    524c:	48 01 c1             	add    %rax,%rcx
    524f:	48 8b 85 68 ff ff ff 	mov    -0x98(%rbp),%rax
    5256:	48 8b 40 18          	mov    0x18(%rax),%rax
    525a:	48 c1 e8 03          	shr    $0x3,%rax
    525e:	48 29 c1             	sub    %rax,%rcx
    5261:	48 89 c8             	mov    %rcx,%rax
    5264:	48 39 c2             	cmp    %rax,%rdx
    5267:	0f 97 c0             	seta   %al
    526a:	84 c0                	test   %al,%al
    526c:	0f 84 b7 00 00 00    	je     5329 <_ZN9HashTableIiiE5writeEii+0x399>
    5272:	48 8b 85 68 ff ff ff 	mov    -0x98(%rbp),%rax
    5279:	48 83 c0 68          	add    $0x68,%rax
    527d:	48 89 45 c0          	mov    %rax,-0x40(%rbp)
    5281:	c7 45 8c 00 00 00 00 	movl   $0x0,-0x74(%rbp)
    5288:	48 8b 45 c0          	mov    -0x40(%rbp),%rax
    528c:	ba 01 00 00 00       	mov    $0x1,%edx
    5291:	86 10                	xchg   %dl,(%rax)
    5293:	90                   	nop
    5294:	89 d0                	mov    %edx,%eax
    5296:	83 f0 01             	xor    $0x1,%eax
    5299:	84 c0                	test   %al,%al
    529b:	0f 84 88 00 00 00    	je     5329 <_ZN9HashTableIiiE5writeEii+0x399>
    52a1:	48 8b 85 68 ff ff ff 	mov    -0x98(%rbp),%rax
    52a8:	48 83 c0 30          	add    $0x30,%rax
    52ac:	48 89 c7             	mov    %rax,%rdi
    52af:	e8 a4 ef ff ff       	callq  4258 <_ZNSt18shared_timed_mutex4lockEv>
    52b4:	48 8b 85 68 ff ff ff 	mov    -0x98(%rbp),%rax
    52bb:	48 89 c7             	mov    %rax,%rdi
    52be:	e8 ab 13 00 00       	callq  666e <_ZN9HashTableIiiE13privateRehashEv>
    52c3:	48 8b 85 68 ff ff ff 	mov    -0x98(%rbp),%rax
    52ca:	48 83 c0 30          	add    $0x30,%rax
    52ce:	48 89 c7             	mov    %rax,%rdi
    52d1:	e8 9e ef ff ff       	callq  4274 <_ZNSt18shared_timed_mutex6unlockEv>
    52d6:	48 8b 85 68 ff ff ff 	mov    -0x98(%rbp),%rax
    52dd:	48 83 c0 68          	add    $0x68,%rax
    52e1:	48 89 45 c8          	mov    %rax,-0x38(%rbp)
    52e5:	c7 45 90 05 00 00 00 	movl   $0x5,-0x70(%rbp)
    52ec:	8b 45 90             	mov    -0x70(%rbp),%eax
    52ef:	be ff ff 00 00       	mov    $0xffff,%esi
    52f4:	89 c7                	mov    %eax,%edi
    52f6:	e8 52 ec ff ff       	callq  3f4d <_ZStanSt12memory_orderSt23__memory_order_modifier>
    52fb:	89 45 94             	mov    %eax,-0x6c(%rbp)
    52fe:	48 8b 45 c8          	mov    -0x38(%rbp),%rax
    5302:	ba 00 00 00 00       	mov    $0x0,%edx
    5307:	88 10                	mov    %dl,(%rax)
    5309:	0f ae f0             	mfence 
    530c:	90                   	nop
    530d:	eb 1a                	jmp    5329 <_ZN9HashTableIiiE5writeEii+0x399>
    530f:	48 89 c3             	mov    %rax,%rbx
    5312:	48 8d 45 d0          	lea    -0x30(%rbp),%rax
    5316:	48 89 c7             	mov    %rax,%rdi
    5319:	e8 e2 10 00 00       	callq  6400 <_ZNSt11shared_lockISt18shared_timed_mutexED1Ev>
    531e:	48 89 d8             	mov    %rbx,%rax
    5321:	48 89 c7             	mov    %rax,%rdi
    5324:	e8 37 c9 ff ff       	callq  1c60 <_Unwind_Resume@plt>
    5329:	90                   	nop
    532a:	48 8b 45 e8          	mov    -0x18(%rbp),%rax
    532e:	64 48 33 04 25 28 00 	xor    %fs:0x28,%rax
    5335:	00 00 
    5337:	74 05                	je     533e <_ZN9HashTableIiiE5writeEii+0x3ae>
    5339:	e8 52 c8 ff ff       	callq  1b90 <__stack_chk_fail@plt>
    533e:	48 81 c4 98 00 00 00 	add    $0x98,%rsp
    5345:	5b                   	pop    %rbx
    5346:	5d                   	pop    %rbp
    5347:	c3                   	retq   

0000000000005348 <_ZN19InvalidReadExeptionC1Ev>:
    5348:	55                   	push   %rbp
    5349:	48 89 e5             	mov    %rsp,%rbp
    534c:	48 83 ec 10          	sub    $0x10,%rsp
    5350:	48 89 7d f8          	mov    %rdi,-0x8(%rbp)
    5354:	48 8b 45 f8          	mov    -0x8(%rbp),%rax
    5358:	48 89 c7             	mov    %rax,%rdi
    535b:	e8 40 eb ff ff       	callq  3ea0 <_ZNSt9exceptionC1Ev>
    5360:	48 8d 15 d9 97 20 00 	lea    0x2097d9(%rip),%rdx        # 20eb40 <_ZTV19InvalidReadExeption+0x10>
    5367:	48 8b 45 f8          	mov    -0x8(%rbp),%rax
    536b:	48 89 10             	mov    %rdx,(%rax)
    536e:	90                   	nop
    536f:	c9                   	leaveq 
    5370:	c3                   	retq   
    5371:	90                   	nop

0000000000005372 <_ZN19InvalidReadExeptionD1Ev>:
    5372:	55                   	push   %rbp
    5373:	48 89 e5             	mov    %rsp,%rbp
    5376:	48 83 ec 10          	sub    $0x10,%rsp
    537a:	48 89 7d f8          	mov    %rdi,-0x8(%rbp)
    537e:	48 8d 15 bb 97 20 00 	lea    0x2097bb(%rip),%rdx        # 20eb40 <_ZTV19InvalidReadExeption+0x10>
    5385:	48 8b 45 f8          	mov    -0x8(%rbp),%rax
    5389:	48 89 10             	mov    %rdx,(%rax)
    538c:	48 8b 45 f8          	mov    -0x8(%rbp),%rax
    5390:	48 89 c7             	mov    %rax,%rdi
    5393:	e8 f8 c8 ff ff       	callq  1c90 <_ZNSt9exceptionD2Ev@plt>
    5398:	90                   	nop
    5399:	c9                   	leaveq 
    539a:	c3                   	retq   
    539b:	90                   	nop

000000000000539c <_ZN19InvalidReadExeptionD0Ev>:
    539c:	55                   	push   %rbp
    539d:	48 89 e5             	mov    %rsp,%rbp
    53a0:	48 83 ec 10          	sub    $0x10,%rsp
    53a4:	48 89 7d f8          	mov    %rdi,-0x8(%rbp)
    53a8:	48 8b 45 f8          	mov    -0x8(%rbp),%rax
    53ac:	48 89 c7             	mov    %rax,%rdi
    53af:	e8 be ff ff ff       	callq  5372 <_ZN19InvalidReadExeptionD1Ev>
    53b4:	48 8b 45 f8          	mov    -0x8(%rbp),%rax
    53b8:	be 08 00 00 00       	mov    $0x8,%esi
    53bd:	48 89 c7             	mov    %rax,%rdi
    53c0:	e8 ab c7 ff ff       	callq  1b70 <_ZdlPvm@plt>
    53c5:	c9                   	leaveq 
    53c6:	c3                   	retq   
    53c7:	90                   	nop

00000000000053c8 <_ZN9HashTableIiiE4readEi>:
    53c8:	55                   	push   %rbp
    53c9:	48 89 e5             	mov    %rsp,%rbp
    53cc:	41 54                	push   %r12
    53ce:	53                   	push   %rbx
    53cf:	48 83 ec 50          	sub    $0x50,%rsp
    53d3:	48 89 7d a8          	mov    %rdi,-0x58(%rbp)
    53d7:	89 75 a4             	mov    %esi,-0x5c(%rbp)
    53da:	64 48 8b 04 25 28 00 	mov    %fs:0x28,%rax
    53e1:	00 00 
    53e3:	48 89 45 e8          	mov    %rax,-0x18(%rbp)
    53e7:	31 c0                	xor    %eax,%eax
    53e9:	48 8b 45 a8          	mov    -0x58(%rbp),%rax
    53ed:	48 8d 50 30          	lea    0x30(%rax),%rdx
    53f1:	48 8d 45 d0          	lea    -0x30(%rbp),%rax
    53f5:	48 89 d6             	mov    %rdx,%rsi
    53f8:	48 89 c7             	mov    %rax,%rdi
    53fb:	e8 c6 0f 00 00       	callq  63c6 <_ZNSt11shared_lockISt18shared_timed_mutexEC1ERS0_>
    5400:	48 8b 45 a8          	mov    -0x58(%rbp),%rax
    5404:	48 8b 18             	mov    (%rax),%rbx
    5407:	8b 55 a4             	mov    -0x5c(%rbp),%edx
    540a:	48 8b 45 a8          	mov    -0x58(%rbp),%rax
    540e:	89 d6                	mov    %edx,%esi
    5410:	48 89 c7             	mov    %rax,%rdi
    5413:	e8 12 10 00 00       	callq  642a <_ZN9HashTableIiiE9hash_funcEi>
    5418:	48 c1 e0 03          	shl    $0x3,%rax
    541c:	48 01 d8             	add    %rbx,%rax
    541f:	48 89 45 c8          	mov    %rax,-0x38(%rbp)
    5423:	bf 2b 00 00 00       	mov    $0x2b,%edi
    5428:	b8 00 00 00 00       	mov    $0x0,%eax
    542d:	e8 6e c8 ff ff       	callq  1ca0 <_ITM_beginTransaction@plt>
    5432:	83 e0 02             	and    $0x2,%eax
    5435:	85 c0                	test   %eax,%eax
    5437:	75 17                	jne    5450 <_ZN9HashTableIiiE4readEi+0x88>
    5439:	48 8b 45 c8          	mov    -0x38(%rbp),%rax
    543d:	48 89 c7             	mov    %rax,%rdi
    5440:	e8 0d ea ff ff       	callq  3e52 <_ZGTtN6BucketIiiE7getNodeEv>
    5445:	48 89 45 b8          	mov    %rax,-0x48(%rbp)
    5449:	e8 82 c6 ff ff       	callq  1ad0 <_ITM_commitTransaction@plt>
    544e:	eb 15                	jmp    5465 <_ZN9HashTableIiiE4readEi+0x9d>
    5450:	48 8b 45 c8          	mov    -0x38(%rbp),%rax
    5454:	48 89 c7             	mov    %rax,%rdi
    5457:	e8 86 ee ff ff       	callq  42e2 <_ZN6BucketIiiE7getNodeEv>
    545c:	48 89 45 b8          	mov    %rax,-0x48(%rbp)
    5460:	e8 6b c6 ff ff       	callq  1ad0 <_ITM_commitTransaction@plt>
    5465:	48 83 7d b8 00       	cmpq   $0x0,-0x48(%rbp)
    546a:	0f 84 e7 00 00 00    	je     5557 <_ZN9HashTableIiiE4readEi+0x18f>
    5470:	bf 2b 00 00 00       	mov    $0x2b,%edi
    5475:	b8 00 00 00 00       	mov    $0x0,%eax
    547a:	e8 21 c8 ff ff       	callq  1ca0 <_ITM_beginTransaction@plt>
    547f:	83 e0 02             	and    $0x2,%eax
    5482:	85 c0                	test   %eax,%eax
    5484:	75 6d                	jne    54f3 <_ZN9HashTableIiiE4readEi+0x12b>
    5486:	48 8b 45 b8          	mov    -0x48(%rbp),%rax
    548a:	48 89 c7             	mov    %rax,%rdi
    548d:	e8 06 e8 ff ff       	callq  3c98 <_ZGTtN8HashNodeIiiE6getKeyEv>
    5492:	48 89 c7             	mov    %rax,%rdi
    5495:	e8 36 c7 ff ff       	callq  1bd0 <_ITM_RU4@plt>
    549a:	3b 45 a4             	cmp    -0x5c(%rbp),%eax
    549d:	0f 94 c0             	sete   %al
    54a0:	84 c0                	test   %al,%al
    54a2:	74 26                	je     54ca <_ZN9HashTableIiiE4readEi+0x102>
    54a4:	48 8b 45 b8          	mov    -0x48(%rbp),%rax
    54a8:	48 89 c7             	mov    %rax,%rdi
    54ab:	e8 82 e7 ff ff       	callq  3c32 <_ZGTtN8HashNodeIiiE8getValueEv>
    54b0:	48 89 c7             	mov    %rax,%rdi
    54b3:	e8 18 c7 ff ff       	callq  1bd0 <_ITM_RU4@plt>
    54b8:	89 c3                	mov    %eax,%ebx
    54ba:	41 bc 00 00 00 00    	mov    $0x0,%r12d
    54c0:	48 8b 45 b8          	mov    -0x48(%rbp),%rax
    54c4:	48 89 45 c0          	mov    %rax,-0x40(%rbp)
    54c8:	eb 19                	jmp    54e3 <_ZN9HashTableIiiE4readEi+0x11b>
    54ca:	48 8b 45 b8          	mov    -0x48(%rbp),%rax
    54ce:	48 89 c7             	mov    %rax,%rdi
    54d1:	e8 a8 e7 ff ff       	callq  3c7e <_ZGTtN8HashNodeIiiE7getNextEv>
    54d6:	48 89 45 c0          	mov    %rax,-0x40(%rbp)
    54da:	41 bc 01 00 00 00    	mov    $0x1,%r12d
    54e0:	8b 5d a0             	mov    -0x60(%rbp),%ebx
    54e3:	e8 e8 c5 ff ff       	callq  1ad0 <_ITM_commitTransaction@plt>
    54e8:	41 83 fc 01          	cmp    $0x1,%r12d
    54ec:	74 59                	je     5547 <_ZN9HashTableIiiE4readEi+0x17f>
    54ee:	e9 96 00 00 00       	jmpq   5589 <_ZN9HashTableIiiE4readEi+0x1c1>
    54f3:	48 8b 45 b8          	mov    -0x48(%rbp),%rax
    54f7:	48 89 c7             	mov    %rax,%rdi
    54fa:	e8 83 0f 00 00       	callq  6482 <_ZN8HashNodeIiiE6getKeyEv>
    54ff:	8b 00                	mov    (%rax),%eax
    5501:	3b 45 a4             	cmp    -0x5c(%rbp),%eax
    5504:	0f 94 c0             	sete   %al
    5507:	84 c0                	test   %al,%al
    5509:	74 16                	je     5521 <_ZN9HashTableIiiE4readEi+0x159>
    550b:	48 8b 45 b8          	mov    -0x48(%rbp),%rax
    550f:	48 89 c7             	mov    %rax,%rdi
    5512:	e8 29 14 00 00       	callq  6940 <_ZN8HashNodeIiiE8getValueEv>
    5517:	8b 18                	mov    (%rax),%ebx
    5519:	41 bc 00 00 00 00    	mov    $0x0,%r12d
    551f:	eb 19                	jmp    553a <_ZN9HashTableIiiE4readEi+0x172>
    5521:	48 8b 45 b8          	mov    -0x48(%rbp),%rax
    5525:	48 89 c7             	mov    %rax,%rdi
    5528:	e8 67 0f 00 00       	callq  6494 <_ZN8HashNodeIiiE7getNextEv>
    552d:	48 89 45 b8          	mov    %rax,-0x48(%rbp)
    5531:	41 bc 01 00 00 00    	mov    $0x1,%r12d
    5537:	8b 5d a0             	mov    -0x60(%rbp),%ebx
    553a:	e8 91 c5 ff ff       	callq  1ad0 <_ITM_commitTransaction@plt>
    553f:	41 83 fc 01          	cmp    $0x1,%r12d
    5543:	75 44                	jne    5589 <_ZN9HashTableIiiE4readEi+0x1c1>
    5545:	eb 08                	jmp    554f <_ZN9HashTableIiiE4readEi+0x187>
    5547:	48 8b 45 c0          	mov    -0x40(%rbp),%rax
    554b:	48 89 45 b8          	mov    %rax,-0x48(%rbp)
    554f:	89 5d a0             	mov    %ebx,-0x60(%rbp)
    5552:	e9 0e ff ff ff       	jmpq   5465 <_ZN9HashTableIiiE4readEi+0x9d>
    5557:	bf 08 00 00 00       	mov    $0x8,%edi
    555c:	e8 2f c5 ff ff       	callq  1a90 <__cxa_allocate_exception@plt>
    5561:	48 89 c3             	mov    %rax,%rbx
    5564:	48 c7 03 00 00 00 00 	movq   $0x0,(%rbx)
    556b:	48 89 df             	mov    %rbx,%rdi
    556e:	e8 d5 fd ff ff       	callq  5348 <_ZN19InvalidReadExeptionC1Ev>
    5573:	48 8d 15 f8 fd ff ff 	lea    -0x208(%rip),%rdx        # 5372 <_ZN19InvalidReadExeptionD1Ev>
    557a:	48 8d 35 67 96 20 00 	lea    0x209667(%rip),%rsi        # 20ebe8 <_ZTVN10__cxxabiv120__si_class_type_infoE@CXXABI_1.3>
    5581:	48 89 df             	mov    %rbx,%rdi
    5584:	e8 b7 c6 ff ff       	callq  1c40 <__cxa_throw@plt>
    5589:	48 8d 45 d0          	lea    -0x30(%rbp),%rax
    558d:	48 89 c7             	mov    %rax,%rdi
    5590:	e8 6b 0e 00 00       	callq  6400 <_ZNSt11shared_lockISt18shared_timed_mutexED1Ev>
    5595:	89 d8                	mov    %ebx,%eax
    5597:	48 8b 4d e8          	mov    -0x18(%rbp),%rcx
    559b:	64 48 33 0c 25 28 00 	xor    %fs:0x28,%rcx
    55a2:	00 00 
    55a4:	74 21                	je     55c7 <_ZN9HashTableIiiE4readEi+0x1ff>
    55a6:	eb 1a                	jmp    55c2 <_ZN9HashTableIiiE4readEi+0x1fa>
    55a8:	48 89 c3             	mov    %rax,%rbx
    55ab:	48 8d 45 d0          	lea    -0x30(%rbp),%rax
    55af:	48 89 c7             	mov    %rax,%rdi
    55b2:	e8 49 0e 00 00       	callq  6400 <_ZNSt11shared_lockISt18shared_timed_mutexED1Ev>
    55b7:	48 89 d8             	mov    %rbx,%rax
    55ba:	48 89 c7             	mov    %rax,%rdi
    55bd:	e8 9e c6 ff ff       	callq  1c60 <_Unwind_Resume@plt>
    55c2:	e8 c9 c5 ff ff       	callq  1b90 <__stack_chk_fail@plt>
    55c7:	48 83 c4 50          	add    $0x50,%rsp
    55cb:	5b                   	pop    %rbx
    55cc:	41 5c                	pop    %r12
    55ce:	5d                   	pop    %rbp
    55cf:	c3                   	retq   

00000000000055d0 <_ZNSt12_Vector_baseISt4pairIiiESaIS1_EE12_Vector_implC1Ev>:
    55d0:	55                   	push   %rbp
    55d1:	48 89 e5             	mov    %rsp,%rbp
    55d4:	48 83 ec 10          	sub    $0x10,%rsp
    55d8:	48 89 7d f8          	mov    %rdi,-0x8(%rbp)
    55dc:	48 8b 45 f8          	mov    -0x8(%rbp),%rax
    55e0:	48 89 c7             	mov    %rax,%rdi
    55e3:	e8 6a 13 00 00       	callq  6952 <_ZNSaISt4pairIiiEEC1Ev>
    55e8:	48 8b 45 f8          	mov    -0x8(%rbp),%rax
    55ec:	48 89 c7             	mov    %rax,%rdi
    55ef:	e8 7a 13 00 00       	callq  696e <_ZNSt12_Vector_baseISt4pairIiiESaIS1_EE17_Vector_impl_dataC1Ev>
    55f4:	90                   	nop
    55f5:	c9                   	leaveq 
    55f6:	c3                   	retq   
    55f7:	90                   	nop

00000000000055f8 <_ZNSaISt4pairIiiEED1Ev>:
    55f8:	55                   	push   %rbp
    55f9:	48 89 e5             	mov    %rsp,%rbp
    55fc:	48 83 ec 10          	sub    $0x10,%rsp
    5600:	48 89 7d f8          	mov    %rdi,-0x8(%rbp)
    5604:	48 8b 45 f8          	mov    -0x8(%rbp),%rax
    5608:	48 89 c7             	mov    %rax,%rdi
    560b:	e8 8c 13 00 00       	callq  699c <_ZN9__gnu_cxx13new_allocatorISt4pairIiiEED1Ev>
    5610:	90                   	nop
    5611:	c9                   	leaveq 
    5612:	c3                   	retq   
    5613:	90                   	nop

0000000000005614 <_ZNSt12_Vector_baseISt4pairIiiESaIS1_EED1Ev>:
    5614:	55                   	push   %rbp
    5615:	48 89 e5             	mov    %rsp,%rbp
    5618:	48 83 ec 10          	sub    $0x10,%rsp
    561c:	48 89 7d f8          	mov    %rdi,-0x8(%rbp)
    5620:	48 8b 45 f8          	mov    -0x8(%rbp),%rax
    5624:	48 8b 50 10          	mov    0x10(%rax),%rdx
    5628:	48 8b 45 f8          	mov    -0x8(%rbp),%rax
    562c:	48 8b 00             	mov    (%rax),%rax
    562f:	48 29 c2             	sub    %rax,%rdx
    5632:	48 89 d0             	mov    %rdx,%rax
    5635:	48 c1 f8 03          	sar    $0x3,%rax
    5639:	48 89 c2             	mov    %rax,%rdx
    563c:	48 8b 45 f8          	mov    -0x8(%rbp),%rax
    5640:	48 8b 08             	mov    (%rax),%rcx
    5643:	48 8b 45 f8          	mov    -0x8(%rbp),%rax
    5647:	48 89 ce             	mov    %rcx,%rsi
    564a:	48 89 c7             	mov    %rax,%rdi
    564d:	e8 56 13 00 00       	callq  69a8 <_ZNSt12_Vector_baseISt4pairIiiESaIS1_EE13_M_deallocateEPS1_m>
    5652:	48 8b 45 f8          	mov    -0x8(%rbp),%rax
    5656:	48 89 c7             	mov    %rax,%rdi
    5659:	e8 6e f1 ff ff       	callq  47cc <_ZNSt12_Vector_baseISt4pairIiiESaIS1_EE12_Vector_implD1Ev>
    565e:	90                   	nop
    565f:	c9                   	leaveq 
    5660:	c3                   	retq   
    5661:	90                   	nop

0000000000005662 <_ZNSt6vectorISt4pairIiiESaIS1_EED1Ev>:
    5662:	55                   	push   %rbp
    5663:	48 89 e5             	mov    %rsp,%rbp
    5666:	48 83 ec 10          	sub    $0x10,%rsp
    566a:	48 89 7d f8          	mov    %rdi,-0x8(%rbp)
    566e:	48 8b 45 f8          	mov    -0x8(%rbp),%rax
    5672:	48 89 c7             	mov    %rax,%rdi
    5675:	e8 64 13 00 00       	callq  69de <_ZNSt12_Vector_baseISt4pairIiiESaIS1_EE19_M_get_Tp_allocatorEv>
    567a:	48 89 c2             	mov    %rax,%rdx
    567d:	48 8b 45 f8          	mov    -0x8(%rbp),%rax
    5681:	48 8b 48 08          	mov    0x8(%rax),%rcx
    5685:	48 8b 45 f8          	mov    -0x8(%rbp),%rax
    5689:	48 8b 00             	mov    (%rax),%rax
    568c:	48 89 ce             	mov    %rcx,%rsi
    568f:	48 89 c7             	mov    %rax,%rdi
    5692:	e8 55 13 00 00       	callq  69ec <_ZSt8_DestroyIPSt4pairIiiES1_EvT_S3_RSaIT0_E>
    5697:	48 8b 45 f8          	mov    -0x8(%rbp),%rax
    569b:	48 89 c7             	mov    %rax,%rdi
    569e:	e8 71 ff ff ff       	callq  5614 <_ZNSt12_Vector_baseISt4pairIiiESaIS1_EED1Ev>
    56a3:	90                   	nop
    56a4:	c9                   	leaveq 
    56a5:	c3                   	retq   

00000000000056a6 <_ZNSt12_Vector_baseIiSaIiEE12_Vector_implC1Ev>:
    56a6:	55                   	push   %rbp
    56a7:	48 89 e5             	mov    %rsp,%rbp
    56aa:	48 83 ec 10          	sub    $0x10,%rsp
    56ae:	48 89 7d f8          	mov    %rdi,-0x8(%rbp)
    56b2:	48 8b 45 f8          	mov    -0x8(%rbp),%rax
    56b6:	48 89 c7             	mov    %rax,%rdi
    56b9:	e8 74 09 00 00       	callq  6032 <_ZNSaIiEC1Ev>
    56be:	48 8b 45 f8          	mov    -0x8(%rbp),%rax
    56c2:	48 89 c7             	mov    %rax,%rdi
    56c5:	e8 4c 13 00 00       	callq  6a16 <_ZNSt12_Vector_baseIiSaIiEE17_Vector_impl_dataC1Ev>
    56ca:	90                   	nop
    56cb:	c9                   	leaveq 
    56cc:	c3                   	retq   
    56cd:	90                   	nop

00000000000056ce <_ZNSaIiED1Ev>:
    56ce:	55                   	push   %rbp
    56cf:	48 89 e5             	mov    %rsp,%rbp
    56d2:	48 83 ec 10          	sub    $0x10,%rsp
    56d6:	48 89 7d f8          	mov    %rdi,-0x8(%rbp)
    56da:	48 8b 45 f8          	mov    -0x8(%rbp),%rax
    56de:	48 89 c7             	mov    %rax,%rdi
    56e1:	e8 5e 13 00 00       	callq  6a44 <_ZN9__gnu_cxx13new_allocatorIiED1Ev>
    56e6:	90                   	nop
    56e7:	c9                   	leaveq 
    56e8:	c3                   	retq   
    56e9:	90                   	nop

00000000000056ea <_ZNSt12_Vector_baseIiSaIiEED1Ev>:
    56ea:	55                   	push   %rbp
    56eb:	48 89 e5             	mov    %rsp,%rbp
    56ee:	48 83 ec 10          	sub    $0x10,%rsp
    56f2:	48 89 7d f8          	mov    %rdi,-0x8(%rbp)
    56f6:	48 8b 45 f8          	mov    -0x8(%rbp),%rax
    56fa:	48 8b 50 10          	mov    0x10(%rax),%rdx
    56fe:	48 8b 45 f8          	mov    -0x8(%rbp),%rax
    5702:	48 8b 00             	mov    (%rax),%rax
    5705:	48 29 c2             	sub    %rax,%rdx
    5708:	48 89 d0             	mov    %rdx,%rax
    570b:	48 c1 f8 02          	sar    $0x2,%rax
    570f:	48 89 c2             	mov    %rax,%rdx
    5712:	48 8b 45 f8          	mov    -0x8(%rbp),%rax
    5716:	48 8b 08             	mov    (%rax),%rcx
    5719:	48 8b 45 f8          	mov    -0x8(%rbp),%rax
    571d:	48 89 ce             	mov    %rcx,%rsi
    5720:	48 89 c7             	mov    %rax,%rdi
    5723:	e8 28 13 00 00       	callq  6a50 <_ZNSt12_Vector_baseIiSaIiEE13_M_deallocateEPim>
    5728:	48 8b 45 f8          	mov    -0x8(%rbp),%rax
    572c:	48 89 c7             	mov    %rax,%rdi
    572f:	e8 2c f1 ff ff       	callq  4860 <_ZNSt12_Vector_baseIiSaIiEE12_Vector_implD1Ev>
    5734:	90                   	nop
    5735:	c9                   	leaveq 
    5736:	c3                   	retq   
    5737:	90                   	nop

0000000000005738 <_ZNSt6vectorIiSaIiEED1Ev>:
    5738:	55                   	push   %rbp
    5739:	48 89 e5             	mov    %rsp,%rbp
    573c:	48 83 ec 10          	sub    $0x10,%rsp
    5740:	48 89 7d f8          	mov    %rdi,-0x8(%rbp)
    5744:	48 8b 45 f8          	mov    -0x8(%rbp),%rax
    5748:	48 89 c7             	mov    %rax,%rdi
    574b:	e8 36 13 00 00       	callq  6a86 <_ZNSt12_Vector_baseIiSaIiEE19_M_get_Tp_allocatorEv>
    5750:	48 89 c2             	mov    %rax,%rdx
    5753:	48 8b 45 f8          	mov    -0x8(%rbp),%rax
    5757:	48 8b 48 08          	mov    0x8(%rax),%rcx
    575b:	48 8b 45 f8          	mov    -0x8(%rbp),%rax
    575f:	48 8b 00             	mov    (%rax),%rax
    5762:	48 89 ce             	mov    %rcx,%rsi
    5765:	48 89 c7             	mov    %rax,%rdi
    5768:	e8 27 13 00 00       	callq  6a94 <_ZSt8_DestroyIPiiEvT_S1_RSaIT0_E>
    576d:	48 8b 45 f8          	mov    -0x8(%rbp),%rax
    5771:	48 89 c7             	mov    %rax,%rdi
    5774:	e8 71 ff ff ff       	callq  56ea <_ZNSt12_Vector_baseIiSaIiEED1Ev>
    5779:	90                   	nop
    577a:	c9                   	leaveq 
    577b:	c3                   	retq   

000000000000577c <_ZNSt22__shared_mutex_pthreadC1Ev>:
    577c:	55                   	push   %rbp
    577d:	48 89 e5             	mov    %rsp,%rbp
    5780:	48 89 7d f8          	mov    %rdi,-0x8(%rbp)
    5784:	48 8b 45 f8          	mov    -0x8(%rbp),%rax
    5788:	48 c7 00 00 00 00 00 	movq   $0x0,(%rax)
    578f:	48 c7 40 08 00 00 00 	movq   $0x0,0x8(%rax)
    5796:	00 
    5797:	48 c7 40 10 00 00 00 	movq   $0x0,0x10(%rax)
    579e:	00 
    579f:	48 c7 40 18 00 00 00 	movq   $0x0,0x18(%rax)
    57a6:	00 
    57a7:	48 c7 40 20 00 00 00 	movq   $0x0,0x20(%rax)
    57ae:	00 
    57af:	48 c7 40 28 00 00 00 	movq   $0x0,0x28(%rax)
    57b6:	00 
    57b7:	48 c7 40 30 00 00 00 	movq   $0x0,0x30(%rax)
    57be:	00 
    57bf:	90                   	nop
    57c0:	5d                   	pop    %rbp
    57c1:	c3                   	retq   

00000000000057c2 <_ZNSt18shared_timed_mutexC1Ev>:
    57c2:	55                   	push   %rbp
    57c3:	48 89 e5             	mov    %rsp,%rbp
    57c6:	48 83 ec 10          	sub    $0x10,%rsp
    57ca:	48 89 7d f8          	mov    %rdi,-0x8(%rbp)
    57ce:	48 8b 45 f8          	mov    -0x8(%rbp),%rax
    57d2:	48 89 c7             	mov    %rax,%rdi
    57d5:	e8 a2 ff ff ff       	callq  577c <_ZNSt22__shared_mutex_pthreadC1Ev>
    57da:	90                   	nop
    57db:	c9                   	leaveq 
    57dc:	c3                   	retq   
    57dd:	90                   	nop

00000000000057de <_ZN20InvalidSizeExceptionC1Ev>:
    57de:	55                   	push   %rbp
    57df:	48 89 e5             	mov    %rsp,%rbp
    57e2:	48 83 ec 10          	sub    $0x10,%rsp
    57e6:	48 89 7d f8          	mov    %rdi,-0x8(%rbp)
    57ea:	48 8b 45 f8          	mov    -0x8(%rbp),%rax
    57ee:	48 89 c7             	mov    %rax,%rdi
    57f1:	e8 aa e6 ff ff       	callq  3ea0 <_ZNSt9exceptionC1Ev>
    57f6:	48 8d 15 1b 93 20 00 	lea    0x20931b(%rip),%rdx        # 20eb18 <_ZTV20InvalidSizeException+0x10>
    57fd:	48 8b 45 f8          	mov    -0x8(%rbp),%rax
    5801:	48 89 10             	mov    %rdx,(%rax)
    5804:	90                   	nop
    5805:	c9                   	leaveq 
    5806:	c3                   	retq   
    5807:	90                   	nop

0000000000005808 <_ZN20InvalidSizeExceptionD1Ev>:
    5808:	55                   	push   %rbp
    5809:	48 89 e5             	mov    %rsp,%rbp
    580c:	48 83 ec 10          	sub    $0x10,%rsp
    5810:	48 89 7d f8          	mov    %rdi,-0x8(%rbp)
    5814:	48 8d 15 fd 92 20 00 	lea    0x2092fd(%rip),%rdx        # 20eb18 <_ZTV20InvalidSizeException+0x10>
    581b:	48 8b 45 f8          	mov    -0x8(%rbp),%rax
    581f:	48 89 10             	mov    %rdx,(%rax)
    5822:	48 8b 45 f8          	mov    -0x8(%rbp),%rax
    5826:	48 89 c7             	mov    %rax,%rdi
    5829:	e8 62 c4 ff ff       	callq  1c90 <_ZNSt9exceptionD2Ev@plt>
    582e:	90                   	nop
    582f:	c9                   	leaveq 
    5830:	c3                   	retq   
    5831:	90                   	nop

0000000000005832 <_ZN20InvalidSizeExceptionD0Ev>:
    5832:	55                   	push   %rbp
    5833:	48 89 e5             	mov    %rsp,%rbp
    5836:	48 83 ec 10          	sub    $0x10,%rsp
    583a:	48 89 7d f8          	mov    %rdi,-0x8(%rbp)
    583e:	48 8b 45 f8          	mov    -0x8(%rbp),%rax
    5842:	48 89 c7             	mov    %rax,%rdi
    5845:	e8 be ff ff ff       	callq  5808 <_ZN20InvalidSizeExceptionD1Ev>
    584a:	48 8b 45 f8          	mov    -0x8(%rbp),%rax
    584e:	be 08 00 00 00       	mov    $0x8,%esi
    5853:	48 89 c7             	mov    %rax,%rdi
    5856:	e8 15 c3 ff ff       	callq  1b70 <_ZdlPvm@plt>
    585b:	c9                   	leaveq 
    585c:	c3                   	retq   
    585d:	90                   	nop

000000000000585e <_ZNSt6threadC1Ev>:
    585e:	55                   	push   %rbp
    585f:	48 89 e5             	mov    %rsp,%rbp
    5862:	48 83 ec 10          	sub    $0x10,%rsp
    5866:	48 89 7d f8          	mov    %rdi,-0x8(%rbp)
    586a:	48 8b 45 f8          	mov    -0x8(%rbp),%rax
    586e:	48 89 c7             	mov    %rax,%rdi
    5871:	e8 5e e7 ff ff       	callq  3fd4 <_ZNSt6thread2idC1Ev>
    5876:	90                   	nop
    5877:	c9                   	leaveq 
    5878:	c3                   	retq   
    5879:	90                   	nop

000000000000587a <_ZN10arg_structIiiEC1Ev>:
    587a:	55                   	push   %rbp
    587b:	48 89 e5             	mov    %rsp,%rbp
    587e:	48 83 ec 10          	sub    $0x10,%rsp
    5882:	48 89 7d f8          	mov    %rdi,-0x8(%rbp)
    5886:	48 8b 45 f8          	mov    -0x8(%rbp),%rax
    588a:	48 89 c7             	mov    %rax,%rdi
    588d:	e8 cc ff ff ff       	callq  585e <_ZNSt6threadC1Ev>
    5892:	90                   	nop
    5893:	c9                   	leaveq 
    5894:	c3                   	retq   
    5895:	90                   	nop

0000000000005896 <_ZN10arg_structIiiED1Ev>:
    5896:	55                   	push   %rbp
    5897:	48 89 e5             	mov    %rsp,%rbp
    589a:	48 83 ec 10          	sub    $0x10,%rsp
    589e:	48 89 7d f8          	mov    %rdi,-0x8(%rbp)
    58a2:	48 8b 45 f8          	mov    -0x8(%rbp),%rax
    58a6:	48 89 c7             	mov    %rax,%rdi
    58a9:	e8 3c e7 ff ff       	callq  3fea <_ZNSt6threadD1Ev>
    58ae:	90                   	nop
    58af:	c9                   	leaveq 
    58b0:	c3                   	retq   
    58b1:	90                   	nop

00000000000058b2 <_ZN9HashTableIiiEC1Em>:
    58b2:	55                   	push   %rbp
    58b3:	48 89 e5             	mov    %rsp,%rbp
    58b6:	41 55                	push   %r13
    58b8:	41 54                	push   %r12
    58ba:	53                   	push   %rbx
    58bb:	48 83 ec 18          	sub    $0x18,%rsp
    58bf:	48 89 7d d8          	mov    %rdi,-0x28(%rbp)
    58c3:	48 89 75 d0          	mov    %rsi,-0x30(%rbp)
    58c7:	e8 b4 c3 ff ff       	callq  1c80 <get_nprocs_conf@plt>
    58cc:	48 63 d0             	movslq %eax,%rdx
    58cf:	48 8b 45 d8          	mov    -0x28(%rbp),%rax
    58d3:	48 89 50 28          	mov    %rdx,0x28(%rax)
    58d7:	48 8b 45 d8          	mov    -0x28(%rbp),%rax
    58db:	48 83 c0 30          	add    $0x30,%rax
    58df:	48 89 c7             	mov    %rax,%rdi
    58e2:	e8 db fe ff ff       	callq  57c2 <_ZNSt18shared_timed_mutexC1Ev>
    58e7:	48 8b 45 d8          	mov    -0x28(%rbp),%rax
    58eb:	48 83 c0 68          	add    $0x68,%rax
    58ef:	be 00 00 00 00       	mov    $0x0,%esi
    58f4:	48 89 c7             	mov    %rax,%rdi
    58f7:	e8 66 e6 ff ff       	callq  3f62 <_ZNSt11atomic_flagC1Eb>
    58fc:	48 8b 45 d0          	mov    -0x30(%rbp),%rax
    5900:	89 c2                	mov    %eax,%edx
    5902:	48 8b 45 d8          	mov    -0x28(%rbp),%rax
    5906:	89 d6                	mov    %edx,%esi
    5908:	48 89 c7             	mov    %rax,%rdi
    590b:	e8 ae 11 00 00       	callq  6abe <_ZN9HashTableIiiE12isPowerOfTwoEi>
    5910:	83 f0 01             	xor    $0x1,%eax
    5913:	84 c0                	test   %al,%al
    5915:	74 32                	je     5949 <_ZN9HashTableIiiEC1Em+0x97>
    5917:	bf 08 00 00 00       	mov    $0x8,%edi
    591c:	e8 6f c1 ff ff       	callq  1a90 <__cxa_allocate_exception@plt>
    5921:	48 89 c3             	mov    %rax,%rbx
    5924:	48 c7 03 00 00 00 00 	movq   $0x0,(%rbx)
    592b:	48 89 df             	mov    %rbx,%rdi
    592e:	e8 ab fe ff ff       	callq  57de <_ZN20InvalidSizeExceptionC1Ev>
    5933:	48 8d 15 ce fe ff ff 	lea    -0x132(%rip),%rdx        # 5808 <_ZN20InvalidSizeExceptionD1Ev>
    593a:	48 8d 35 8f 92 20 00 	lea    0x20928f(%rip),%rsi        # 20ebd0 <_ZTVN10__cxxabiv120__si_class_type_infoE@CXXABI_1.3>
    5941:	48 89 df             	mov    %rbx,%rdi
    5944:	e8 f7 c2 ff ff       	callq  1c40 <__cxa_throw@plt>
    5949:	48 8b 5d d0          	mov    -0x30(%rbp),%rbx
    594d:	48 b8 ff ff ff ff ff 	movabs $0xfffffffffffffff,%rax
    5954:	ff ff 0f 
    5957:	48 39 c3             	cmp    %rax,%rbx
    595a:	77 1f                	ja     597b <_ZN9HashTableIiiEC1Em+0xc9>
    595c:	48 8d 04 dd 00 00 00 	lea    0x0(,%rbx,8),%rax
    5963:	00 
    5964:	48 89 c7             	mov    %rax,%rdi
    5967:	e8 a4 c0 ff ff       	callq  1a10 <_Znam@plt>
    596c:	49 89 c5             	mov    %rax,%r13
    596f:	4d 89 ec             	mov    %r13,%r12
    5972:	48 8d 43 ff          	lea    -0x1(%rbx),%rax
    5976:	48 89 c3             	mov    %rax,%rbx
    5979:	eb 05                	jmp    5980 <_ZN9HashTableIiiEC1Em+0xce>
    597b:	e8 40 c2 ff ff       	callq  1bc0 <__cxa_throw_bad_array_new_length@plt>
    5980:	48 85 db             	test   %rbx,%rbx
    5983:	78 12                	js     5997 <_ZN9HashTableIiiEC1Em+0xe5>
    5985:	4c 89 e7             	mov    %r12,%rdi
    5988:	e8 b3 e9 ff ff       	callq  4340 <_ZN6BucketIiiEC1Ev>
    598d:	49 83 c4 08          	add    $0x8,%r12
    5991:	48 83 eb 01          	sub    $0x1,%rbx
    5995:	eb e9                	jmp    5980 <_ZN9HashTableIiiEC1Em+0xce>
    5997:	48 8b 45 d8          	mov    -0x28(%rbp),%rax
    599b:	4c 89 28             	mov    %r13,(%rax)
    599e:	bf 40 00 00 00       	mov    $0x40,%edi
    59a3:	e8 b8 c1 ff ff       	callq  1b60 <_Znwm@plt>
    59a8:	48 89 c3             	mov    %rax,%rbx
    59ab:	48 8b 45 d0          	mov    -0x30(%rbp),%rax
    59af:	48 89 c6             	mov    %rax,%rsi
    59b2:	48 89 df             	mov    %rbx,%rdi
    59b5:	e8 82 11 00 00       	callq  6b3c <_ZN5ArenaIiiEC1Em>
    59ba:	48 8b 45 d8          	mov    -0x28(%rbp),%rax
    59be:	48 89 58 08          	mov    %rbx,0x8(%rax)
    59c2:	48 8b 45 d8          	mov    -0x28(%rbp),%rax
    59c6:	48 8b 40 28          	mov    0x28(%rax),%rax
    59ca:	48 ba 33 33 33 33 33 	movabs $0x333333333333333,%rdx
    59d1:	33 33 03 
    59d4:	48 39 d0             	cmp    %rdx,%rax
    59d7:	77 1c                	ja     59f5 <_ZN9HashTableIiiEC1Em+0x143>
    59d9:	48 8b 45 d8          	mov    -0x28(%rbp),%rax
    59dd:	48 8b 50 28          	mov    0x28(%rax),%rdx
    59e1:	48 89 d0             	mov    %rdx,%rax
    59e4:	48 c1 e0 02          	shl    $0x2,%rax
    59e8:	48 01 d0             	add    %rdx,%rax
    59eb:	48 c1 e0 03          	shl    $0x3,%rax
    59ef:	48 83 c0 08          	add    $0x8,%rax
    59f3:	eb 07                	jmp    59fc <_ZN9HashTableIiiEC1Em+0x14a>
    59f5:	48 c7 c0 ff ff ff ff 	mov    $0xffffffffffffffff,%rax
    59fc:	48 89 c7             	mov    %rax,%rdi
    59ff:	e8 0c c0 ff ff       	callq  1a10 <_Znam@plt>
    5a04:	48 89 c3             	mov    %rax,%rbx
    5a07:	48 8b 45 d8          	mov    -0x28(%rbp),%rax
    5a0b:	48 8b 40 28          	mov    0x28(%rax),%rax
    5a0f:	48 89 03             	mov    %rax,(%rbx)
    5a12:	48 8d 53 08          	lea    0x8(%rbx),%rdx
    5a16:	48 8b 45 d8          	mov    -0x28(%rbp),%rax
    5a1a:	48 8b 40 28          	mov    0x28(%rax),%rax
    5a1e:	48 83 e8 01          	sub    $0x1,%rax
    5a22:	49 89 c4             	mov    %rax,%r12
    5a25:	49 89 d5             	mov    %rdx,%r13
    5a28:	4d 85 e4             	test   %r12,%r12
    5a2b:	78 12                	js     5a3f <_ZN9HashTableIiiEC1Em+0x18d>
    5a2d:	4c 89 ef             	mov    %r13,%rdi
    5a30:	e8 45 fe ff ff       	callq  587a <_ZN10arg_structIiiEC1Ev>
    5a35:	49 83 c5 28          	add    $0x28,%r13
    5a39:	49 83 ec 01          	sub    $0x1,%r12
    5a3d:	eb e9                	jmp    5a28 <_ZN9HashTableIiiEC1Em+0x176>
    5a3f:	48 8d 53 08          	lea    0x8(%rbx),%rdx
    5a43:	48 8b 45 d8          	mov    -0x28(%rbp),%rax
    5a47:	48 89 50 10          	mov    %rdx,0x10(%rax)
    5a4b:	48 8b 45 d8          	mov    -0x28(%rbp),%rax
    5a4f:	48 8b 55 d0          	mov    -0x30(%rbp),%rdx
    5a53:	48 89 50 18          	mov    %rdx,0x18(%rax)
    5a57:	48 8b 45 d8          	mov    -0x28(%rbp),%rax
    5a5b:	48 83 c0 20          	add    $0x20,%rax
    5a5f:	be 00 00 00 00       	mov    $0x0,%esi
    5a64:	48 89 c7             	mov    %rax,%rdi
    5a67:	e8 60 11 00 00       	callq  6bcc <_ZNSt13__atomic_baseItEaSEt>
    5a6c:	eb 1b                	jmp    5a89 <_ZN9HashTableIiiEC1Em+0x1d7>
    5a6e:	49 89 c4             	mov    %rax,%r12
    5a71:	be 40 00 00 00       	mov    $0x40,%esi
    5a76:	48 89 df             	mov    %rbx,%rdi
    5a79:	e8 f2 c0 ff ff       	callq  1b70 <_ZdlPvm@plt>
    5a7e:	4c 89 e0             	mov    %r12,%rax
    5a81:	48 89 c7             	mov    %rax,%rdi
    5a84:	e8 d7 c1 ff ff       	callq  1c60 <_Unwind_Resume@plt>
    5a89:	48 83 c4 18          	add    $0x18,%rsp
    5a8d:	5b                   	pop    %rbx
    5a8e:	41 5c                	pop    %r12
    5a90:	41 5d                	pop    %r13
    5a92:	5d                   	pop    %rbp
    5a93:	c3                   	retq   

0000000000005a94 <_ZN9HashTableIiiED1Ev>:
    5a94:	55                   	push   %rbp
    5a95:	48 89 e5             	mov    %rsp,%rbp
    5a98:	53                   	push   %rbx
    5a99:	48 83 ec 38          	sub    $0x38,%rsp
    5a9d:	48 89 7d c8          	mov    %rdi,-0x38(%rbp)
    5aa1:	64 48 8b 04 25 28 00 	mov    %fs:0x28,%rax
    5aa8:	00 00 
    5aaa:	48 89 45 e8          	mov    %rax,-0x18(%rbp)
    5aae:	31 c0                	xor    %eax,%eax
    5ab0:	48 8b 45 c8          	mov    -0x38(%rbp),%rax
    5ab4:	48 8d 50 30          	lea    0x30(%rax),%rdx
    5ab8:	48 8d 45 d0          	lea    -0x30(%rbp),%rax
    5abc:	48 89 d6             	mov    %rdx,%rsi
    5abf:	48 89 c7             	mov    %rax,%rdi
    5ac2:	e8 55 11 00 00       	callq  6c1c <_ZNSt11unique_lockISt18shared_timed_mutexEC1ERS0_>
    5ac7:	48 8b 45 c8          	mov    -0x38(%rbp),%rax
    5acb:	48 8b 00             	mov    (%rax),%rax
    5ace:	48 85 c0             	test   %rax,%rax
    5ad1:	74 0f                	je     5ae2 <_ZN9HashTableIiiED1Ev+0x4e>
    5ad3:	48 8b 45 c8          	mov    -0x38(%rbp),%rax
    5ad7:	48 8b 00             	mov    (%rax),%rax
    5ada:	48 89 c7             	mov    %rax,%rdi
    5add:	e8 be c0 ff ff       	callq  1ba0 <_ZdaPv@plt>
    5ae2:	48 8b 45 c8          	mov    -0x38(%rbp),%rax
    5ae6:	48 8b 58 08          	mov    0x8(%rax),%rbx
    5aea:	48 85 db             	test   %rbx,%rbx
    5aed:	74 15                	je     5b04 <_ZN9HashTableIiiED1Ev+0x70>
    5aef:	48 89 df             	mov    %rbx,%rdi
    5af2:	e8 8f 11 00 00       	callq  6c86 <_ZN5ArenaIiiED1Ev>
    5af7:	be 40 00 00 00       	mov    $0x40,%esi
    5afc:	48 89 df             	mov    %rbx,%rdi
    5aff:	e8 6c c0 ff ff       	callq  1b70 <_ZdlPvm@plt>
    5b04:	48 8b 45 c8          	mov    -0x38(%rbp),%rax
    5b08:	48 8b 40 10          	mov    0x10(%rax),%rax
    5b0c:	48 85 c0             	test   %rax,%rax
    5b0f:	74 7c                	je     5b8d <_ZN9HashTableIiiED1Ev+0xf9>
    5b11:	48 8b 45 c8          	mov    -0x38(%rbp),%rax
    5b15:	48 8b 48 10          	mov    0x10(%rax),%rcx
    5b19:	48 8b 45 c8          	mov    -0x38(%rbp),%rax
    5b1d:	48 8b 40 10          	mov    0x10(%rax),%rax
    5b21:	48 83 e8 08          	sub    $0x8,%rax
    5b25:	48 8b 10             	mov    (%rax),%rdx
    5b28:	48 89 d0             	mov    %rdx,%rax
    5b2b:	48 c1 e0 02          	shl    $0x2,%rax
    5b2f:	48 01 d0             	add    %rdx,%rax
    5b32:	48 c1 e0 03          	shl    $0x3,%rax
    5b36:	48 8d 1c 01          	lea    (%rcx,%rax,1),%rbx
    5b3a:	48 8b 45 c8          	mov    -0x38(%rbp),%rax
    5b3e:	48 8b 40 10          	mov    0x10(%rax),%rax
    5b42:	48 39 c3             	cmp    %rax,%rbx
    5b45:	74 0e                	je     5b55 <_ZN9HashTableIiiED1Ev+0xc1>
    5b47:	48 83 eb 28          	sub    $0x28,%rbx
    5b4b:	48 89 df             	mov    %rbx,%rdi
    5b4e:	e8 43 fd ff ff       	callq  5896 <_ZN10arg_structIiiED1Ev>
    5b53:	eb e5                	jmp    5b3a <_ZN9HashTableIiiED1Ev+0xa6>
    5b55:	48 8b 45 c8          	mov    -0x38(%rbp),%rax
    5b59:	48 8b 40 10          	mov    0x10(%rax),%rax
    5b5d:	48 83 e8 08          	sub    $0x8,%rax
    5b61:	48 8b 10             	mov    (%rax),%rdx
    5b64:	48 89 d0             	mov    %rdx,%rax
    5b67:	48 c1 e0 02          	shl    $0x2,%rax
    5b6b:	48 01 d0             	add    %rdx,%rax
    5b6e:	48 c1 e0 03          	shl    $0x3,%rax
    5b72:	48 8d 50 08          	lea    0x8(%rax),%rdx
    5b76:	48 8b 45 c8          	mov    -0x38(%rbp),%rax
    5b7a:	48 8b 40 10          	mov    0x10(%rax),%rax
    5b7e:	48 83 e8 08          	sub    $0x8,%rax
    5b82:	48 89 d6             	mov    %rdx,%rsi
    5b85:	48 89 c7             	mov    %rax,%rdi
    5b88:	e8 23 c1 ff ff       	callq  1cb0 <_ZdaPvm@plt>
    5b8d:	48 8d 45 d0          	lea    -0x30(%rbp),%rax
    5b91:	48 89 c7             	mov    %rax,%rdi
    5b94:	e8 c5 10 00 00       	callq  6c5e <_ZNSt11unique_lockISt18shared_timed_mutexED1Ev>
    5b99:	90                   	nop
    5b9a:	48 8b 45 e8          	mov    -0x18(%rbp),%rax
    5b9e:	64 48 33 04 25 28 00 	xor    %fs:0x28,%rax
    5ba5:	00 00 
    5ba7:	74 05                	je     5bae <_ZN9HashTableIiiED1Ev+0x11a>
    5ba9:	e8 e2 bf ff ff       	callq  1b90 <__stack_chk_fail@plt>
    5bae:	48 83 c4 38          	add    $0x38,%rsp
    5bb2:	5b                   	pop    %rbx
    5bb3:	5d                   	pop    %rbp
    5bb4:	c3                   	retq   

0000000000005bb5 <_ZSt9make_pairIRiS0_ESt4pairINSt17__decay_and_stripIT_E6__typeENS2_IT0_E6__typeEEOS3_OS6_>:
    5bb5:	55                   	push   %rbp
    5bb6:	48 89 e5             	mov    %rsp,%rbp
    5bb9:	53                   	push   %rbx
    5bba:	48 83 ec 28          	sub    $0x28,%rsp
    5bbe:	48 89 7d d8          	mov    %rdi,-0x28(%rbp)
    5bc2:	48 89 75 d0          	mov    %rsi,-0x30(%rbp)
    5bc6:	64 48 8b 04 25 28 00 	mov    %fs:0x28,%rax
    5bcd:	00 00 
    5bcf:	48 89 45 e8          	mov    %rax,-0x18(%rbp)
    5bd3:	31 c0                	xor    %eax,%eax
    5bd5:	48 8b 45 d0          	mov    -0x30(%rbp),%rax
    5bd9:	48 89 c7             	mov    %rax,%rdi
    5bdc:	e8 0c 11 00 00       	callq  6ced <_ZSt7forwardIRiEOT_RNSt16remove_referenceIS1_E4typeE>
    5be1:	48 89 c3             	mov    %rax,%rbx
    5be4:	48 8b 45 d8          	mov    -0x28(%rbp),%rax
    5be8:	48 89 c7             	mov    %rax,%rdi
    5beb:	e8 fd 10 00 00       	callq  6ced <_ZSt7forwardIRiEOT_RNSt16remove_referenceIS1_E4typeE>
    5bf0:	48 89 c1             	mov    %rax,%rcx
    5bf3:	48 8d 45 e0          	lea    -0x20(%rbp),%rax
    5bf7:	48 89 da             	mov    %rbx,%rdx
    5bfa:	48 89 ce             	mov    %rcx,%rsi
    5bfd:	48 89 c7             	mov    %rax,%rdi
    5c00:	e8 f7 10 00 00       	callq  6cfc <_ZNSt4pairIiiEC1IRiS2_Lb1EEEOT_OT0_>
    5c05:	48 8b 45 e0          	mov    -0x20(%rbp),%rax
    5c09:	48 8b 55 e8          	mov    -0x18(%rbp),%rdx
    5c0d:	64 48 33 14 25 28 00 	xor    %fs:0x28,%rdx
    5c14:	00 00 
    5c16:	74 05                	je     5c1d <_ZSt9make_pairIRiS0_ESt4pairINSt17__decay_and_stripIT_E6__typeENS2_IT0_E6__typeEEOS3_OS6_+0x68>
    5c18:	e8 73 bf ff ff       	callq  1b90 <__stack_chk_fail@plt>
    5c1d:	48 83 c4 28          	add    $0x28,%rsp
    5c21:	5b                   	pop    %rbx
    5c22:	5d                   	pop    %rbp
    5c23:	c3                   	retq   

0000000000005c24 <_ZNSt6vectorISt4pairIiiESaIS1_EE9push_backEOS1_>:
    5c24:	55                   	push   %rbp
    5c25:	48 89 e5             	mov    %rsp,%rbp
    5c28:	48 83 ec 10          	sub    $0x10,%rsp
    5c2c:	48 89 7d f8          	mov    %rdi,-0x8(%rbp)
    5c30:	48 89 75 f0          	mov    %rsi,-0x10(%rbp)
    5c34:	48 8b 45 f0          	mov    -0x10(%rbp),%rax
    5c38:	48 89 c7             	mov    %rax,%rdi
    5c3b:	e8 fc 10 00 00       	callq  6d3c <_ZSt4moveIRSt4pairIiiEEONSt16remove_referenceIT_E4typeEOS4_>
    5c40:	48 89 c2             	mov    %rax,%rdx
    5c43:	48 8b 45 f8          	mov    -0x8(%rbp),%rax
    5c47:	48 89 d6             	mov    %rdx,%rsi
    5c4a:	48 89 c7             	mov    %rax,%rdi
    5c4d:	e8 f8 10 00 00       	callq  6d4a <_ZNSt6vectorISt4pairIiiESaIS1_EE12emplace_backIJS1_EEERS1_DpOT_>
    5c52:	90                   	nop
    5c53:	c9                   	leaveq 
    5c54:	c3                   	retq   
    5c55:	90                   	nop

0000000000005c56 <_ZNSt6vectorIiSaIiEE9push_backERKi>:
    5c56:	55                   	push   %rbp
    5c57:	48 89 e5             	mov    %rsp,%rbp
    5c5a:	48 83 ec 10          	sub    $0x10,%rsp
    5c5e:	48 89 7d f8          	mov    %rdi,-0x8(%rbp)
    5c62:	48 89 75 f0          	mov    %rsi,-0x10(%rbp)
    5c66:	48 8b 45 f8          	mov    -0x8(%rbp),%rax
    5c6a:	48 8b 50 08          	mov    0x8(%rax),%rdx
    5c6e:	48 8b 45 f8          	mov    -0x8(%rbp),%rax
    5c72:	48 8b 40 10          	mov    0x10(%rax),%rax
    5c76:	48 39 c2             	cmp    %rax,%rdx
    5c79:	74 31                	je     5cac <_ZNSt6vectorIiSaIiEE9push_backERKi+0x56>
    5c7b:	48 8b 45 f8          	mov    -0x8(%rbp),%rax
    5c7f:	48 8b 48 08          	mov    0x8(%rax),%rcx
    5c83:	48 8b 45 f8          	mov    -0x8(%rbp),%rax
    5c87:	48 8b 55 f0          	mov    -0x10(%rbp),%rdx
    5c8b:	48 89 ce             	mov    %rcx,%rsi
    5c8e:	48 89 c7             	mov    %rax,%rdi
    5c91:	e8 59 11 00 00       	callq  6def <_ZNSt16allocator_traitsISaIiEE9constructIiJRKiEEEvRS0_PT_DpOT0_>
    5c96:	48 8b 45 f8          	mov    -0x8(%rbp),%rax
    5c9a:	48 8b 40 08          	mov    0x8(%rax),%rax
    5c9e:	48 8d 50 04          	lea    0x4(%rax),%rdx
    5ca2:	48 8b 45 f8          	mov    -0x8(%rbp),%rax
    5ca6:	48 89 50 08          	mov    %rdx,0x8(%rax)
    5caa:	eb 22                	jmp    5cce <_ZNSt6vectorIiSaIiEE9push_backERKi+0x78>
    5cac:	48 8b 45 f8          	mov    -0x8(%rbp),%rax
    5cb0:	48 89 c7             	mov    %rax,%rdi
    5cb3:	e8 44 ee ff ff       	callq  4afc <_ZNSt6vectorIiSaIiEE3endEv>
    5cb8:	48 89 c1             	mov    %rax,%rcx
    5cbb:	48 8b 55 f0          	mov    -0x10(%rbp),%rdx
    5cbf:	48 8b 45 f8          	mov    -0x8(%rbp),%rax
    5cc3:	48 89 ce             	mov    %rcx,%rsi
    5cc6:	48 89 c7             	mov    %rax,%rdi
    5cc9:	e8 5a 11 00 00       	callq  6e28 <_ZNSt6vectorIiSaIiEE17_M_realloc_insertIJRKiEEEvN9__gnu_cxx17__normal_iteratorIPiS1_EEDpOT_>
    5cce:	90                   	nop
    5ccf:	c9                   	leaveq 
    5cd0:	c3                   	retq   
    5cd1:	90                   	nop

0000000000005cd2 <_ZNKSt6vectorISt4pairIiiESaIS1_EE4sizeEv>:
    5cd2:	55                   	push   %rbp
    5cd3:	48 89 e5             	mov    %rsp,%rbp
    5cd6:	48 89 7d f8          	mov    %rdi,-0x8(%rbp)
    5cda:	48 8b 45 f8          	mov    -0x8(%rbp),%rax
    5cde:	48 8b 50 08          	mov    0x8(%rax),%rdx
    5ce2:	48 8b 45 f8          	mov    -0x8(%rbp),%rax
    5ce6:	48 8b 00             	mov    (%rax),%rax
    5ce9:	48 29 c2             	sub    %rax,%rdx
    5cec:	48 89 d0             	mov    %rdx,%rax
    5cef:	48 c1 f8 03          	sar    $0x3,%rax
    5cf3:	5d                   	pop    %rbp
    5cf4:	c3                   	retq   
    5cf5:	90                   	nop

0000000000005cf6 <_ZNSt6vectorISt4pairIiiESaIS1_EEixEm>:
    5cf6:	55                   	push   %rbp
    5cf7:	48 89 e5             	mov    %rsp,%rbp
    5cfa:	48 89 7d f8          	mov    %rdi,-0x8(%rbp)
    5cfe:	48 89 75 f0          	mov    %rsi,-0x10(%rbp)
    5d02:	48 8b 45 f8          	mov    -0x8(%rbp),%rax
    5d06:	48 8b 00             	mov    (%rax),%rax
    5d09:	48 8b 55 f0          	mov    -0x10(%rbp),%rdx
    5d0d:	48 c1 e2 03          	shl    $0x3,%rdx
    5d11:	48 01 d0             	add    %rdx,%rax
    5d14:	5d                   	pop    %rbp
    5d15:	c3                   	retq   

0000000000005d16 <_ZNSt6vectorISt4pairIiiESaIS1_EE7reserveEm>:
    5d16:	55                   	push   %rbp
    5d17:	48 89 e5             	mov    %rsp,%rbp
    5d1a:	48 83 ec 20          	sub    $0x20,%rsp
    5d1e:	48 89 7d e8          	mov    %rdi,-0x18(%rbp)
    5d22:	48 89 75 e0          	mov    %rsi,-0x20(%rbp)
    5d26:	48 8b 45 e8          	mov    -0x18(%rbp),%rax
    5d2a:	48 89 c7             	mov    %rax,%rdi
    5d2d:	e8 ac 12 00 00       	callq  6fde <_ZNKSt6vectorISt4pairIiiESaIS1_EE8max_sizeEv>
    5d32:	48 39 45 e0          	cmp    %rax,-0x20(%rbp)
    5d36:	0f 97 c0             	seta   %al
    5d39:	84 c0                	test   %al,%al
    5d3b:	74 0c                	je     5d49 <_ZNSt6vectorISt4pairIiiESaIS1_EE7reserveEm+0x33>
    5d3d:	48 8d 3d 67 3f 00 00 	lea    0x3f67(%rip),%rdi        # 9cab <_ZN6__pstl9execution2v1L5unseqE+0x7c>
    5d44:	e8 67 bd ff ff       	callq  1ab0 <_ZSt20__throw_length_errorPKc@plt>
    5d49:	48 8b 45 e8          	mov    -0x18(%rbp),%rax
    5d4d:	48 89 c7             	mov    %rax,%rdi
    5d50:	e8 ab 12 00 00       	callq  7000 <_ZNKSt6vectorISt4pairIiiESaIS1_EE8capacityEv>
    5d55:	48 39 45 e0          	cmp    %rax,-0x20(%rbp)
    5d59:	0f 97 c0             	seta   %al
    5d5c:	84 c0                	test   %al,%al
    5d5e:	0f 84 c6 00 00 00    	je     5e2a <_ZNSt6vectorISt4pairIiiESaIS1_EE7reserveEm+0x114>
    5d64:	48 8b 45 e8          	mov    -0x18(%rbp),%rax
    5d68:	48 89 c7             	mov    %rax,%rdi
    5d6b:	e8 62 ff ff ff       	callq  5cd2 <_ZNKSt6vectorISt4pairIiiESaIS1_EE4sizeEv>
    5d70:	48 89 45 f0          	mov    %rax,-0x10(%rbp)
    5d74:	48 8b 45 e8          	mov    -0x18(%rbp),%rax
    5d78:	48 8b 55 e0          	mov    -0x20(%rbp),%rdx
    5d7c:	48 89 d6             	mov    %rdx,%rsi
    5d7f:	48 89 c7             	mov    %rax,%rdi
    5d82:	e8 9d 12 00 00       	callq  7024 <_ZNSt12_Vector_baseISt4pairIiiESaIS1_EE11_M_allocateEm>
    5d87:	48 89 45 f8          	mov    %rax,-0x8(%rbp)
    5d8b:	48 8b 45 e8          	mov    -0x18(%rbp),%rax
    5d8f:	48 89 c7             	mov    %rax,%rdi
    5d92:	e8 47 0c 00 00       	callq  69de <_ZNSt12_Vector_baseISt4pairIiiESaIS1_EE19_M_get_Tp_allocatorEv>
    5d97:	48 89 c1             	mov    %rax,%rcx
    5d9a:	48 8b 45 e8          	mov    -0x18(%rbp),%rax
    5d9e:	48 8b 70 08          	mov    0x8(%rax),%rsi
    5da2:	48 8b 45 e8          	mov    -0x18(%rbp),%rax
    5da6:	48 8b 00             	mov    (%rax),%rax
    5da9:	48 8b 55 f8          	mov    -0x8(%rbp),%rdx
    5dad:	48 89 c7             	mov    %rax,%rdi
    5db0:	e8 a2 12 00 00       	callq  7057 <_ZNSt6vectorISt4pairIiiESaIS1_EE11_S_relocateEPS1_S4_S4_RS2_>
    5db5:	48 8b 45 e8          	mov    -0x18(%rbp),%rax
    5db9:	48 8b 55 e8          	mov    -0x18(%rbp),%rdx
    5dbd:	48 8b 4a 10          	mov    0x10(%rdx),%rcx
    5dc1:	48 8b 55 e8          	mov    -0x18(%rbp),%rdx
    5dc5:	48 8b 12             	mov    (%rdx),%rdx
    5dc8:	48 29 d1             	sub    %rdx,%rcx
    5dcb:	48 89 ca             	mov    %rcx,%rdx
    5dce:	48 c1 fa 03          	sar    $0x3,%rdx
    5dd2:	48 89 d6             	mov    %rdx,%rsi
    5dd5:	48 8b 55 e8          	mov    -0x18(%rbp),%rdx
    5dd9:	48 8b 0a             	mov    (%rdx),%rcx
    5ddc:	48 89 f2             	mov    %rsi,%rdx
    5ddf:	48 89 ce             	mov    %rcx,%rsi
    5de2:	48 89 c7             	mov    %rax,%rdi
    5de5:	e8 be 0b 00 00       	callq  69a8 <_ZNSt12_Vector_baseISt4pairIiiESaIS1_EE13_M_deallocateEPS1_m>
    5dea:	48 8b 45 e8          	mov    -0x18(%rbp),%rax
    5dee:	48 8b 55 f8          	mov    -0x8(%rbp),%rdx
    5df2:	48 89 10             	mov    %rdx,(%rax)
    5df5:	48 8b 45 f0          	mov    -0x10(%rbp),%rax
    5df9:	48 8d 14 c5 00 00 00 	lea    0x0(,%rax,8),%rdx
    5e00:	00 
    5e01:	48 8b 45 f8          	mov    -0x8(%rbp),%rax
    5e05:	48 01 c2             	add    %rax,%rdx
    5e08:	48 8b 45 e8          	mov    -0x18(%rbp),%rax
    5e0c:	48 89 50 08          	mov    %rdx,0x8(%rax)
    5e10:	48 8b 45 e8          	mov    -0x18(%rbp),%rax
    5e14:	48 8b 00             	mov    (%rax),%rax
    5e17:	48 8b 55 e0          	mov    -0x20(%rbp),%rdx
    5e1b:	48 c1 e2 03          	shl    $0x3,%rdx
    5e1f:	48 01 c2             	add    %rax,%rdx
    5e22:	48 8b 45 e8          	mov    -0x18(%rbp),%rax
    5e26:	48 89 50 10          	mov    %rdx,0x10(%rax)
    5e2a:	90                   	nop
    5e2b:	c9                   	leaveq 
    5e2c:	c3                   	retq   
    5e2d:	90                   	nop

0000000000005e2e <_ZNSt6vectorIiSaIiEE7reserveEm>:
    5e2e:	55                   	push   %rbp
    5e2f:	48 89 e5             	mov    %rsp,%rbp
    5e32:	48 83 ec 20          	sub    $0x20,%rsp
    5e36:	48 89 7d e8          	mov    %rdi,-0x18(%rbp)
    5e3a:	48 89 75 e0          	mov    %rsi,-0x20(%rbp)
    5e3e:	48 8b 45 e8          	mov    -0x18(%rbp),%rax
    5e42:	48 89 c7             	mov    %rax,%rdi
    5e45:	e8 62 12 00 00       	callq  70ac <_ZNKSt6vectorIiSaIiEE8max_sizeEv>
    5e4a:	48 39 45 e0          	cmp    %rax,-0x20(%rbp)
    5e4e:	0f 97 c0             	seta   %al
    5e51:	84 c0                	test   %al,%al
    5e53:	74 0c                	je     5e61 <_ZNSt6vectorIiSaIiEE7reserveEm+0x33>
    5e55:	48 8d 3d 4f 3e 00 00 	lea    0x3e4f(%rip),%rdi        # 9cab <_ZN6__pstl9execution2v1L5unseqE+0x7c>
    5e5c:	e8 4f bc ff ff       	callq  1ab0 <_ZSt20__throw_length_errorPKc@plt>
    5e61:	48 8b 45 e8          	mov    -0x18(%rbp),%rax
    5e65:	48 89 c7             	mov    %rax,%rdi
    5e68:	e8 61 12 00 00       	callq  70ce <_ZNKSt6vectorIiSaIiEE8capacityEv>
    5e6d:	48 39 45 e0          	cmp    %rax,-0x20(%rbp)
    5e71:	0f 97 c0             	seta   %al
    5e74:	84 c0                	test   %al,%al
    5e76:	0f 84 c6 00 00 00    	je     5f42 <_ZNSt6vectorIiSaIiEE7reserveEm+0x114>
    5e7c:	48 8b 45 e8          	mov    -0x18(%rbp),%rax
    5e80:	48 89 c7             	mov    %rax,%rdi
    5e83:	e8 6a 12 00 00       	callq  70f2 <_ZNKSt6vectorIiSaIiEE4sizeEv>
    5e88:	48 89 45 f0          	mov    %rax,-0x10(%rbp)
    5e8c:	48 8b 45 e8          	mov    -0x18(%rbp),%rax
    5e90:	48 8b 55 e0          	mov    -0x20(%rbp),%rdx
    5e94:	48 89 d6             	mov    %rdx,%rsi
    5e97:	48 89 c7             	mov    %rax,%rdi
    5e9a:	e8 77 12 00 00       	callq  7116 <_ZNSt12_Vector_baseIiSaIiEE11_M_allocateEm>
    5e9f:	48 89 45 f8          	mov    %rax,-0x8(%rbp)
    5ea3:	48 8b 45 e8          	mov    -0x18(%rbp),%rax
    5ea7:	48 89 c7             	mov    %rax,%rdi
    5eaa:	e8 d7 0b 00 00       	callq  6a86 <_ZNSt12_Vector_baseIiSaIiEE19_M_get_Tp_allocatorEv>
    5eaf:	48 89 c1             	mov    %rax,%rcx
    5eb2:	48 8b 45 e8          	mov    -0x18(%rbp),%rax
    5eb6:	48 8b 70 08          	mov    0x8(%rax),%rsi
    5eba:	48 8b 45 e8          	mov    -0x18(%rbp),%rax
    5ebe:	48 8b 00             	mov    (%rax),%rax
    5ec1:	48 8b 55 f8          	mov    -0x8(%rbp),%rdx
    5ec5:	48 89 c7             	mov    %rax,%rdi
    5ec8:	e8 7c 12 00 00       	callq  7149 <_ZNSt6vectorIiSaIiEE11_S_relocateEPiS2_S2_RS0_>
    5ecd:	48 8b 45 e8          	mov    -0x18(%rbp),%rax
    5ed1:	48 8b 55 e8          	mov    -0x18(%rbp),%rdx
    5ed5:	48 8b 4a 10          	mov    0x10(%rdx),%rcx
    5ed9:	48 8b 55 e8          	mov    -0x18(%rbp),%rdx
    5edd:	48 8b 12             	mov    (%rdx),%rdx
    5ee0:	48 29 d1             	sub    %rdx,%rcx
    5ee3:	48 89 ca             	mov    %rcx,%rdx
    5ee6:	48 c1 fa 02          	sar    $0x2,%rdx
    5eea:	48 89 d6             	mov    %rdx,%rsi
    5eed:	48 8b 55 e8          	mov    -0x18(%rbp),%rdx
    5ef1:	48 8b 0a             	mov    (%rdx),%rcx
    5ef4:	48 89 f2             	mov    %rsi,%rdx
    5ef7:	48 89 ce             	mov    %rcx,%rsi
    5efa:	48 89 c7             	mov    %rax,%rdi
    5efd:	e8 4e 0b 00 00       	callq  6a50 <_ZNSt12_Vector_baseIiSaIiEE13_M_deallocateEPim>
    5f02:	48 8b 45 e8          	mov    -0x18(%rbp),%rax
    5f06:	48 8b 55 f8          	mov    -0x8(%rbp),%rdx
    5f0a:	48 89 10             	mov    %rdx,(%rax)
    5f0d:	48 8b 45 f0          	mov    -0x10(%rbp),%rax
    5f11:	48 8d 14 85 00 00 00 	lea    0x0(,%rax,4),%rdx
    5f18:	00 
    5f19:	48 8b 45 f8          	mov    -0x8(%rbp),%rax
    5f1d:	48 01 c2             	add    %rax,%rdx
    5f20:	48 8b 45 e8          	mov    -0x18(%rbp),%rax
    5f24:	48 89 50 08          	mov    %rdx,0x8(%rax)
    5f28:	48 8b 45 e8          	mov    -0x18(%rbp),%rax
    5f2c:	48 8b 00             	mov    (%rax),%rax
    5f2f:	48 8b 55 e0          	mov    -0x20(%rbp),%rdx
    5f33:	48 c1 e2 02          	shl    $0x2,%rdx
    5f37:	48 01 c2             	add    %rax,%rdx
    5f3a:	48 8b 45 e8          	mov    -0x18(%rbp),%rax
    5f3e:	48 89 50 10          	mov    %rdx,0x10(%rax)
    5f42:	90                   	nop
    5f43:	c9                   	leaveq 
    5f44:	c3                   	retq   
    5f45:	90                   	nop

0000000000005f46 <_ZN9__gnu_cxx17__normal_iteratorIPKSt4pairIiiESt6vectorIS2_SaIS2_EEEC1IPS2_EERKNS0_IT_NS_11__enable_ifIXsrSt10__are_sameISB_SA_E7__valueES7_E6__typeEEE>:
    5f46:	55                   	push   %rbp
    5f47:	48 89 e5             	mov    %rsp,%rbp
    5f4a:	48 83 ec 10          	sub    $0x10,%rsp
    5f4e:	48 89 7d f8          	mov    %rdi,-0x8(%rbp)
    5f52:	48 89 75 f0          	mov    %rsi,-0x10(%rbp)
    5f56:	48 8b 45 f0          	mov    -0x10(%rbp),%rax
    5f5a:	48 89 c7             	mov    %rax,%rdi
    5f5d:	e8 c8 05 00 00       	callq  652a <_ZNK9__gnu_cxx17__normal_iteratorIPSt4pairIiiESt6vectorIS2_SaIS2_EEE4baseEv>
    5f62:	48 8b 10             	mov    (%rax),%rdx
    5f65:	48 8b 45 f8          	mov    -0x8(%rbp),%rax
    5f69:	48 89 10             	mov    %rdx,(%rax)
    5f6c:	90                   	nop
    5f6d:	c9                   	leaveq 
    5f6e:	c3                   	retq   
    5f6f:	90                   	nop

0000000000005f70 <_ZNSt6vectorISt4pairIiiESaIS1_EE5eraseEN9__gnu_cxx17__normal_iteratorIPKS1_S3_EES8_>:
    5f70:	55                   	push   %rbp
    5f71:	48 89 e5             	mov    %rsp,%rbp
    5f74:	53                   	push   %rbx
    5f75:	48 83 ec 48          	sub    $0x48,%rsp
    5f79:	48 89 7d c8          	mov    %rdi,-0x38(%rbp)
    5f7d:	48 89 75 c0          	mov    %rsi,-0x40(%rbp)
    5f81:	48 89 55 b8          	mov    %rdx,-0x48(%rbp)
    5f85:	64 48 8b 04 25 28 00 	mov    %fs:0x28,%rax
    5f8c:	00 00 
    5f8e:	48 89 45 e8          	mov    %rax,-0x18(%rbp)
    5f92:	31 c0                	xor    %eax,%eax
    5f94:	48 8b 45 c8          	mov    -0x38(%rbp),%rax
    5f98:	48 89 c7             	mov    %rax,%rdi
    5f9b:	e8 ee ee ff ff       	callq  4e8e <_ZNSt6vectorISt4pairIiiESaIS1_EE5beginEv>
    5fa0:	48 89 45 d8          	mov    %rax,-0x28(%rbp)
    5fa4:	48 8b 45 c8          	mov    -0x38(%rbp),%rax
    5fa8:	48 89 c7             	mov    %rax,%rdi
    5fab:	e8 ee 11 00 00       	callq  719e <_ZNKSt6vectorISt4pairIiiESaIS1_EE6cbeginEv>
    5fb0:	48 89 45 e0          	mov    %rax,-0x20(%rbp)
    5fb4:	48 8d 55 e0          	lea    -0x20(%rbp),%rdx
    5fb8:	48 8d 45 b8          	lea    -0x48(%rbp),%rax
    5fbc:	48 89 d6             	mov    %rdx,%rsi
    5fbf:	48 89 c7             	mov    %rax,%rdi
    5fc2:	e8 2a 12 00 00       	callq  71f1 <_ZN9__gnu_cxxmiIPKSt4pairIiiESt6vectorIS2_SaIS2_EEEENS_17__normal_iteratorIT_T0_E15difference_typeERKSB_SE_>
    5fc7:	48 89 c2             	mov    %rax,%rdx
    5fca:	48 8d 45 d8          	lea    -0x28(%rbp),%rax
    5fce:	48 89 d6             	mov    %rdx,%rsi
    5fd1:	48 89 c7             	mov    %rax,%rdi
    5fd4:	e8 59 12 00 00       	callq  7232 <_ZNK9__gnu_cxx17__normal_iteratorIPSt4pairIiiESt6vectorIS2_SaIS2_EEEplEl>
    5fd9:	48 89 c3             	mov    %rax,%rbx
    5fdc:	48 8d 55 e0          	lea    -0x20(%rbp),%rdx
    5fe0:	48 8d 45 c0          	lea    -0x40(%rbp),%rax
    5fe4:	48 89 d6             	mov    %rdx,%rsi
    5fe7:	48 89 c7             	mov    %rax,%rdi
    5fea:	e8 02 12 00 00       	callq  71f1 <_ZN9__gnu_cxxmiIPKSt4pairIiiESt6vectorIS2_SaIS2_EEEENS_17__normal_iteratorIT_T0_E15difference_typeERKSB_SE_>
    5fef:	48 89 c2             	mov    %rax,%rdx
    5ff2:	48 8d 45 d8          	lea    -0x28(%rbp),%rax
    5ff6:	48 89 d6             	mov    %rdx,%rsi
    5ff9:	48 89 c7             	mov    %rax,%rdi
    5ffc:	e8 31 12 00 00       	callq  7232 <_ZNK9__gnu_cxx17__normal_iteratorIPSt4pairIiiESt6vectorIS2_SaIS2_EEEplEl>
    6001:	48 89 c1             	mov    %rax,%rcx
    6004:	48 8b 45 c8          	mov    -0x38(%rbp),%rax
    6008:	48 89 da             	mov    %rbx,%rdx
    600b:	48 89 ce             	mov    %rcx,%rsi
    600e:	48 89 c7             	mov    %rax,%rdi
    6011:	e8 7e 12 00 00       	callq  7294 <_ZNSt6vectorISt4pairIiiESaIS1_EE8_M_eraseEN9__gnu_cxx17__normal_iteratorIPS1_S3_EES7_>
    6016:	48 8b 4d e8          	mov    -0x18(%rbp),%rcx
    601a:	64 48 33 0c 25 28 00 	xor    %fs:0x28,%rcx
    6021:	00 00 
    6023:	74 05                	je     602a <_ZNSt6vectorISt4pairIiiESaIS1_EE5eraseEN9__gnu_cxx17__normal_iteratorIPKS1_S3_EES8_+0xba>
    6025:	e8 66 bb ff ff       	callq  1b90 <__stack_chk_fail@plt>
    602a:	48 83 c4 48          	add    $0x48,%rsp
    602e:	5b                   	pop    %rbx
    602f:	5d                   	pop    %rbp
    6030:	c3                   	retq   
    6031:	90                   	nop

0000000000006032 <_ZNSaIiEC1Ev>:
    6032:	55                   	push   %rbp
    6033:	48 89 e5             	mov    %rsp,%rbp
    6036:	48 83 ec 10          	sub    $0x10,%rsp
    603a:	48 89 7d f8          	mov    %rdi,-0x8(%rbp)
    603e:	48 8b 45 f8          	mov    -0x8(%rbp),%rax
    6042:	48 89 c7             	mov    %rax,%rdi
    6045:	e8 3a 13 00 00       	callq  7384 <_ZN9__gnu_cxx13new_allocatorIiEC1Ev>
    604a:	90                   	nop
    604b:	c9                   	leaveq 
    604c:	c3                   	retq   
    604d:	90                   	nop

000000000000604e <_ZNSt6vectorIiSaIiEEC1ESt16initializer_listIiERKS0_>:
    604e:	55                   	push   %rbp
    604f:	48 89 e5             	mov    %rsp,%rbp
    6052:	53                   	push   %rbx
    6053:	48 83 ec 38          	sub    $0x38,%rsp
    6057:	48 89 7d d8          	mov    %rdi,-0x28(%rbp)
    605b:	48 89 f0             	mov    %rsi,%rax
    605e:	48 89 d6             	mov    %rdx,%rsi
    6061:	48 89 f2             	mov    %rsi,%rdx
    6064:	48 89 45 c0          	mov    %rax,-0x40(%rbp)
    6068:	48 89 55 c8          	mov    %rdx,-0x38(%rbp)
    606c:	48 89 4d d0          	mov    %rcx,-0x30(%rbp)
    6070:	64 48 8b 04 25 28 00 	mov    %fs:0x28,%rax
    6077:	00 00 
    6079:	48 89 45 e8          	mov    %rax,-0x18(%rbp)
    607d:	31 c0                	xor    %eax,%eax
    607f:	48 8b 45 d8          	mov    -0x28(%rbp),%rax
    6083:	48 8b 55 d0          	mov    -0x30(%rbp),%rdx
    6087:	48 89 d6             	mov    %rdx,%rsi
    608a:	48 89 c7             	mov    %rax,%rdi
    608d:	e8 fe 12 00 00       	callq  7390 <_ZNSt12_Vector_baseIiSaIiEEC1ERKS0_>
    6092:	48 8d 45 c0          	lea    -0x40(%rbp),%rax
    6096:	48 89 c7             	mov    %rax,%rdi
    6099:	e8 2a 13 00 00       	callq  73c8 <_ZNKSt16initializer_listIiE3endEv>
    609e:	48 89 c3             	mov    %rax,%rbx
    60a1:	48 8d 45 c0          	lea    -0x40(%rbp),%rax
    60a5:	48 89 c7             	mov    %rax,%rdi
    60a8:	e8 09 13 00 00       	callq  73b6 <_ZNKSt16initializer_listIiE5beginEv>
    60ad:	48 89 c1             	mov    %rax,%rcx
    60b0:	48 8b 45 d8          	mov    -0x28(%rbp),%rax
    60b4:	48 89 da             	mov    %rbx,%rdx
    60b7:	48 89 ce             	mov    %rcx,%rsi
    60ba:	48 89 c7             	mov    %rax,%rdi
    60bd:	e8 6e 13 00 00       	callq  7430 <_ZNSt6vectorIiSaIiEE19_M_range_initializeIPKiEEvT_S5_St20forward_iterator_tag>
    60c2:	eb 1a                	jmp    60de <_ZNSt6vectorIiSaIiEEC1ESt16initializer_listIiERKS0_+0x90>
    60c4:	48 89 c3             	mov    %rax,%rbx
    60c7:	48 8b 45 d8          	mov    -0x28(%rbp),%rax
    60cb:	48 89 c7             	mov    %rax,%rdi
    60ce:	e8 17 f6 ff ff       	callq  56ea <_ZNSt12_Vector_baseIiSaIiEED1Ev>
    60d3:	48 89 d8             	mov    %rbx,%rax
    60d6:	48 89 c7             	mov    %rax,%rdi
    60d9:	e8 82 bb ff ff       	callq  1c60 <_Unwind_Resume@plt>
    60de:	48 8b 45 e8          	mov    -0x18(%rbp),%rax
    60e2:	64 48 33 04 25 28 00 	xor    %fs:0x28,%rax
    60e9:	00 00 
    60eb:	74 05                	je     60f2 <_ZNSt6vectorIiSaIiEEC1ESt16initializer_listIiERKS0_+0xa4>
    60ed:	e8 9e ba ff ff       	callq  1b90 <__stack_chk_fail@plt>
    60f2:	48 83 c4 38          	add    $0x38,%rsp
    60f6:	5b                   	pop    %rbx
    60f7:	5d                   	pop    %rbp
    60f8:	c3                   	retq   
    60f9:	90                   	nop

00000000000060fa <_ZNSaImEC1Ev>:
    60fa:	55                   	push   %rbp
    60fb:	48 89 e5             	mov    %rsp,%rbp
    60fe:	48 83 ec 10          	sub    $0x10,%rsp
    6102:	48 89 7d f8          	mov    %rdi,-0x8(%rbp)
    6106:	48 8b 45 f8          	mov    -0x8(%rbp),%rax
    610a:	48 89 c7             	mov    %rax,%rdi
    610d:	e8 ce 13 00 00       	callq  74e0 <_ZN9__gnu_cxx13new_allocatorImEC1Ev>
    6112:	90                   	nop
    6113:	c9                   	leaveq 
    6114:	c3                   	retq   
    6115:	90                   	nop

0000000000006116 <_ZNSaImED1Ev>:
    6116:	55                   	push   %rbp
    6117:	48 89 e5             	mov    %rsp,%rbp
    611a:	48 83 ec 10          	sub    $0x10,%rsp
    611e:	48 89 7d f8          	mov    %rdi,-0x8(%rbp)
    6122:	48 8b 45 f8          	mov    -0x8(%rbp),%rax
    6126:	48 89 c7             	mov    %rax,%rdi
    6129:	e8 be 13 00 00       	callq  74ec <_ZN9__gnu_cxx13new_allocatorImED1Ev>
    612e:	90                   	nop
    612f:	c9                   	leaveq 
    6130:	c3                   	retq   
    6131:	90                   	nop

0000000000006132 <_ZNSt6vectorImSaImEEC1ESt16initializer_listImERKS0_>:
    6132:	55                   	push   %rbp
    6133:	48 89 e5             	mov    %rsp,%rbp
    6136:	53                   	push   %rbx
    6137:	48 83 ec 38          	sub    $0x38,%rsp
    613b:	48 89 7d d8          	mov    %rdi,-0x28(%rbp)
    613f:	48 89 f0             	mov    %rsi,%rax
    6142:	48 89 d6             	mov    %rdx,%rsi
    6145:	48 89 f2             	mov    %rsi,%rdx
    6148:	48 89 45 c0          	mov    %rax,-0x40(%rbp)
    614c:	48 89 55 c8          	mov    %rdx,-0x38(%rbp)
    6150:	48 89 4d d0          	mov    %rcx,-0x30(%rbp)
    6154:	64 48 8b 04 25 28 00 	mov    %fs:0x28,%rax
    615b:	00 00 
    615d:	48 89 45 e8          	mov    %rax,-0x18(%rbp)
    6161:	31 c0                	xor    %eax,%eax
    6163:	48 8b 45 d8          	mov    -0x28(%rbp),%rax
    6167:	48 8b 55 d0          	mov    -0x30(%rbp),%rdx
    616b:	48 89 d6             	mov    %rdx,%rsi
    616e:	48 89 c7             	mov    %rax,%rdi
    6171:	e8 9e 13 00 00       	callq  7514 <_ZNSt12_Vector_baseImSaImEEC1ERKS0_>
    6176:	48 8d 45 c0          	lea    -0x40(%rbp),%rax
    617a:	48 89 c7             	mov    %rax,%rdi
    617d:	e8 18 14 00 00       	callq  759a <_ZNKSt16initializer_listImE3endEv>
    6182:	48 89 c3             	mov    %rax,%rbx
    6185:	48 8d 45 c0          	lea    -0x40(%rbp),%rax
    6189:	48 89 c7             	mov    %rax,%rdi
    618c:	e8 f7 13 00 00       	callq  7588 <_ZNKSt16initializer_listImE5beginEv>
    6191:	48 89 c1             	mov    %rax,%rcx
    6194:	48 8b 45 d8          	mov    -0x28(%rbp),%rax
    6198:	48 89 da             	mov    %rbx,%rdx
    619b:	48 89 ce             	mov    %rcx,%rsi
    619e:	48 89 c7             	mov    %rax,%rdi
    61a1:	e8 5c 14 00 00       	callq  7602 <_ZNSt6vectorImSaImEE19_M_range_initializeIPKmEEvT_S5_St20forward_iterator_tag>
    61a6:	eb 1a                	jmp    61c2 <_ZNSt6vectorImSaImEEC1ESt16initializer_listImERKS0_+0x90>
    61a8:	48 89 c3             	mov    %rax,%rbx
    61ab:	48 8b 45 d8          	mov    -0x28(%rbp),%rax
    61af:	48 89 c7             	mov    %rax,%rdi
    61b2:	e8 83 13 00 00       	callq  753a <_ZNSt12_Vector_baseImSaImEED1Ev>
    61b7:	48 89 d8             	mov    %rbx,%rax
    61ba:	48 89 c7             	mov    %rax,%rdi
    61bd:	e8 9e ba ff ff       	callq  1c60 <_Unwind_Resume@plt>
    61c2:	48 8b 45 e8          	mov    -0x18(%rbp),%rax
    61c6:	64 48 33 04 25 28 00 	xor    %fs:0x28,%rax
    61cd:	00 00 
    61cf:	74 05                	je     61d6 <_ZNSt6vectorImSaImEEC1ESt16initializer_listImERKS0_+0xa4>
    61d1:	e8 ba b9 ff ff       	callq  1b90 <__stack_chk_fail@plt>
    61d6:	48 83 c4 38          	add    $0x38,%rsp
    61da:	5b                   	pop    %rbx
    61db:	5d                   	pop    %rbp
    61dc:	c3                   	retq   
    61dd:	90                   	nop

00000000000061de <_ZNSt6vectorImSaImEED1Ev>:
    61de:	55                   	push   %rbp
    61df:	48 89 e5             	mov    %rsp,%rbp
    61e2:	48 83 ec 10          	sub    $0x10,%rsp
    61e6:	48 89 7d f8          	mov    %rdi,-0x8(%rbp)
    61ea:	48 8b 45 f8          	mov    -0x8(%rbp),%rax
    61ee:	48 89 c7             	mov    %rax,%rdi
    61f1:	e8 bc 14 00 00       	callq  76b2 <_ZNSt12_Vector_baseImSaImEE19_M_get_Tp_allocatorEv>
    61f6:	48 89 c2             	mov    %rax,%rdx
    61f9:	48 8b 45 f8          	mov    -0x8(%rbp),%rax
    61fd:	48 8b 48 08          	mov    0x8(%rax),%rcx
    6201:	48 8b 45 f8          	mov    -0x8(%rbp),%rax
    6205:	48 8b 00             	mov    (%rax),%rax
    6208:	48 89 ce             	mov    %rcx,%rsi
    620b:	48 89 c7             	mov    %rax,%rdi
    620e:	e8 ad 14 00 00       	callq  76c0 <_ZSt8_DestroyIPmmEvT_S1_RSaIT0_E>
    6213:	48 8b 45 f8          	mov    -0x8(%rbp),%rax
    6217:	48 89 c7             	mov    %rax,%rdi
    621a:	e8 1b 13 00 00       	callq  753a <_ZNSt12_Vector_baseImSaImEED1Ev>
    621f:	90                   	nop
    6220:	c9                   	leaveq 
    6221:	c3                   	retq   

0000000000006222 <_ZNSt6vectorImSaImEE5beginEv>:
    6222:	55                   	push   %rbp
    6223:	48 89 e5             	mov    %rsp,%rbp
    6226:	48 83 ec 20          	sub    $0x20,%rsp
    622a:	48 89 7d e8          	mov    %rdi,-0x18(%rbp)
    622e:	64 48 8b 04 25 28 00 	mov    %fs:0x28,%rax
    6235:	00 00 
    6237:	48 89 45 f8          	mov    %rax,-0x8(%rbp)
    623b:	31 c0                	xor    %eax,%eax
    623d:	48 8b 55 e8          	mov    -0x18(%rbp),%rdx
    6241:	48 8d 45 f0          	lea    -0x10(%rbp),%rax
    6245:	48 89 d6             	mov    %rdx,%rsi
    6248:	48 89 c7             	mov    %rax,%rdi
    624b:	e8 9a 14 00 00       	callq  76ea <_ZN9__gnu_cxx17__normal_iteratorIPmSt6vectorImSaImEEEC1ERKS1_>
    6250:	48 8b 45 f0          	mov    -0x10(%rbp),%rax
    6254:	48 8b 4d f8          	mov    -0x8(%rbp),%rcx
    6258:	64 48 33 0c 25 28 00 	xor    %fs:0x28,%rcx
    625f:	00 00 
    6261:	74 05                	je     6268 <_ZNSt6vectorImSaImEE5beginEv+0x46>
    6263:	e8 28 b9 ff ff       	callq  1b90 <__stack_chk_fail@plt>
    6268:	c9                   	leaveq 
    6269:	c3                   	retq   

000000000000626a <_ZNSt6vectorImSaImEE3endEv>:
    626a:	55                   	push   %rbp
    626b:	48 89 e5             	mov    %rsp,%rbp
    626e:	48 83 ec 20          	sub    $0x20,%rsp
    6272:	48 89 7d e8          	mov    %rdi,-0x18(%rbp)
    6276:	64 48 8b 04 25 28 00 	mov    %fs:0x28,%rax
    627d:	00 00 
    627f:	48 89 45 f8          	mov    %rax,-0x8(%rbp)
    6283:	31 c0                	xor    %eax,%eax
    6285:	48 8b 45 e8          	mov    -0x18(%rbp),%rax
    6289:	48 8d 50 08          	lea    0x8(%rax),%rdx
    628d:	48 8d 45 f0          	lea    -0x10(%rbp),%rax
    6291:	48 89 d6             	mov    %rdx,%rsi
    6294:	48 89 c7             	mov    %rax,%rdi
    6297:	e8 4e 14 00 00       	callq  76ea <_ZN9__gnu_cxx17__normal_iteratorIPmSt6vectorImSaImEEEC1ERKS1_>
    629c:	48 8b 45 f0          	mov    -0x10(%rbp),%rax
    62a0:	48 8b 4d f8          	mov    -0x8(%rbp),%rcx
    62a4:	64 48 33 0c 25 28 00 	xor    %fs:0x28,%rcx
    62ab:	00 00 
    62ad:	74 05                	je     62b4 <_ZNSt6vectorImSaImEE3endEv+0x4a>
    62af:	e8 dc b8 ff ff       	callq  1b90 <__stack_chk_fail@plt>
    62b4:	c9                   	leaveq 
    62b5:	c3                   	retq   

00000000000062b6 <_ZN9__gnu_cxxneIPmSt6vectorImSaImEEEEbRKNS_17__normal_iteratorIT_T0_EESA_>:
    62b6:	55                   	push   %rbp
    62b7:	48 89 e5             	mov    %rsp,%rbp
    62ba:	53                   	push   %rbx
    62bb:	48 83 ec 18          	sub    $0x18,%rsp
    62bf:	48 89 7d e8          	mov    %rdi,-0x18(%rbp)
    62c3:	48 89 75 e0          	mov    %rsi,-0x20(%rbp)
    62c7:	48 8b 45 e8          	mov    -0x18(%rbp),%rax
    62cb:	48 89 c7             	mov    %rax,%rdi
    62ce:	e8 35 14 00 00       	callq  7708 <_ZNK9__gnu_cxx17__normal_iteratorIPmSt6vectorImSaImEEE4baseEv>
    62d3:	48 8b 18             	mov    (%rax),%rbx
    62d6:	48 8b 45 e0          	mov    -0x20(%rbp),%rax
    62da:	48 89 c7             	mov    %rax,%rdi
    62dd:	e8 26 14 00 00       	callq  7708 <_ZNK9__gnu_cxx17__normal_iteratorIPmSt6vectorImSaImEEE4baseEv>
    62e2:	48 8b 00             	mov    (%rax),%rax
    62e5:	48 39 c3             	cmp    %rax,%rbx
    62e8:	0f 95 c0             	setne  %al
    62eb:	48 83 c4 18          	add    $0x18,%rsp
    62ef:	5b                   	pop    %rbx
    62f0:	5d                   	pop    %rbp
    62f1:	c3                   	retq   

00000000000062f2 <_ZN9__gnu_cxx17__normal_iteratorIPmSt6vectorImSaImEEEppEv>:
    62f2:	55                   	push   %rbp
    62f3:	48 89 e5             	mov    %rsp,%rbp
    62f6:	48 89 7d f8          	mov    %rdi,-0x8(%rbp)
    62fa:	48 8b 45 f8          	mov    -0x8(%rbp),%rax
    62fe:	48 8b 00             	mov    (%rax),%rax
    6301:	48 8d 50 08          	lea    0x8(%rax),%rdx
    6305:	48 8b 45 f8          	mov    -0x8(%rbp),%rax
    6309:	48 89 10             	mov    %rdx,(%rax)
    630c:	48 8b 45 f8          	mov    -0x8(%rbp),%rax
    6310:	5d                   	pop    %rbp
    6311:	c3                   	retq   

0000000000006312 <_ZNK9__gnu_cxx17__normal_iteratorIPmSt6vectorImSaImEEEdeEv>:
    6312:	55                   	push   %rbp
    6313:	48 89 e5             	mov    %rsp,%rbp
    6316:	48 89 7d f8          	mov    %rdi,-0x8(%rbp)
    631a:	48 8b 45 f8          	mov    -0x8(%rbp),%rax
    631e:	48 8b 00             	mov    (%rax),%rax
    6321:	5d                   	pop    %rbp
    6322:	c3                   	retq   

0000000000006323 <_ZSt4moveIRNSt6thread2idEEONSt16remove_referenceIT_E4typeEOS4_>:
    6323:	55                   	push   %rbp
    6324:	48 89 e5             	mov    %rsp,%rbp
    6327:	48 89 7d f8          	mov    %rdi,-0x8(%rbp)
    632b:	48 8b 45 f8          	mov    -0x8(%rbp),%rax
    632f:	5d                   	pop    %rbp
    6330:	c3                   	retq   
    6331:	90                   	nop

0000000000006332 <_ZN8HashNodeIiiE10insertNextEPS0_>:
    6332:	55                   	push   %rbp
    6333:	48 89 e5             	mov    %rsp,%rbp
    6336:	48 89 7d f8          	mov    %rdi,-0x8(%rbp)
    633a:	48 89 75 f0          	mov    %rsi,-0x10(%rbp)
    633e:	48 8b 45 f8          	mov    -0x8(%rbp),%rax
    6342:	48 8b 55 f0          	mov    -0x10(%rbp),%rdx
    6346:	48 89 10             	mov    %rdx,(%rax)
    6349:	90                   	nop
    634a:	5d                   	pop    %rbp
    634b:	c3                   	retq   

000000000000634c <_ZN8HashNodeI9tm_stringiE10insertNextEPS1_>:
    634c:	55                   	push   %rbp
    634d:	48 89 e5             	mov    %rsp,%rbp
    6350:	48 89 7d f8          	mov    %rdi,-0x8(%rbp)
    6354:	48 89 75 f0          	mov    %rsi,-0x10(%rbp)
    6358:	48 8b 45 f8          	mov    -0x8(%rbp),%rax
    635c:	48 8b 55 f0          	mov    -0x10(%rbp),%rdx
    6360:	48 89 10             	mov    %rdx,(%rax)
    6363:	90                   	nop
    6364:	5d                   	pop    %rbp
    6365:	c3                   	retq   

0000000000006366 <_ZN8HashNodeIi9tm_stringE10insertNextEPS1_>:
    6366:	55                   	push   %rbp
    6367:	48 89 e5             	mov    %rsp,%rbp
    636a:	48 89 7d f8          	mov    %rdi,-0x8(%rbp)
    636e:	48 89 75 f0          	mov    %rsi,-0x10(%rbp)
    6372:	48 8b 45 f8          	mov    -0x8(%rbp),%rax
    6376:	48 8b 55 f0          	mov    -0x10(%rbp),%rdx
    637a:	48 89 10             	mov    %rdx,(%rax)
    637d:	90                   	nop
    637e:	5d                   	pop    %rbp
    637f:	c3                   	retq   

0000000000006380 <_ZN8HashNodeI9tm_stringS0_E10insertNextEPS1_>:
    6380:	55                   	push   %rbp
    6381:	48 89 e5             	mov    %rsp,%rbp
    6384:	48 89 7d f8          	mov    %rdi,-0x8(%rbp)
    6388:	48 89 75 f0          	mov    %rsi,-0x10(%rbp)
    638c:	48 8b 45 f8          	mov    -0x8(%rbp),%rax
    6390:	48 8b 55 f0          	mov    -0x10(%rbp),%rdx
    6394:	48 89 10             	mov    %rdx,(%rax)
    6397:	90                   	nop
    6398:	5d                   	pop    %rbp
    6399:	c3                   	retq   

000000000000639a <_ZN9__gnu_cxx17__normal_iteratorIPiSt6vectorIiSaIiEEEC1ERKS1_>:
    639a:	55                   	push   %rbp
    639b:	48 89 e5             	mov    %rsp,%rbp
    639e:	48 89 7d f8          	mov    %rdi,-0x8(%rbp)
    63a2:	48 89 75 f0          	mov    %rsi,-0x10(%rbp)
    63a6:	48 8b 45 f0          	mov    -0x10(%rbp),%rax
    63aa:	48 8b 10             	mov    (%rax),%rdx
    63ad:	48 8b 45 f8          	mov    -0x8(%rbp),%rax
    63b1:	48 89 10             	mov    %rdx,(%rax)
    63b4:	90                   	nop
    63b5:	5d                   	pop    %rbp
    63b6:	c3                   	retq   
    63b7:	90                   	nop

00000000000063b8 <_ZNK9__gnu_cxx17__normal_iteratorIPiSt6vectorIiSaIiEEE4baseEv>:
    63b8:	55                   	push   %rbp
    63b9:	48 89 e5             	mov    %rsp,%rbp
    63bc:	48 89 7d f8          	mov    %rdi,-0x8(%rbp)
    63c0:	48 8b 45 f8          	mov    -0x8(%rbp),%rax
    63c4:	5d                   	pop    %rbp
    63c5:	c3                   	retq   

00000000000063c6 <_ZNSt11shared_lockISt18shared_timed_mutexEC1ERS0_>:
    63c6:	55                   	push   %rbp
    63c7:	48 89 e5             	mov    %rsp,%rbp
    63ca:	48 83 ec 10          	sub    $0x10,%rsp
    63ce:	48 89 7d f8          	mov    %rdi,-0x8(%rbp)
    63d2:	48 89 75 f0          	mov    %rsi,-0x10(%rbp)
    63d6:	48 8b 45 f0          	mov    -0x10(%rbp),%rax
    63da:	48 89 c7             	mov    %rax,%rdi
    63dd:	e8 34 13 00 00       	callq  7716 <_ZSt11__addressofISt18shared_timed_mutexEPT_RS1_>
    63e2:	48 8b 55 f8          	mov    -0x8(%rbp),%rdx
    63e6:	48 89 02             	mov    %rax,(%rdx)
    63e9:	48 8b 45 f8          	mov    -0x8(%rbp),%rax
    63ed:	c6 40 08 01          	movb   $0x1,0x8(%rax)
    63f1:	48 8b 45 f0          	mov    -0x10(%rbp),%rax
    63f5:	48 89 c7             	mov    %rax,%rdi
    63f8:	e8 93 de ff ff       	callq  4290 <_ZNSt18shared_timed_mutex11lock_sharedEv>
    63fd:	90                   	nop
    63fe:	c9                   	leaveq 
    63ff:	c3                   	retq   

0000000000006400 <_ZNSt11shared_lockISt18shared_timed_mutexED1Ev>:
    6400:	55                   	push   %rbp
    6401:	48 89 e5             	mov    %rsp,%rbp
    6404:	48 83 ec 10          	sub    $0x10,%rsp
    6408:	48 89 7d f8          	mov    %rdi,-0x8(%rbp)
    640c:	48 8b 45 f8          	mov    -0x8(%rbp),%rax
    6410:	0f b6 40 08          	movzbl 0x8(%rax),%eax
    6414:	84 c0                	test   %al,%al
    6416:	74 0f                	je     6427 <_ZNSt11shared_lockISt18shared_timed_mutexED1Ev+0x27>
    6418:	48 8b 45 f8          	mov    -0x8(%rbp),%rax
    641c:	48 8b 00             	mov    (%rax),%rax
    641f:	48 89 c7             	mov    %rax,%rdi
    6422:	e8 85 de ff ff       	callq  42ac <_ZNSt18shared_timed_mutex13unlock_sharedEv>
    6427:	90                   	nop
    6428:	c9                   	leaveq 
    6429:	c3                   	retq   

000000000000642a <_ZN9HashTableIiiE9hash_funcEi>:
    642a:	55                   	push   %rbp
    642b:	48 89 e5             	mov    %rsp,%rbp
    642e:	48 83 ec 20          	sub    $0x20,%rsp
    6432:	48 89 7d e8          	mov    %rdi,-0x18(%rbp)
    6436:	89 75 e4             	mov    %esi,-0x1c(%rbp)
    6439:	64 48 8b 04 25 28 00 	mov    %fs:0x28,%rax
    6440:	00 00 
    6442:	48 89 45 f8          	mov    %rax,-0x8(%rbp)
    6446:	31 c0                	xor    %eax,%eax
    6448:	8b 55 e4             	mov    -0x1c(%rbp),%edx
    644b:	48 8d 45 f7          	lea    -0x9(%rbp),%rax
    644f:	89 d6                	mov    %edx,%esi
    6451:	48 89 c7             	mov    %rax,%rdi
    6454:	e8 d1 da ff ff       	callq  3f2a <_ZNKSt4hashIiEclEi>
    6459:	48 8b 55 e8          	mov    -0x18(%rbp),%rdx
    645d:	48 8b 4a 18          	mov    0x18(%rdx),%rcx
    6461:	ba 00 00 00 00       	mov    $0x0,%edx
    6466:	48 f7 f1             	div    %rcx
    6469:	48 89 d0             	mov    %rdx,%rax
    646c:	48 8b 4d f8          	mov    -0x8(%rbp),%rcx
    6470:	64 48 33 0c 25 28 00 	xor    %fs:0x28,%rcx
    6477:	00 00 
    6479:	74 05                	je     6480 <_ZN9HashTableIiiE9hash_funcEi+0x56>
    647b:	e8 10 b7 ff ff       	callq  1b90 <__stack_chk_fail@plt>
    6480:	c9                   	leaveq 
    6481:	c3                   	retq   

0000000000006482 <_ZN8HashNodeIiiE6getKeyEv>:
    6482:	55                   	push   %rbp
    6483:	48 89 e5             	mov    %rsp,%rbp
    6486:	48 89 7d f8          	mov    %rdi,-0x8(%rbp)
    648a:	48 8b 45 f8          	mov    -0x8(%rbp),%rax
    648e:	48 83 c0 08          	add    $0x8,%rax
    6492:	5d                   	pop    %rbp
    6493:	c3                   	retq   

0000000000006494 <_ZN8HashNodeIiiE7getNextEv>:
    6494:	55                   	push   %rbp
    6495:	48 89 e5             	mov    %rsp,%rbp
    6498:	48 89 7d f8          	mov    %rdi,-0x8(%rbp)
    649c:	48 8b 45 f8          	mov    -0x8(%rbp),%rax
    64a0:	48 8b 00             	mov    (%rax),%rax
    64a3:	5d                   	pop    %rbp
    64a4:	c3                   	retq   
    64a5:	90                   	nop

00000000000064a6 <_ZN5ArenaIiiE4freeEP8HashNodeIiiE>:
    64a6:	55                   	push   %rbp
    64a7:	48 89 e5             	mov    %rsp,%rbp
    64aa:	48 83 ec 20          	sub    $0x20,%rsp
    64ae:	48 89 7d e8          	mov    %rdi,-0x18(%rbp)
    64b2:	48 89 75 e0          	mov    %rsi,-0x20(%rbp)
    64b6:	48 8b 45 e8          	mov    -0x18(%rbp),%rax
    64ba:	48 83 c0 18          	add    $0x18,%rax
    64be:	48 89 c7             	mov    %rax,%rdi
    64c1:	e8 1c dc ff ff       	callq  40e2 <_ZNSt5mutex4lockEv>
    64c6:	48 8b 45 e0          	mov    -0x20(%rbp),%rax
    64ca:	48 89 c7             	mov    %rax,%rdi
    64cd:	e8 52 12 00 00       	callq  7724 <_ZN9ArenaItemIiiE15storage_to_itemEP8HashNodeIiiE>
    64d2:	48 89 45 f8          	mov    %rax,-0x8(%rbp)
    64d6:	48 8b 45 e8          	mov    -0x18(%rbp),%rax
    64da:	48 8b 50 10          	mov    0x10(%rax),%rdx
    64de:	48 8b 45 f8          	mov    -0x8(%rbp),%rax
    64e2:	48 89 d6             	mov    %rdx,%rsi
    64e5:	48 89 c7             	mov    %rax,%rdi
    64e8:	e8 4d 12 00 00       	callq  773a <_ZN9ArenaItemIiiE13set_next_itemEPS0_>
    64ed:	48 8b 45 e8          	mov    -0x18(%rbp),%rax
    64f1:	48 8b 55 f8          	mov    -0x8(%rbp),%rdx
    64f5:	48 89 50 10          	mov    %rdx,0x10(%rax)
    64f9:	48 8b 45 e8          	mov    -0x18(%rbp),%rax
    64fd:	48 83 c0 18          	add    $0x18,%rax
    6501:	48 89 c7             	mov    %rax,%rdi
    6504:	e8 07 dc ff ff       	callq  4110 <_ZNSt5mutex6unlockEv>
    6509:	90                   	nop
    650a:	c9                   	leaveq 
    650b:	c3                   	retq   

000000000000650c <_ZN9__gnu_cxx17__normal_iteratorIPSt4pairIiiESt6vectorIS2_SaIS2_EEEC1ERKS3_>:
    650c:	55                   	push   %rbp
    650d:	48 89 e5             	mov    %rsp,%rbp
    6510:	48 89 7d f8          	mov    %rdi,-0x8(%rbp)
    6514:	48 89 75 f0          	mov    %rsi,-0x10(%rbp)
    6518:	48 8b 45 f0          	mov    -0x10(%rbp),%rax
    651c:	48 8b 10             	mov    (%rax),%rdx
    651f:	48 8b 45 f8          	mov    -0x8(%rbp),%rax
    6523:	48 89 10             	mov    %rdx,(%rax)
    6526:	90                   	nop
    6527:	5d                   	pop    %rbp
    6528:	c3                   	retq   
    6529:	90                   	nop

000000000000652a <_ZNK9__gnu_cxx17__normal_iteratorIPSt4pairIiiESt6vectorIS2_SaIS2_EEE4baseEv>:
    652a:	55                   	push   %rbp
    652b:	48 89 e5             	mov    %rsp,%rbp
    652e:	48 89 7d f8          	mov    %rdi,-0x8(%rbp)
    6532:	48 8b 45 f8          	mov    -0x8(%rbp),%rax
    6536:	5d                   	pop    %rbp
    6537:	c3                   	retq   

0000000000006538 <_ZN8HashNodeIiiE8setValueEi>:
    6538:	55                   	push   %rbp
    6539:	48 89 e5             	mov    %rsp,%rbp
    653c:	48 83 ec 10          	sub    $0x10,%rsp
    6540:	48 89 7d f8          	mov    %rdi,-0x8(%rbp)
    6544:	89 75 f4             	mov    %esi,-0xc(%rbp)
    6547:	48 8d 45 f4          	lea    -0xc(%rbp),%rax
    654b:	48 89 c7             	mov    %rax,%rdi
    654e:	e8 02 12 00 00       	callq  7755 <_ZSt4moveIRiEONSt16remove_referenceIT_E4typeEOS2_>
    6553:	8b 10                	mov    (%rax),%edx
    6555:	48 8b 45 f8          	mov    -0x8(%rbp),%rax
    6559:	89 50 0c             	mov    %edx,0xc(%rax)
    655c:	90                   	nop
    655d:	c9                   	leaveq 
    655e:	c3                   	retq   
    655f:	90                   	nop

0000000000006560 <_ZN5ArenaIiiE5allocEii>:
    6560:	55                   	push   %rbp
    6561:	48 89 e5             	mov    %rsp,%rbp
    6564:	41 54                	push   %r12
    6566:	53                   	push   %rbx
    6567:	48 83 ec 30          	sub    $0x30,%rsp
    656b:	48 89 7d c8          	mov    %rdi,-0x38(%rbp)
    656f:	89 75 c4             	mov    %esi,-0x3c(%rbp)
    6572:	89 55 c0             	mov    %edx,-0x40(%rbp)
    6575:	48 8b 45 c8          	mov    -0x38(%rbp),%rax
    6579:	48 83 c0 18          	add    $0x18,%rax
    657d:	48 89 c7             	mov    %rax,%rdi
    6580:	e8 5d db ff ff       	callq  40e2 <_ZNSt5mutex4lockEv>
    6585:	48 8b 45 c8          	mov    -0x38(%rbp),%rax
    6589:	48 8b 40 10          	mov    0x10(%rax),%rax
    658d:	48 85 c0             	test   %rax,%rax
    6590:	75 5e                	jne    65f0 <_ZN5ArenaIiiE5allocEii+0x90>
    6592:	bf 10 00 00 00       	mov    $0x10,%edi
    6597:	e8 c4 b5 ff ff       	callq  1b60 <_Znwm@plt>
    659c:	48 89 c3             	mov    %rax,%rbx
    659f:	48 8b 45 c8          	mov    -0x38(%rbp),%rax
    65a3:	48 8b 00             	mov    (%rax),%rax
    65a6:	48 89 c6             	mov    %rax,%rsi
    65a9:	48 89 df             	mov    %rbx,%rdi
    65ac:	e8 cf 11 00 00       	callq  7780 <_ZN8SubArenaIiiEC1Em>
    65b1:	48 89 5d d8          	mov    %rbx,-0x28(%rbp)
    65b5:	48 8b 45 c8          	mov    -0x38(%rbp),%rax
    65b9:	48 8b 50 08          	mov    0x8(%rax),%rdx
    65bd:	48 8b 45 d8          	mov    -0x28(%rbp),%rax
    65c1:	48 89 d6             	mov    %rdx,%rsi
    65c4:	48 89 c7             	mov    %rax,%rdi
    65c7:	e8 c6 12 00 00       	callq  7892 <_ZN8SubArenaIiiE14set_next_arenaEPS0_>
    65cc:	48 8b 45 c8          	mov    -0x38(%rbp),%rax
    65d0:	48 8b 55 d8          	mov    -0x28(%rbp),%rdx
    65d4:	48 89 50 08          	mov    %rdx,0x8(%rax)
    65d8:	48 8b 45 c8          	mov    -0x38(%rbp),%rax
    65dc:	48 8b 40 08          	mov    0x8(%rax),%rax
    65e0:	48 89 c7             	mov    %rax,%rdi
    65e3:	e8 c6 12 00 00       	callq  78ae <_ZNK8SubArenaIiiE11get_storageEv>
    65e8:	48 8b 55 c8          	mov    -0x38(%rbp),%rdx
    65ec:	48 89 42 10          	mov    %rax,0x10(%rdx)
    65f0:	48 8b 45 c8          	mov    -0x38(%rbp),%rax
    65f4:	48 8b 40 10          	mov    0x10(%rax),%rax
    65f8:	48 89 45 e0          	mov    %rax,-0x20(%rbp)
    65fc:	48 8b 45 e0          	mov    -0x20(%rbp),%rax
    6600:	48 89 c7             	mov    %rax,%rdi
    6603:	e8 b8 12 00 00       	callq  78c0 <_ZNK9ArenaItemIiiE13get_next_itemEv>
    6608:	48 8b 55 c8          	mov    -0x38(%rbp),%rdx
    660c:	48 89 42 10          	mov    %rax,0x10(%rdx)
    6610:	48 8b 45 c8          	mov    -0x38(%rbp),%rax
    6614:	48 83 c0 18          	add    $0x18,%rax
    6618:	48 89 c7             	mov    %rax,%rdi
    661b:	e8 f0 da ff ff       	callq  4110 <_ZNSt5mutex6unlockEv>
    6620:	48 8b 45 e0          	mov    -0x20(%rbp),%rax
    6624:	48 89 c7             	mov    %rax,%rdi
    6627:	e8 a6 12 00 00       	callq  78d2 <_ZN9ArenaItemIiiE11get_storageEv>
    662c:	48 89 45 e8          	mov    %rax,-0x18(%rbp)
    6630:	8b 55 c0             	mov    -0x40(%rbp),%edx
    6633:	8b 4d c4             	mov    -0x3c(%rbp),%ecx
    6636:	48 8b 45 e8          	mov    -0x18(%rbp),%rax
    663a:	89 ce                	mov    %ecx,%esi
    663c:	48 89 c7             	mov    %rax,%rdi
    663f:	e8 9c 12 00 00       	callq  78e0 <_ZN8HashNodeIiiE7setNodeEii>
    6644:	48 8b 45 e8          	mov    -0x18(%rbp),%rax
    6648:	eb 1b                	jmp    6665 <_ZN5ArenaIiiE5allocEii+0x105>
    664a:	49 89 c4             	mov    %rax,%r12
    664d:	be 10 00 00 00       	mov    $0x10,%esi
    6652:	48 89 df             	mov    %rbx,%rdi
    6655:	e8 16 b5 ff ff       	callq  1b70 <_ZdlPvm@plt>
    665a:	4c 89 e0             	mov    %r12,%rax
    665d:	48 89 c7             	mov    %rax,%rdi
    6660:	e8 fb b5 ff ff       	callq  1c60 <_Unwind_Resume@plt>
    6665:	48 83 c4 30          	add    $0x30,%rsp
    6669:	5b                   	pop    %rbx
    666a:	41 5c                	pop    %r12
    666c:	5d                   	pop    %rbp
    666d:	c3                   	retq   

000000000000666e <_ZN9HashTableIiiE13privateRehashEv>:
    666e:	55                   	push   %rbp
    666f:	48 89 e5             	mov    %rsp,%rbp
    6672:	41 55                	push   %r13
    6674:	41 54                	push   %r12
    6676:	53                   	push   %rbx
    6677:	48 83 ec 58          	sub    $0x58,%rsp
    667b:	48 89 7d 98          	mov    %rdi,-0x68(%rbp)
    667f:	64 48 8b 04 25 28 00 	mov    %fs:0x28,%rax
    6686:	00 00 
    6688:	48 89 45 d8          	mov    %rax,-0x28(%rbp)
    668c:	31 c0                	xor    %eax,%eax
    668e:	48 8b 45 98          	mov    -0x68(%rbp),%rax
    6692:	48 8b 50 28          	mov    0x28(%rax),%rdx
    6696:	48 8b 45 98          	mov    -0x68(%rbp),%rax
    669a:	48 8b 40 18          	mov    0x18(%rax),%rax
    669e:	48 c1 e8 06          	shr    $0x6,%rax
    66a2:	48 39 c2             	cmp    %rax,%rdx
    66a5:	73 2a                	jae    66d1 <_ZN9HashTableIiiE13privateRehashEv+0x63>
    66a7:	48 8b 45 98          	mov    -0x68(%rbp),%rax
    66ab:	48 8b 40 28          	mov    0x28(%rax),%rax
    66af:	48 89 45 b0          	mov    %rax,-0x50(%rbp)
    66b3:	48 8b 45 98          	mov    -0x68(%rbp),%rax
    66b7:	48 8b 40 18          	mov    0x18(%rax),%rax
    66bb:	48 8b 55 98          	mov    -0x68(%rbp),%rdx
    66bf:	48 8b 72 28          	mov    0x28(%rdx),%rsi
    66c3:	ba 00 00 00 00       	mov    $0x0,%edx
    66c8:	48 f7 f6             	div    %rsi
    66cb:	48 89 45 b8          	mov    %rax,-0x48(%rbp)
    66cf:	eb 3c                	jmp    670d <_ZN9HashTableIiiE13privateRehashEv+0x9f>
    66d1:	48 8b 45 98          	mov    -0x68(%rbp),%rax
    66d5:	48 8b 40 18          	mov    0x18(%rax),%rax
    66d9:	48 83 f8 3f          	cmp    $0x3f,%rax
    66dd:	76 1a                	jbe    66f9 <_ZN9HashTableIiiE13privateRehashEv+0x8b>
    66df:	48 c7 45 b8 40 00 00 	movq   $0x40,-0x48(%rbp)
    66e6:	00 
    66e7:	48 8b 45 98          	mov    -0x68(%rbp),%rax
    66eb:	48 8b 40 18          	mov    0x18(%rax),%rax
    66ef:	48 c1 e8 06          	shr    $0x6,%rax
    66f3:	48 89 45 b0          	mov    %rax,-0x50(%rbp)
    66f7:	eb 14                	jmp    670d <_ZN9HashTableIiiE13privateRehashEv+0x9f>
    66f9:	48 8b 45 98          	mov    -0x68(%rbp),%rax
    66fd:	48 8b 40 18          	mov    0x18(%rax),%rax
    6701:	48 89 45 b8          	mov    %rax,-0x48(%rbp)
    6705:	48 c7 45 b0 01 00 00 	movq   $0x1,-0x50(%rbp)
    670c:	00 
    670d:	48 8b 45 98          	mov    -0x68(%rbp),%rax
    6711:	48 8b 40 18          	mov    0x18(%rax),%rax
    6715:	48 8d 14 00          	lea    (%rax,%rax,1),%rdx
    6719:	48 8b 45 98          	mov    -0x68(%rbp),%rax
    671d:	48 89 50 18          	mov    %rdx,0x18(%rax)
    6721:	48 8b 45 98          	mov    -0x68(%rbp),%rax
    6725:	48 8b 40 08          	mov    0x8(%rax),%rax
    6729:	48 8b 55 98          	mov    -0x68(%rbp),%rdx
    672d:	48 8b 52 18          	mov    0x18(%rdx),%rdx
    6731:	48 89 d6             	mov    %rdx,%rsi
    6734:	48 89 c7             	mov    %rax,%rdi
    6737:	e8 e4 11 00 00       	callq  7920 <_ZN5ArenaIiiE7setSizeEm>
    673c:	48 8b 45 98          	mov    -0x68(%rbp),%rax
    6740:	48 8b 58 18          	mov    0x18(%rax),%rbx
    6744:	48 b8 ff ff ff ff ff 	movabs $0xfffffffffffffff,%rax
    674b:	ff ff 0f 
    674e:	48 39 c3             	cmp    %rax,%rbx
    6751:	77 1f                	ja     6772 <_ZN9HashTableIiiE13privateRehashEv+0x104>
    6753:	48 8d 04 dd 00 00 00 	lea    0x0(,%rbx,8),%rax
    675a:	00 
    675b:	48 89 c7             	mov    %rax,%rdi
    675e:	e8 ad b2 ff ff       	callq  1a10 <_Znam@plt>
    6763:	49 89 c5             	mov    %rax,%r13
    6766:	4d 89 ec             	mov    %r13,%r12
    6769:	48 8d 43 ff          	lea    -0x1(%rbx),%rax
    676d:	48 89 c3             	mov    %rax,%rbx
    6770:	eb 05                	jmp    6777 <_ZN9HashTableIiiE13privateRehashEv+0x109>
    6772:	e8 49 b4 ff ff       	callq  1bc0 <__cxa_throw_bad_array_new_length@plt>
    6777:	48 85 db             	test   %rbx,%rbx
    677a:	78 12                	js     678e <_ZN9HashTableIiiE13privateRehashEv+0x120>
    677c:	4c 89 e7             	mov    %r12,%rdi
    677f:	e8 bc db ff ff       	callq  4340 <_ZN6BucketIiiEC1Ev>
    6784:	49 83 c4 08          	add    $0x8,%r12
    6788:	48 83 eb 01          	sub    $0x1,%rbx
    678c:	eb e9                	jmp    6777 <_ZN9HashTableIiiE13privateRehashEv+0x109>
    678e:	4c 89 6d d0          	mov    %r13,-0x30(%rbp)
    6792:	48 c7 45 c0 00 00 00 	movq   $0x0,-0x40(%rbp)
    6799:	00 
    679a:	48 8b 45 c0          	mov    -0x40(%rbp),%rax
    679e:	48 3b 45 b0          	cmp    -0x50(%rbp),%rax
    67a2:	0f 83 13 01 00 00    	jae    68bb <_ZN9HashTableIiiE13privateRehashEv+0x24d>
    67a8:	48 8b 45 98          	mov    -0x68(%rbp),%rax
    67ac:	48 8b 48 10          	mov    0x10(%rax),%rcx
    67b0:	48 8b 55 c0          	mov    -0x40(%rbp),%rdx
    67b4:	48 89 d0             	mov    %rdx,%rax
    67b7:	48 c1 e0 02          	shl    $0x2,%rax
    67bb:	48 01 d0             	add    %rdx,%rax
    67be:	48 c1 e0 03          	shl    $0x3,%rax
    67c2:	48 8d 14 01          	lea    (%rcx,%rax,1),%rdx
    67c6:	48 8b 45 b8          	mov    -0x48(%rbp),%rax
    67ca:	48 89 42 20          	mov    %rax,0x20(%rdx)
    67ce:	48 8b 45 98          	mov    -0x68(%rbp),%rax
    67d2:	48 8b 48 10          	mov    0x10(%rax),%rcx
    67d6:	48 8b 55 c0          	mov    -0x40(%rbp),%rdx
    67da:	48 89 d0             	mov    %rdx,%rax
    67dd:	48 c1 e0 02          	shl    $0x2,%rax
    67e1:	48 01 d0             	add    %rdx,%rax
    67e4:	48 c1 e0 03          	shl    $0x3,%rax
    67e8:	48 01 c8             	add    %rcx,%rax
    67eb:	48 8b 55 c0          	mov    -0x40(%rbp),%rdx
    67ef:	89 50 18             	mov    %edx,0x18(%rax)
    67f2:	48 8b 45 98          	mov    -0x68(%rbp),%rax
    67f6:	48 8b 48 10          	mov    0x10(%rax),%rcx
    67fa:	48 8b 55 c0          	mov    -0x40(%rbp),%rdx
    67fe:	48 89 d0             	mov    %rdx,%rax
    6801:	48 c1 e0 02          	shl    $0x2,%rax
    6805:	48 01 d0             	add    %rdx,%rax
    6808:	48 c1 e0 03          	shl    $0x3,%rax
    680c:	48 8d 14 01          	lea    (%rcx,%rax,1),%rdx
    6810:	48 8b 45 d0          	mov    -0x30(%rbp),%rax
    6814:	48 89 42 08          	mov    %rax,0x8(%rdx)
    6818:	48 8b 45 98          	mov    -0x68(%rbp),%rax
    681c:	48 8b 48 10          	mov    0x10(%rax),%rcx
    6820:	48 8b 55 c0          	mov    -0x40(%rbp),%rdx
    6824:	48 89 d0             	mov    %rdx,%rax
    6827:	48 c1 e0 02          	shl    $0x2,%rax
    682b:	48 01 d0             	add    %rdx,%rax
    682e:	48 c1 e0 03          	shl    $0x3,%rax
    6832:	48 8d 14 01          	lea    (%rcx,%rax,1),%rdx
    6836:	48 8b 45 98          	mov    -0x68(%rbp),%rax
    683a:	48 89 42 10          	mov    %rax,0x10(%rdx)
    683e:	48 8b 45 98          	mov    -0x68(%rbp),%rax
    6842:	48 8b 48 10          	mov    0x10(%rax),%rcx
    6846:	48 8b 55 c0          	mov    -0x40(%rbp),%rdx
    684a:	48 89 d0             	mov    %rdx,%rax
    684d:	48 c1 e0 02          	shl    $0x2,%rax
    6851:	48 01 d0             	add    %rdx,%rax
    6854:	48 c1 e0 03          	shl    $0x3,%rax
    6858:	48 01 c8             	add    %rcx,%rax
    685b:	48 89 45 a0          	mov    %rax,-0x60(%rbp)
    685f:	48 8d 55 a0          	lea    -0x60(%rbp),%rdx
    6863:	48 8d 45 a8          	lea    -0x58(%rbp),%rax
    6867:	48 8d 35 f0 10 00 00 	lea    0x10f0(%rip),%rsi        # 795e <_ZN9HashTableIiiE7subHashEPv>
    686e:	48 89 c7             	mov    %rax,%rdi
    6871:	e8 dc 11 00 00       	callq  7a52 <_ZNSt6threadC1IRFPvS1_EJP10arg_structIiiEEvEEOT_DpOT0_>
    6876:	48 8b 45 98          	mov    -0x68(%rbp),%rax
    687a:	48 8b 48 10          	mov    0x10(%rax),%rcx
    687e:	48 8b 55 c0          	mov    -0x40(%rbp),%rdx
    6882:	48 89 d0             	mov    %rdx,%rax
    6885:	48 c1 e0 02          	shl    $0x2,%rax
    6889:	48 01 d0             	add    %rdx,%rax
    688c:	48 c1 e0 03          	shl    $0x3,%rax
    6890:	48 01 c8             	add    %rcx,%rax
    6893:	48 89 c2             	mov    %rax,%rdx
    6896:	48 8d 45 a8          	lea    -0x58(%rbp),%rax
    689a:	48 89 c6             	mov    %rax,%rsi
    689d:	48 89 d7             	mov    %rdx,%rdi
    68a0:	e8 69 d7 ff ff       	callq  400e <_ZNSt6threadaSEOS_>
    68a5:	48 8d 45 a8          	lea    -0x58(%rbp),%rax
    68a9:	48 89 c7             	mov    %rax,%rdi
    68ac:	e8 39 d7 ff ff       	callq  3fea <_ZNSt6threadD1Ev>
    68b1:	48 83 45 c0 01       	addq   $0x1,-0x40(%rbp)
    68b6:	e9 df fe ff ff       	jmpq   679a <_ZN9HashTableIiiE13privateRehashEv+0x12c>
    68bb:	48 c7 45 c8 00 00 00 	movq   $0x0,-0x38(%rbp)
    68c2:	00 
    68c3:	48 8b 45 c8          	mov    -0x38(%rbp),%rax
    68c7:	48 3b 45 b0          	cmp    -0x50(%rbp),%rax
    68cb:	73 2c                	jae    68f9 <_ZN9HashTableIiiE13privateRehashEv+0x28b>
    68cd:	48 8b 45 98          	mov    -0x68(%rbp),%rax
    68d1:	48 8b 48 10          	mov    0x10(%rax),%rcx
    68d5:	48 8b 55 c8          	mov    -0x38(%rbp),%rdx
    68d9:	48 89 d0             	mov    %rdx,%rax
    68dc:	48 c1 e0 02          	shl    $0x2,%rax
    68e0:	48 01 d0             	add    %rdx,%rax
    68e3:	48 c1 e0 03          	shl    $0x3,%rax
    68e7:	48 01 c8             	add    %rcx,%rax
    68ea:	48 89 c7             	mov    %rax,%rdi
    68ed:	e8 3e b3 ff ff       	callq  1c30 <_ZNSt6thread4joinEv@plt>
    68f2:	48 83 45 c8 01       	addq   $0x1,-0x38(%rbp)
    68f7:	eb ca                	jmp    68c3 <_ZN9HashTableIiiE13privateRehashEv+0x255>
    68f9:	48 8b 45 98          	mov    -0x68(%rbp),%rax
    68fd:	48 8b 00             	mov    (%rax),%rax
    6900:	48 85 c0             	test   %rax,%rax
    6903:	74 0f                	je     6914 <_ZN9HashTableIiiE13privateRehashEv+0x2a6>
    6905:	48 8b 45 98          	mov    -0x68(%rbp),%rax
    6909:	48 8b 00             	mov    (%rax),%rax
    690c:	48 89 c7             	mov    %rax,%rdi
    690f:	e8 8c b2 ff ff       	callq  1ba0 <_ZdaPv@plt>
    6914:	48 8b 45 98          	mov    -0x68(%rbp),%rax
    6918:	48 8b 55 d0          	mov    -0x30(%rbp),%rdx
    691c:	48 89 10             	mov    %rdx,(%rax)
    691f:	90                   	nop
    6920:	48 8b 45 d8          	mov    -0x28(%rbp),%rax
    6924:	64 48 33 04 25 28 00 	xor    %fs:0x28,%rax
    692b:	00 00 
    692d:	74 05                	je     6934 <_ZN9HashTableIiiE13privateRehashEv+0x2c6>
    692f:	e8 5c b2 ff ff       	callq  1b90 <__stack_chk_fail@plt>
    6934:	48 83 c4 58          	add    $0x58,%rsp
    6938:	5b                   	pop    %rbx
    6939:	41 5c                	pop    %r12
    693b:	41 5d                	pop    %r13
    693d:	5d                   	pop    %rbp
    693e:	c3                   	retq   
    693f:	90                   	nop

0000000000006940 <_ZN8HashNodeIiiE8getValueEv>:
    6940:	55                   	push   %rbp
    6941:	48 89 e5             	mov    %rsp,%rbp
    6944:	48 89 7d f8          	mov    %rdi,-0x8(%rbp)
    6948:	48 8b 45 f8          	mov    -0x8(%rbp),%rax
    694c:	48 83 c0 0c          	add    $0xc,%rax
    6950:	5d                   	pop    %rbp
    6951:	c3                   	retq   

0000000000006952 <_ZNSaISt4pairIiiEEC1Ev>:
    6952:	55                   	push   %rbp
    6953:	48 89 e5             	mov    %rsp,%rbp
    6956:	48 83 ec 10          	sub    $0x10,%rsp
    695a:	48 89 7d f8          	mov    %rdi,-0x8(%rbp)
    695e:	48 8b 45 f8          	mov    -0x8(%rbp),%rax
    6962:	48 89 c7             	mov    %rax,%rdi
    6965:	e8 c2 11 00 00       	callq  7b2c <_ZN9__gnu_cxx13new_allocatorISt4pairIiiEEC1Ev>
    696a:	90                   	nop
    696b:	c9                   	leaveq 
    696c:	c3                   	retq   
    696d:	90                   	nop

000000000000696e <_ZNSt12_Vector_baseISt4pairIiiESaIS1_EE17_Vector_impl_dataC1Ev>:
    696e:	55                   	push   %rbp
    696f:	48 89 e5             	mov    %rsp,%rbp
    6972:	48 89 7d f8          	mov    %rdi,-0x8(%rbp)
    6976:	48 8b 45 f8          	mov    -0x8(%rbp),%rax
    697a:	48 c7 00 00 00 00 00 	movq   $0x0,(%rax)
    6981:	48 8b 45 f8          	mov    -0x8(%rbp),%rax
    6985:	48 c7 40 08 00 00 00 	movq   $0x0,0x8(%rax)
    698c:	00 
    698d:	48 8b 45 f8          	mov    -0x8(%rbp),%rax
    6991:	48 c7 40 10 00 00 00 	movq   $0x0,0x10(%rax)
    6998:	00 
    6999:	90                   	nop
    699a:	5d                   	pop    %rbp
    699b:	c3                   	retq   

000000000000699c <_ZN9__gnu_cxx13new_allocatorISt4pairIiiEED1Ev>:
    699c:	55                   	push   %rbp
    699d:	48 89 e5             	mov    %rsp,%rbp
    69a0:	48 89 7d f8          	mov    %rdi,-0x8(%rbp)
    69a4:	90                   	nop
    69a5:	5d                   	pop    %rbp
    69a6:	c3                   	retq   
    69a7:	90                   	nop

00000000000069a8 <_ZNSt12_Vector_baseISt4pairIiiESaIS1_EE13_M_deallocateEPS1_m>:
    69a8:	55                   	push   %rbp
    69a9:	48 89 e5             	mov    %rsp,%rbp
    69ac:	48 83 ec 20          	sub    $0x20,%rsp
    69b0:	48 89 7d f8          	mov    %rdi,-0x8(%rbp)
    69b4:	48 89 75 f0          	mov    %rsi,-0x10(%rbp)
    69b8:	48 89 55 e8          	mov    %rdx,-0x18(%rbp)
    69bc:	48 83 7d f0 00       	cmpq   $0x0,-0x10(%rbp)
    69c1:	74 17                	je     69da <_ZNSt12_Vector_baseISt4pairIiiESaIS1_EE13_M_deallocateEPS1_m+0x32>
    69c3:	48 8b 45 f8          	mov    -0x8(%rbp),%rax
    69c7:	48 8b 55 e8          	mov    -0x18(%rbp),%rdx
    69cb:	48 8b 4d f0          	mov    -0x10(%rbp),%rcx
    69cf:	48 89 ce             	mov    %rcx,%rsi
    69d2:	48 89 c7             	mov    %rax,%rdi
    69d5:	e8 5d 11 00 00       	callq  7b37 <_ZNSt16allocator_traitsISaISt4pairIiiEEE10deallocateERS2_PS1_m>
    69da:	90                   	nop
    69db:	c9                   	leaveq 
    69dc:	c3                   	retq   
    69dd:	90                   	nop

00000000000069de <_ZNSt12_Vector_baseISt4pairIiiESaIS1_EE19_M_get_Tp_allocatorEv>:
    69de:	55                   	push   %rbp
    69df:	48 89 e5             	mov    %rsp,%rbp
    69e2:	48 89 7d f8          	mov    %rdi,-0x8(%rbp)
    69e6:	48 8b 45 f8          	mov    -0x8(%rbp),%rax
    69ea:	5d                   	pop    %rbp
    69eb:	c3                   	retq   

00000000000069ec <_ZSt8_DestroyIPSt4pairIiiES1_EvT_S3_RSaIT0_E>:
    69ec:	55                   	push   %rbp
    69ed:	48 89 e5             	mov    %rsp,%rbp
    69f0:	48 83 ec 20          	sub    $0x20,%rsp
    69f4:	48 89 7d f8          	mov    %rdi,-0x8(%rbp)
    69f8:	48 89 75 f0          	mov    %rsi,-0x10(%rbp)
    69fc:	48 89 55 e8          	mov    %rdx,-0x18(%rbp)
    6a00:	48 8b 55 f0          	mov    -0x10(%rbp),%rdx
    6a04:	48 8b 45 f8          	mov    -0x8(%rbp),%rax
    6a08:	48 89 d6             	mov    %rdx,%rsi
    6a0b:	48 89 c7             	mov    %rax,%rdi
    6a0e:	e8 52 11 00 00       	callq  7b65 <_ZSt8_DestroyIPSt4pairIiiEEvT_S3_>
    6a13:	90                   	nop
    6a14:	c9                   	leaveq 
    6a15:	c3                   	retq   

0000000000006a16 <_ZNSt12_Vector_baseIiSaIiEE17_Vector_impl_dataC1Ev>:
    6a16:	55                   	push   %rbp
    6a17:	48 89 e5             	mov    %rsp,%rbp
    6a1a:	48 89 7d f8          	mov    %rdi,-0x8(%rbp)
    6a1e:	48 8b 45 f8          	mov    -0x8(%rbp),%rax
    6a22:	48 c7 00 00 00 00 00 	movq   $0x0,(%rax)
    6a29:	48 8b 45 f8          	mov    -0x8(%rbp),%rax
    6a2d:	48 c7 40 08 00 00 00 	movq   $0x0,0x8(%rax)
    6a34:	00 
    6a35:	48 8b 45 f8          	mov    -0x8(%rbp),%rax
    6a39:	48 c7 40 10 00 00 00 	movq   $0x0,0x10(%rax)
    6a40:	00 
    6a41:	90                   	nop
    6a42:	5d                   	pop    %rbp
    6a43:	c3                   	retq   

0000000000006a44 <_ZN9__gnu_cxx13new_allocatorIiED1Ev>:
    6a44:	55                   	push   %rbp
    6a45:	48 89 e5             	mov    %rsp,%rbp
    6a48:	48 89 7d f8          	mov    %rdi,-0x8(%rbp)
    6a4c:	90                   	nop
    6a4d:	5d                   	pop    %rbp
    6a4e:	c3                   	retq   
    6a4f:	90                   	nop

0000000000006a50 <_ZNSt12_Vector_baseIiSaIiEE13_M_deallocateEPim>:
    6a50:	55                   	push   %rbp
    6a51:	48 89 e5             	mov    %rsp,%rbp
    6a54:	48 83 ec 20          	sub    $0x20,%rsp
    6a58:	48 89 7d f8          	mov    %rdi,-0x8(%rbp)
    6a5c:	48 89 75 f0          	mov    %rsi,-0x10(%rbp)
    6a60:	48 89 55 e8          	mov    %rdx,-0x18(%rbp)
    6a64:	48 83 7d f0 00       	cmpq   $0x0,-0x10(%rbp)
    6a69:	74 17                	je     6a82 <_ZNSt12_Vector_baseIiSaIiEE13_M_deallocateEPim+0x32>
    6a6b:	48 8b 45 f8          	mov    -0x8(%rbp),%rax
    6a6f:	48 8b 55 e8          	mov    -0x18(%rbp),%rdx
    6a73:	48 8b 4d f0          	mov    -0x10(%rbp),%rcx
    6a77:	48 89 ce             	mov    %rcx,%rsi
    6a7a:	48 89 c7             	mov    %rax,%rdi
    6a7d:	e8 09 11 00 00       	callq  7b8b <_ZNSt16allocator_traitsISaIiEE10deallocateERS0_Pim>
    6a82:	90                   	nop
    6a83:	c9                   	leaveq 
    6a84:	c3                   	retq   
    6a85:	90                   	nop

0000000000006a86 <_ZNSt12_Vector_baseIiSaIiEE19_M_get_Tp_allocatorEv>:
    6a86:	55                   	push   %rbp
    6a87:	48 89 e5             	mov    %rsp,%rbp
    6a8a:	48 89 7d f8          	mov    %rdi,-0x8(%rbp)
    6a8e:	48 8b 45 f8          	mov    -0x8(%rbp),%rax
    6a92:	5d                   	pop    %rbp
    6a93:	c3                   	retq   

0000000000006a94 <_ZSt8_DestroyIPiiEvT_S1_RSaIT0_E>:
    6a94:	55                   	push   %rbp
    6a95:	48 89 e5             	mov    %rsp,%rbp
    6a98:	48 83 ec 20          	sub    $0x20,%rsp
    6a9c:	48 89 7d f8          	mov    %rdi,-0x8(%rbp)
    6aa0:	48 89 75 f0          	mov    %rsi,-0x10(%rbp)
    6aa4:	48 89 55 e8          	mov    %rdx,-0x18(%rbp)
    6aa8:	48 8b 55 f0          	mov    -0x10(%rbp),%rdx
    6aac:	48 8b 45 f8          	mov    -0x8(%rbp),%rax
    6ab0:	48 89 d6             	mov    %rdx,%rsi
    6ab3:	48 89 c7             	mov    %rax,%rdi
    6ab6:	e8 fe 10 00 00       	callq  7bb9 <_ZSt8_DestroyIPiEvT_S1_>
    6abb:	90                   	nop
    6abc:	c9                   	leaveq 
    6abd:	c3                   	retq   

0000000000006abe <_ZN9HashTableIiiE12isPowerOfTwoEi>:
    6abe:	55                   	push   %rbp
    6abf:	48 89 e5             	mov    %rsp,%rbp
    6ac2:	48 89 7d f8          	mov    %rdi,-0x8(%rbp)
    6ac6:	89 75 f4             	mov    %esi,-0xc(%rbp)
    6ac9:	83 7d f4 00          	cmpl   $0x0,-0xc(%rbp)
    6acd:	74 14                	je     6ae3 <_ZN9HashTableIiiE12isPowerOfTwoEi+0x25>
    6acf:	8b 45 f4             	mov    -0xc(%rbp),%eax
    6ad2:	83 e8 01             	sub    $0x1,%eax
    6ad5:	23 45 f4             	and    -0xc(%rbp),%eax
    6ad8:	85 c0                	test   %eax,%eax
    6ada:	75 07                	jne    6ae3 <_ZN9HashTableIiiE12isPowerOfTwoEi+0x25>
    6adc:	b8 01 00 00 00       	mov    $0x1,%eax
    6ae1:	eb 05                	jmp    6ae8 <_ZN9HashTableIiiE12isPowerOfTwoEi+0x2a>
    6ae3:	b8 00 00 00 00       	mov    $0x0,%eax
    6ae8:	5d                   	pop    %rbp
    6ae9:	c3                   	retq   

0000000000006aea <_ZNSt12__mutex_baseC1Ev>:
    6aea:	55                   	push   %rbp
    6aeb:	48 89 e5             	mov    %rsp,%rbp
    6aee:	48 89 7d f8          	mov    %rdi,-0x8(%rbp)
    6af2:	48 8b 45 f8          	mov    -0x8(%rbp),%rax
    6af6:	48 c7 00 00 00 00 00 	movq   $0x0,(%rax)
    6afd:	48 c7 40 08 00 00 00 	movq   $0x0,0x8(%rax)
    6b04:	00 
    6b05:	48 c7 40 10 00 00 00 	movq   $0x0,0x10(%rax)
    6b0c:	00 
    6b0d:	48 c7 40 18 00 00 00 	movq   $0x0,0x18(%rax)
    6b14:	00 
    6b15:	48 c7 40 20 00 00 00 	movq   $0x0,0x20(%rax)
    6b1c:	00 
    6b1d:	90                   	nop
    6b1e:	5d                   	pop    %rbp
    6b1f:	c3                   	retq   

0000000000006b20 <_ZNSt5mutexC1Ev>:
    6b20:	55                   	push   %rbp
    6b21:	48 89 e5             	mov    %rsp,%rbp
    6b24:	48 83 ec 10          	sub    $0x10,%rsp
    6b28:	48 89 7d f8          	mov    %rdi,-0x8(%rbp)
    6b2c:	48 8b 45 f8          	mov    -0x8(%rbp),%rax
    6b30:	48 89 c7             	mov    %rax,%rdi
    6b33:	e8 b2 ff ff ff       	callq  6aea <_ZNSt12__mutex_baseC1Ev>
    6b38:	90                   	nop
    6b39:	c9                   	leaveq 
    6b3a:	c3                   	retq   
    6b3b:	90                   	nop

0000000000006b3c <_ZN5ArenaIiiEC1Em>:
    6b3c:	55                   	push   %rbp
    6b3d:	48 89 e5             	mov    %rsp,%rbp
    6b40:	41 54                	push   %r12
    6b42:	53                   	push   %rbx
    6b43:	48 83 ec 10          	sub    $0x10,%rsp
    6b47:	48 89 7d e8          	mov    %rdi,-0x18(%rbp)
    6b4b:	48 89 75 e0          	mov    %rsi,-0x20(%rbp)
    6b4f:	48 8b 45 e8          	mov    -0x18(%rbp),%rax
    6b53:	48 8b 55 e0          	mov    -0x20(%rbp),%rdx
    6b57:	48 89 10             	mov    %rdx,(%rax)
    6b5a:	bf 10 00 00 00       	mov    $0x10,%edi
    6b5f:	e8 fc af ff ff       	callq  1b60 <_Znwm@plt>
    6b64:	48 89 c3             	mov    %rax,%rbx
    6b67:	48 8b 45 e0          	mov    -0x20(%rbp),%rax
    6b6b:	48 89 c6             	mov    %rax,%rsi
    6b6e:	48 89 df             	mov    %rbx,%rdi
    6b71:	e8 0a 0c 00 00       	callq  7780 <_ZN8SubArenaIiiEC1Em>
    6b76:	48 8b 45 e8          	mov    -0x18(%rbp),%rax
    6b7a:	48 89 58 08          	mov    %rbx,0x8(%rax)
    6b7e:	48 8b 45 e8          	mov    -0x18(%rbp),%rax
    6b82:	48 8b 40 08          	mov    0x8(%rax),%rax
    6b86:	48 89 c7             	mov    %rax,%rdi
    6b89:	e8 20 0d 00 00       	callq  78ae <_ZNK8SubArenaIiiE11get_storageEv>
    6b8e:	48 8b 55 e8          	mov    -0x18(%rbp),%rdx
    6b92:	48 89 42 10          	mov    %rax,0x10(%rdx)
    6b96:	48 8b 45 e8          	mov    -0x18(%rbp),%rax
    6b9a:	48 83 c0 18          	add    $0x18,%rax
    6b9e:	48 89 c7             	mov    %rax,%rdi
    6ba1:	e8 7a ff ff ff       	callq  6b20 <_ZNSt5mutexC1Ev>
    6ba6:	eb 1b                	jmp    6bc3 <_ZN5ArenaIiiEC1Em+0x87>
    6ba8:	49 89 c4             	mov    %rax,%r12
    6bab:	be 10 00 00 00       	mov    $0x10,%esi
    6bb0:	48 89 df             	mov    %rbx,%rdi
    6bb3:	e8 b8 af ff ff       	callq  1b70 <_ZdlPvm@plt>
    6bb8:	4c 89 e0             	mov    %r12,%rax
    6bbb:	48 89 c7             	mov    %rax,%rdi
    6bbe:	e8 9d b0 ff ff       	callq  1c60 <_Unwind_Resume@plt>
    6bc3:	48 83 c4 10          	add    $0x10,%rsp
    6bc7:	5b                   	pop    %rbx
    6bc8:	41 5c                	pop    %r12
    6bca:	5d                   	pop    %rbp
    6bcb:	c3                   	retq   

0000000000006bcc <_ZNSt13__atomic_baseItEaSEt>:
    6bcc:	55                   	push   %rbp
    6bcd:	48 89 e5             	mov    %rsp,%rbp
    6bd0:	48 83 ec 30          	sub    $0x30,%rsp
    6bd4:	48 89 7d d8          	mov    %rdi,-0x28(%rbp)
    6bd8:	89 f0                	mov    %esi,%eax
    6bda:	66 89 45 d4          	mov    %ax,-0x2c(%rbp)
    6bde:	0f b7 45 d4          	movzwl -0x2c(%rbp),%eax
    6be2:	48 8b 55 d8          	mov    -0x28(%rbp),%rdx
    6be6:	48 89 55 f8          	mov    %rdx,-0x8(%rbp)
    6bea:	66 89 45 ee          	mov    %ax,-0x12(%rbp)
    6bee:	c7 45 f0 05 00 00 00 	movl   $0x5,-0x10(%rbp)
    6bf5:	8b 45 f0             	mov    -0x10(%rbp),%eax
    6bf8:	be ff ff 00 00       	mov    $0xffff,%esi
    6bfd:	89 c7                	mov    %eax,%edi
    6bff:	e8 49 d3 ff ff       	callq  3f4d <_ZStanSt12memory_orderSt23__memory_order_modifier>
    6c04:	89 45 f4             	mov    %eax,-0xc(%rbp)
    6c07:	0f b7 55 ee          	movzwl -0x12(%rbp),%edx
    6c0b:	48 8b 45 f8          	mov    -0x8(%rbp),%rax
    6c0f:	66 89 10             	mov    %dx,(%rax)
    6c12:	0f ae f0             	mfence 
    6c15:	90                   	nop
    6c16:	0f b7 45 d4          	movzwl -0x2c(%rbp),%eax
    6c1a:	c9                   	leaveq 
    6c1b:	c3                   	retq   

0000000000006c1c <_ZNSt11unique_lockISt18shared_timed_mutexEC1ERS0_>:
    6c1c:	55                   	push   %rbp
    6c1d:	48 89 e5             	mov    %rsp,%rbp
    6c20:	48 83 ec 10          	sub    $0x10,%rsp
    6c24:	48 89 7d f8          	mov    %rdi,-0x8(%rbp)
    6c28:	48 89 75 f0          	mov    %rsi,-0x10(%rbp)
    6c2c:	48 8b 45 f0          	mov    -0x10(%rbp),%rax
    6c30:	48 89 c7             	mov    %rax,%rdi
    6c33:	e8 de 0a 00 00       	callq  7716 <_ZSt11__addressofISt18shared_timed_mutexEPT_RS1_>
    6c38:	48 8b 55 f8          	mov    -0x8(%rbp),%rdx
    6c3c:	48 89 02             	mov    %rax,(%rdx)
    6c3f:	48 8b 45 f8          	mov    -0x8(%rbp),%rax
    6c43:	c6 40 08 00          	movb   $0x0,0x8(%rax)
    6c47:	48 8b 45 f8          	mov    -0x8(%rbp),%rax
    6c4b:	48 89 c7             	mov    %rax,%rdi
    6c4e:	e8 8d 0f 00 00       	callq  7be0 <_ZNSt11unique_lockISt18shared_timed_mutexE4lockEv>
    6c53:	48 8b 45 f8          	mov    -0x8(%rbp),%rax
    6c57:	c6 40 08 01          	movb   $0x1,0x8(%rax)
    6c5b:	90                   	nop
    6c5c:	c9                   	leaveq 
    6c5d:	c3                   	retq   

0000000000006c5e <_ZNSt11unique_lockISt18shared_timed_mutexED1Ev>:
    6c5e:	55                   	push   %rbp
    6c5f:	48 89 e5             	mov    %rsp,%rbp
    6c62:	48 83 ec 10          	sub    $0x10,%rsp
    6c66:	48 89 7d f8          	mov    %rdi,-0x8(%rbp)
    6c6a:	48 8b 45 f8          	mov    -0x8(%rbp),%rax
    6c6e:	0f b6 40 08          	movzbl 0x8(%rax),%eax
    6c72:	84 c0                	test   %al,%al
    6c74:	74 0c                	je     6c82 <_ZNSt11unique_lockISt18shared_timed_mutexED1Ev+0x24>
    6c76:	48 8b 45 f8          	mov    -0x8(%rbp),%rax
    6c7a:	48 89 c7             	mov    %rax,%rdi
    6c7d:	e8 b0 0f 00 00       	callq  7c32 <_ZNSt11unique_lockISt18shared_timed_mutexE6unlockEv>
    6c82:	90                   	nop
    6c83:	c9                   	leaveq 
    6c84:	c3                   	retq   
    6c85:	90                   	nop

0000000000006c86 <_ZN5ArenaIiiED1Ev>:
    6c86:	55                   	push   %rbp
    6c87:	48 89 e5             	mov    %rsp,%rbp
    6c8a:	53                   	push   %rbx
    6c8b:	48 83 ec 28          	sub    $0x28,%rsp
    6c8f:	48 89 7d d8          	mov    %rdi,-0x28(%rbp)
    6c93:	eb 01                	jmp    6c96 <_ZN5ArenaIiiED1Ev+0x10>
    6c95:	90                   	nop
    6c96:	48 8b 45 d8          	mov    -0x28(%rbp),%rax
    6c9a:	48 8b 40 08          	mov    0x8(%rax),%rax
    6c9e:	48 89 c7             	mov    %rax,%rdi
    6ca1:	e8 d8 0f 00 00       	callq  7c7e <_ZN8SubArenaIiiE8get_nextEv>
    6ca6:	48 89 45 e8          	mov    %rax,-0x18(%rbp)
    6caa:	48 8b 45 d8          	mov    -0x28(%rbp),%rax
    6cae:	48 8b 58 08          	mov    0x8(%rax),%rbx
    6cb2:	48 85 db             	test   %rbx,%rbx
    6cb5:	74 15                	je     6ccc <_ZN5ArenaIiiED1Ev+0x46>
    6cb7:	48 89 df             	mov    %rbx,%rdi
    6cba:	e8 d1 0f 00 00       	callq  7c90 <_ZN8SubArenaIiiED1Ev>
    6cbf:	be 10 00 00 00       	mov    $0x10,%esi
    6cc4:	48 89 df             	mov    %rbx,%rdi
    6cc7:	e8 a4 ae ff ff       	callq  1b70 <_ZdlPvm@plt>
    6ccc:	48 8b 45 d8          	mov    -0x28(%rbp),%rax
    6cd0:	48 8b 55 e8          	mov    -0x18(%rbp),%rdx
    6cd4:	48 89 50 08          	mov    %rdx,0x8(%rax)
    6cd8:	48 8b 45 d8          	mov    -0x28(%rbp),%rax
    6cdc:	48 8b 40 08          	mov    0x8(%rax),%rax
    6ce0:	48 85 c0             	test   %rax,%rax
    6ce3:	75 b0                	jne    6c95 <_ZN5ArenaIiiED1Ev+0xf>
    6ce5:	90                   	nop
    6ce6:	48 83 c4 28          	add    $0x28,%rsp
    6cea:	5b                   	pop    %rbx
    6ceb:	5d                   	pop    %rbp
    6cec:	c3                   	retq   

0000000000006ced <_ZSt7forwardIRiEOT_RNSt16remove_referenceIS1_E4typeE>:
    6ced:	55                   	push   %rbp
    6cee:	48 89 e5             	mov    %rsp,%rbp
    6cf1:	48 89 7d f8          	mov    %rdi,-0x8(%rbp)
    6cf5:	48 8b 45 f8          	mov    -0x8(%rbp),%rax
    6cf9:	5d                   	pop    %rbp
    6cfa:	c3                   	retq   
    6cfb:	90                   	nop

0000000000006cfc <_ZNSt4pairIiiEC1IRiS2_Lb1EEEOT_OT0_>:
    6cfc:	55                   	push   %rbp
    6cfd:	48 89 e5             	mov    %rsp,%rbp
    6d00:	48 83 ec 20          	sub    $0x20,%rsp
    6d04:	48 89 7d f8          	mov    %rdi,-0x8(%rbp)
    6d08:	48 89 75 f0          	mov    %rsi,-0x10(%rbp)
    6d0c:	48 89 55 e8          	mov    %rdx,-0x18(%rbp)
    6d10:	48 8b 45 f0          	mov    -0x10(%rbp),%rax
    6d14:	48 89 c7             	mov    %rax,%rdi
    6d17:	e8 d1 ff ff ff       	callq  6ced <_ZSt7forwardIRiEOT_RNSt16remove_referenceIS1_E4typeE>
    6d1c:	8b 10                	mov    (%rax),%edx
    6d1e:	48 8b 45 f8          	mov    -0x8(%rbp),%rax
    6d22:	89 10                	mov    %edx,(%rax)
    6d24:	48 8b 45 e8          	mov    -0x18(%rbp),%rax
    6d28:	48 89 c7             	mov    %rax,%rdi
    6d2b:	e8 bd ff ff ff       	callq  6ced <_ZSt7forwardIRiEOT_RNSt16remove_referenceIS1_E4typeE>
    6d30:	8b 10                	mov    (%rax),%edx
    6d32:	48 8b 45 f8          	mov    -0x8(%rbp),%rax
    6d36:	89 50 04             	mov    %edx,0x4(%rax)
    6d39:	90                   	nop
    6d3a:	c9                   	leaveq 
    6d3b:	c3                   	retq   

0000000000006d3c <_ZSt4moveIRSt4pairIiiEEONSt16remove_referenceIT_E4typeEOS4_>:
    6d3c:	55                   	push   %rbp
    6d3d:	48 89 e5             	mov    %rsp,%rbp
    6d40:	48 89 7d f8          	mov    %rdi,-0x8(%rbp)
    6d44:	48 8b 45 f8          	mov    -0x8(%rbp),%rax
    6d48:	5d                   	pop    %rbp
    6d49:	c3                   	retq   

0000000000006d4a <_ZNSt6vectorISt4pairIiiESaIS1_EE12emplace_backIJS1_EEERS1_DpOT_>:
    6d4a:	55                   	push   %rbp
    6d4b:	48 89 e5             	mov    %rsp,%rbp
    6d4e:	53                   	push   %rbx
    6d4f:	48 83 ec 18          	sub    $0x18,%rsp
    6d53:	48 89 7d e8          	mov    %rdi,-0x18(%rbp)
    6d57:	48 89 75 e0          	mov    %rsi,-0x20(%rbp)
    6d5b:	48 8b 45 e8          	mov    -0x18(%rbp),%rax
    6d5f:	48 8b 50 08          	mov    0x8(%rax),%rdx
    6d63:	48 8b 45 e8          	mov    -0x18(%rbp),%rax
    6d67:	48 8b 40 10          	mov    0x10(%rax),%rax
    6d6b:	48 39 c2             	cmp    %rax,%rdx
    6d6e:	74 3c                	je     6dac <_ZNSt6vectorISt4pairIiiESaIS1_EE12emplace_backIJS1_EEERS1_DpOT_+0x62>
    6d70:	48 8b 45 e0          	mov    -0x20(%rbp),%rax
    6d74:	48 89 c7             	mov    %rax,%rdi
    6d77:	e8 3e 0f 00 00       	callq  7cba <_ZSt7forwardISt4pairIiiEEOT_RNSt16remove_referenceIS2_E4typeE>
    6d7c:	48 89 c2             	mov    %rax,%rdx
    6d7f:	48 8b 45 e8          	mov    -0x18(%rbp),%rax
    6d83:	48 8b 48 08          	mov    0x8(%rax),%rcx
    6d87:	48 8b 45 e8          	mov    -0x18(%rbp),%rax
    6d8b:	48 89 ce             	mov    %rcx,%rsi
    6d8e:	48 89 c7             	mov    %rax,%rdi
    6d91:	e8 32 0f 00 00       	callq  7cc8 <_ZNSt16allocator_traitsISaISt4pairIiiEEE9constructIS1_JS1_EEEvRS2_PT_DpOT0_>
    6d96:	48 8b 45 e8          	mov    -0x18(%rbp),%rax
    6d9a:	48 8b 40 08          	mov    0x8(%rax),%rax
    6d9e:	48 8d 50 08          	lea    0x8(%rax),%rdx
    6da2:	48 8b 45 e8          	mov    -0x18(%rbp),%rax
    6da6:	48 89 50 08          	mov    %rdx,0x8(%rax)
    6daa:	eb 30                	jmp    6ddc <_ZNSt6vectorISt4pairIiiESaIS1_EE12emplace_backIJS1_EEERS1_DpOT_+0x92>
    6dac:	48 8b 45 e0          	mov    -0x20(%rbp),%rax
    6db0:	48 89 c7             	mov    %rax,%rdi
    6db3:	e8 02 0f 00 00       	callq  7cba <_ZSt7forwardISt4pairIiiEEOT_RNSt16remove_referenceIS2_E4typeE>
    6db8:	48 89 c3             	mov    %rax,%rbx
    6dbb:	48 8b 45 e8          	mov    -0x18(%rbp),%rax
    6dbf:	48 89 c7             	mov    %rax,%rdi
    6dc2:	e8 0f e1 ff ff       	callq  4ed6 <_ZNSt6vectorISt4pairIiiESaIS1_EE3endEv>
    6dc7:	48 89 c1             	mov    %rax,%rcx
    6dca:	48 8b 45 e8          	mov    -0x18(%rbp),%rax
    6dce:	48 89 da             	mov    %rbx,%rdx
    6dd1:	48 89 ce             	mov    %rcx,%rsi
    6dd4:	48 89 c7             	mov    %rax,%rdi
    6dd7:	e8 26 0f 00 00       	callq  7d02 <_ZNSt6vectorISt4pairIiiESaIS1_EE17_M_realloc_insertIJS1_EEEvN9__gnu_cxx17__normal_iteratorIPS1_S3_EEDpOT_>
    6ddc:	48 8b 45 e8          	mov    -0x18(%rbp),%rax
    6de0:	48 89 c7             	mov    %rax,%rdi
    6de3:	e8 d0 10 00 00       	callq  7eb8 <_ZNSt6vectorISt4pairIiiESaIS1_EE4backEv>
    6de8:	48 83 c4 18          	add    $0x18,%rsp
    6dec:	5b                   	pop    %rbx
    6ded:	5d                   	pop    %rbp
    6dee:	c3                   	retq   

0000000000006def <_ZNSt16allocator_traitsISaIiEE9constructIiJRKiEEEvRS0_PT_DpOT0_>:
    6def:	55                   	push   %rbp
    6df0:	48 89 e5             	mov    %rsp,%rbp
    6df3:	48 83 ec 20          	sub    $0x20,%rsp
    6df7:	48 89 7d f8          	mov    %rdi,-0x8(%rbp)
    6dfb:	48 89 75 f0          	mov    %rsi,-0x10(%rbp)
    6dff:	48 89 55 e8          	mov    %rdx,-0x18(%rbp)
    6e03:	48 8b 45 e8          	mov    -0x18(%rbp),%rax
    6e07:	48 89 c7             	mov    %rax,%rdi
    6e0a:	e8 0b 11 00 00       	callq  7f1a <_ZSt7forwardIRKiEOT_RNSt16remove_referenceIS2_E4typeE>
    6e0f:	48 89 c2             	mov    %rax,%rdx
    6e12:	48 8b 4d f0          	mov    -0x10(%rbp),%rcx
    6e16:	48 8b 45 f8          	mov    -0x8(%rbp),%rax
    6e1a:	48 89 ce             	mov    %rcx,%rsi
    6e1d:	48 89 c7             	mov    %rax,%rdi
    6e20:	e8 03 11 00 00       	callq  7f28 <_ZN9__gnu_cxx13new_allocatorIiE9constructIiJRKiEEEvPT_DpOT0_>
    6e25:	90                   	nop
    6e26:	c9                   	leaveq 
    6e27:	c3                   	retq   

0000000000006e28 <_ZNSt6vectorIiSaIiEE17_M_realloc_insertIJRKiEEEvN9__gnu_cxx17__normal_iteratorIPiS1_EEDpOT_>:
    6e28:	55                   	push   %rbp
    6e29:	48 89 e5             	mov    %rsp,%rbp
    6e2c:	53                   	push   %rbx
    6e2d:	48 83 ec 68          	sub    $0x68,%rsp
    6e31:	48 89 7d a8          	mov    %rdi,-0x58(%rbp)
    6e35:	48 89 75 a0          	mov    %rsi,-0x60(%rbp)
    6e39:	48 89 55 98          	mov    %rdx,-0x68(%rbp)
    6e3d:	64 48 8b 04 25 28 00 	mov    %fs:0x28,%rax
    6e44:	00 00 
    6e46:	48 89 45 e8          	mov    %rax,-0x18(%rbp)
    6e4a:	31 c0                	xor    %eax,%eax
    6e4c:	48 8b 45 a8          	mov    -0x58(%rbp),%rax
    6e50:	48 8d 15 64 2e 00 00 	lea    0x2e64(%rip),%rdx        # 9cbb <_ZN6__pstl9execution2v1L5unseqE+0x8c>
    6e57:	be 01 00 00 00       	mov    $0x1,%esi
    6e5c:	48 89 c7             	mov    %rax,%rdi
    6e5f:	e8 02 11 00 00       	callq  7f66 <_ZNKSt6vectorIiSaIiEE12_M_check_lenEmPKc>
    6e64:	48 89 45 b8          	mov    %rax,-0x48(%rbp)
    6e68:	48 8b 45 a8          	mov    -0x58(%rbp),%rax
    6e6c:	48 8b 00             	mov    (%rax),%rax
    6e6f:	48 89 45 c0          	mov    %rax,-0x40(%rbp)
    6e73:	48 8b 45 a8          	mov    -0x58(%rbp),%rax
    6e77:	48 8b 40 08          	mov    0x8(%rax),%rax
    6e7b:	48 89 45 c8          	mov    %rax,-0x38(%rbp)
    6e7f:	48 8b 45 a8          	mov    -0x58(%rbp),%rax
    6e83:	48 89 c7             	mov    %rax,%rdi
    6e86:	e8 29 dc ff ff       	callq  4ab4 <_ZNSt6vectorIiSaIiEE5beginEv>
    6e8b:	48 89 45 b0          	mov    %rax,-0x50(%rbp)
    6e8f:	48 8d 55 b0          	lea    -0x50(%rbp),%rdx
    6e93:	48 8d 45 a0          	lea    -0x60(%rbp),%rax
    6e97:	48 89 d6             	mov    %rdx,%rsi
    6e9a:	48 89 c7             	mov    %rax,%rdi
    6e9d:	e8 b0 11 00 00       	callq  8052 <_ZN9__gnu_cxxmiIPiSt6vectorIiSaIiEEEENS_17__normal_iteratorIT_T0_E15difference_typeERKS8_SB_>
    6ea2:	48 89 45 d0          	mov    %rax,-0x30(%rbp)
    6ea6:	48 8b 45 a8          	mov    -0x58(%rbp),%rax
    6eaa:	48 8b 55 b8          	mov    -0x48(%rbp),%rdx
    6eae:	48 89 d6             	mov    %rdx,%rsi
    6eb1:	48 89 c7             	mov    %rax,%rdi
    6eb4:	e8 5d 02 00 00       	callq  7116 <_ZNSt12_Vector_baseIiSaIiEE11_M_allocateEm>
    6eb9:	48 89 45 d8          	mov    %rax,-0x28(%rbp)
    6ebd:	48 8b 45 d8          	mov    -0x28(%rbp),%rax
    6ec1:	48 89 45 e0          	mov    %rax,-0x20(%rbp)
    6ec5:	48 8b 45 98          	mov    -0x68(%rbp),%rax
    6ec9:	48 89 c7             	mov    %rax,%rdi
    6ecc:	e8 49 10 00 00       	callq  7f1a <_ZSt7forwardIRKiEOT_RNSt16remove_referenceIS2_E4typeE>
    6ed1:	48 89 c2             	mov    %rax,%rdx
    6ed4:	48 8b 45 d0          	mov    -0x30(%rbp),%rax
    6ed8:	48 8d 0c 85 00 00 00 	lea    0x0(,%rax,4),%rcx
    6edf:	00 
    6ee0:	48 8b 45 d8          	mov    -0x28(%rbp),%rax
    6ee4:	48 01 c1             	add    %rax,%rcx
    6ee7:	48 8b 45 a8          	mov    -0x58(%rbp),%rax
    6eeb:	48 89 ce             	mov    %rcx,%rsi
    6eee:	48 89 c7             	mov    %rax,%rdi
    6ef1:	e8 f9 fe ff ff       	callq  6def <_ZNSt16allocator_traitsISaIiEE9constructIiJRKiEEEvRS0_PT_DpOT0_>
    6ef6:	48 c7 45 e0 00 00 00 	movq   $0x0,-0x20(%rbp)
    6efd:	00 
    6efe:	48 8b 45 a8          	mov    -0x58(%rbp),%rax
    6f02:	48 89 c7             	mov    %rax,%rdi
    6f05:	e8 7c fb ff ff       	callq  6a86 <_ZNSt12_Vector_baseIiSaIiEE19_M_get_Tp_allocatorEv>
    6f0a:	48 89 c3             	mov    %rax,%rbx
    6f0d:	48 8d 45 a0          	lea    -0x60(%rbp),%rax
    6f11:	48 89 c7             	mov    %rax,%rdi
    6f14:	e8 9f f4 ff ff       	callq  63b8 <_ZNK9__gnu_cxx17__normal_iteratorIPiSt6vectorIiSaIiEEE4baseEv>
    6f19:	48 8b 30             	mov    (%rax),%rsi
    6f1c:	48 8b 55 d8          	mov    -0x28(%rbp),%rdx
    6f20:	48 8b 45 c0          	mov    -0x40(%rbp),%rax
    6f24:	48 89 d9             	mov    %rbx,%rcx
    6f27:	48 89 c7             	mov    %rax,%rdi
    6f2a:	e8 1a 02 00 00       	callq  7149 <_ZNSt6vectorIiSaIiEE11_S_relocateEPiS2_S2_RS0_>
    6f2f:	48 89 45 e0          	mov    %rax,-0x20(%rbp)
    6f33:	48 83 45 e0 04       	addq   $0x4,-0x20(%rbp)
    6f38:	48 8b 45 a8          	mov    -0x58(%rbp),%rax
    6f3c:	48 89 c7             	mov    %rax,%rdi
    6f3f:	e8 42 fb ff ff       	callq  6a86 <_ZNSt12_Vector_baseIiSaIiEE19_M_get_Tp_allocatorEv>
    6f44:	48 89 c3             	mov    %rax,%rbx
    6f47:	48 8d 45 a0          	lea    -0x60(%rbp),%rax
    6f4b:	48 89 c7             	mov    %rax,%rdi
    6f4e:	e8 65 f4 ff ff       	callq  63b8 <_ZNK9__gnu_cxx17__normal_iteratorIPiSt6vectorIiSaIiEEE4baseEv>
    6f53:	48 8b 00             	mov    (%rax),%rax
    6f56:	48 8b 55 e0          	mov    -0x20(%rbp),%rdx
    6f5a:	48 8b 75 c8          	mov    -0x38(%rbp),%rsi
    6f5e:	48 89 d9             	mov    %rbx,%rcx
    6f61:	48 89 c7             	mov    %rax,%rdi
    6f64:	e8 e0 01 00 00       	callq  7149 <_ZNSt6vectorIiSaIiEE11_S_relocateEPiS2_S2_RS0_>
    6f69:	48 89 45 e0          	mov    %rax,-0x20(%rbp)
    6f6d:	48 8b 45 a8          	mov    -0x58(%rbp),%rax
    6f71:	48 8b 55 a8          	mov    -0x58(%rbp),%rdx
    6f75:	48 8b 52 10          	mov    0x10(%rdx),%rdx
    6f79:	48 2b 55 c0          	sub    -0x40(%rbp),%rdx
    6f7d:	48 c1 fa 02          	sar    $0x2,%rdx
    6f81:	48 8b 4d c0          	mov    -0x40(%rbp),%rcx
    6f85:	48 89 ce             	mov    %rcx,%rsi
    6f88:	48 89 c7             	mov    %rax,%rdi
    6f8b:	e8 c0 fa ff ff       	callq  6a50 <_ZNSt12_Vector_baseIiSaIiEE13_M_deallocateEPim>
    6f90:	48 8b 45 a8          	mov    -0x58(%rbp),%rax
    6f94:	48 8b 55 d8          	mov    -0x28(%rbp),%rdx
    6f98:	48 89 10             	mov    %rdx,(%rax)
    6f9b:	48 8b 45 a8          	mov    -0x58(%rbp),%rax
    6f9f:	48 8b 55 e0          	mov    -0x20(%rbp),%rdx
    6fa3:	48 89 50 08          	mov    %rdx,0x8(%rax)
    6fa7:	48 8b 45 b8          	mov    -0x48(%rbp),%rax
    6fab:	48 8d 14 85 00 00 00 	lea    0x0(,%rax,4),%rdx
    6fb2:	00 
    6fb3:	48 8b 45 d8          	mov    -0x28(%rbp),%rax
    6fb7:	48 01 c2             	add    %rax,%rdx
    6fba:	48 8b 45 a8          	mov    -0x58(%rbp),%rax
    6fbe:	48 89 50 10          	mov    %rdx,0x10(%rax)
    6fc2:	90                   	nop
    6fc3:	48 8b 45 e8          	mov    -0x18(%rbp),%rax
    6fc7:	64 48 33 04 25 28 00 	xor    %fs:0x28,%rax
    6fce:	00 00 
    6fd0:	74 05                	je     6fd7 <_ZNSt6vectorIiSaIiEE17_M_realloc_insertIJRKiEEEvN9__gnu_cxx17__normal_iteratorIPiS1_EEDpOT_+0x1af>
    6fd2:	e8 b9 ab ff ff       	callq  1b90 <__stack_chk_fail@plt>
    6fd7:	48 83 c4 68          	add    $0x68,%rsp
    6fdb:	5b                   	pop    %rbx
    6fdc:	5d                   	pop    %rbp
    6fdd:	c3                   	retq   

0000000000006fde <_ZNKSt6vectorISt4pairIiiESaIS1_EE8max_sizeEv>:
    6fde:	55                   	push   %rbp
    6fdf:	48 89 e5             	mov    %rsp,%rbp
    6fe2:	48 83 ec 10          	sub    $0x10,%rsp
    6fe6:	48 89 7d f8          	mov    %rdi,-0x8(%rbp)
    6fea:	48 8b 45 f8          	mov    -0x8(%rbp),%rax
    6fee:	48 89 c7             	mov    %rax,%rdi
    6ff1:	e8 02 11 00 00       	callq  80f8 <_ZNKSt12_Vector_baseISt4pairIiiESaIS1_EE19_M_get_Tp_allocatorEv>
    6ff6:	48 89 c7             	mov    %rax,%rdi
    6ff9:	e8 94 10 00 00       	callq  8092 <_ZNSt6vectorISt4pairIiiESaIS1_EE11_S_max_sizeERKS2_>
    6ffe:	c9                   	leaveq 
    6fff:	c3                   	retq   

0000000000007000 <_ZNKSt6vectorISt4pairIiiESaIS1_EE8capacityEv>:
    7000:	55                   	push   %rbp
    7001:	48 89 e5             	mov    %rsp,%rbp
    7004:	48 89 7d f8          	mov    %rdi,-0x8(%rbp)
    7008:	48 8b 45 f8          	mov    -0x8(%rbp),%rax
    700c:	48 8b 50 10          	mov    0x10(%rax),%rdx
    7010:	48 8b 45 f8          	mov    -0x8(%rbp),%rax
    7014:	48 8b 00             	mov    (%rax),%rax
    7017:	48 29 c2             	sub    %rax,%rdx
    701a:	48 89 d0             	mov    %rdx,%rax
    701d:	48 c1 f8 03          	sar    $0x3,%rax
    7021:	5d                   	pop    %rbp
    7022:	c3                   	retq   
    7023:	90                   	nop

0000000000007024 <_ZNSt12_Vector_baseISt4pairIiiESaIS1_EE11_M_allocateEm>:
    7024:	55                   	push   %rbp
    7025:	48 89 e5             	mov    %rsp,%rbp
    7028:	48 83 ec 10          	sub    $0x10,%rsp
    702c:	48 89 7d f8          	mov    %rdi,-0x8(%rbp)
    7030:	48 89 75 f0          	mov    %rsi,-0x10(%rbp)
    7034:	48 83 7d f0 00       	cmpq   $0x0,-0x10(%rbp)
    7039:	74 15                	je     7050 <_ZNSt12_Vector_baseISt4pairIiiESaIS1_EE11_M_allocateEm+0x2c>
    703b:	48 8b 45 f8          	mov    -0x8(%rbp),%rax
    703f:	48 8b 55 f0          	mov    -0x10(%rbp),%rdx
    7043:	48 89 d6             	mov    %rdx,%rsi
    7046:	48 89 c7             	mov    %rax,%rdi
    7049:	e8 b8 10 00 00       	callq  8106 <_ZNSt16allocator_traitsISaISt4pairIiiEEE8allocateERS2_m>
    704e:	eb 05                	jmp    7055 <_ZNSt12_Vector_baseISt4pairIiiESaIS1_EE11_M_allocateEm+0x31>
    7050:	b8 00 00 00 00       	mov    $0x0,%eax
    7055:	c9                   	leaveq 
    7056:	c3                   	retq   

0000000000007057 <_ZNSt6vectorISt4pairIiiESaIS1_EE11_S_relocateEPS1_S4_S4_RS2_>:
    7057:	55                   	push   %rbp
    7058:	48 89 e5             	mov    %rsp,%rbp
    705b:	48 83 ec 30          	sub    $0x30,%rsp
    705f:	48 89 7d e8          	mov    %rdi,-0x18(%rbp)
    7063:	48 89 75 e0          	mov    %rsi,-0x20(%rbp)
    7067:	48 89 55 d8          	mov    %rdx,-0x28(%rbp)
    706b:	48 89 4d d0          	mov    %rcx,-0x30(%rbp)
    706f:	64 48 8b 04 25 28 00 	mov    %fs:0x28,%rax
    7076:	00 00 
    7078:	48 89 45 f8          	mov    %rax,-0x8(%rbp)
    707c:	31 c0                	xor    %eax,%eax
    707e:	48 8b 4d d0          	mov    -0x30(%rbp),%rcx
    7082:	48 8b 55 d8          	mov    -0x28(%rbp),%rdx
    7086:	48 8b 75 e0          	mov    -0x20(%rbp),%rsi
    708a:	48 8b 45 e8          	mov    -0x18(%rbp),%rax
    708e:	48 89 c7             	mov    %rax,%rdi
    7091:	e8 9a 10 00 00       	callq  8130 <_ZNSt6vectorISt4pairIiiESaIS1_EE14_S_do_relocateEPS1_S4_S4_RS2_St17integral_constantIbLb1EE>
    7096:	48 8b 7d f8          	mov    -0x8(%rbp),%rdi
    709a:	64 48 33 3c 25 28 00 	xor    %fs:0x28,%rdi
    70a1:	00 00 
    70a3:	74 05                	je     70aa <_ZNSt6vectorISt4pairIiiESaIS1_EE11_S_relocateEPS1_S4_S4_RS2_+0x53>
    70a5:	e8 e6 aa ff ff       	callq  1b90 <__stack_chk_fail@plt>
    70aa:	c9                   	leaveq 
    70ab:	c3                   	retq   

00000000000070ac <_ZNKSt6vectorIiSaIiEE8max_sizeEv>:
    70ac:	55                   	push   %rbp
    70ad:	48 89 e5             	mov    %rsp,%rbp
    70b0:	48 83 ec 10          	sub    $0x10,%rsp
    70b4:	48 89 7d f8          	mov    %rdi,-0x8(%rbp)
    70b8:	48 8b 45 f8          	mov    -0x8(%rbp),%rax
    70bc:	48 89 c7             	mov    %rax,%rdi
    70bf:	e8 04 11 00 00       	callq  81c8 <_ZNKSt12_Vector_baseIiSaIiEE19_M_get_Tp_allocatorEv>
    70c4:	48 89 c7             	mov    %rax,%rdi
    70c7:	e8 96 10 00 00       	callq  8162 <_ZNSt6vectorIiSaIiEE11_S_max_sizeERKS0_>
    70cc:	c9                   	leaveq 
    70cd:	c3                   	retq   

00000000000070ce <_ZNKSt6vectorIiSaIiEE8capacityEv>:
    70ce:	55                   	push   %rbp
    70cf:	48 89 e5             	mov    %rsp,%rbp
    70d2:	48 89 7d f8          	mov    %rdi,-0x8(%rbp)
    70d6:	48 8b 45 f8          	mov    -0x8(%rbp),%rax
    70da:	48 8b 50 10          	mov    0x10(%rax),%rdx
    70de:	48 8b 45 f8          	mov    -0x8(%rbp),%rax
    70e2:	48 8b 00             	mov    (%rax),%rax
    70e5:	48 29 c2             	sub    %rax,%rdx
    70e8:	48 89 d0             	mov    %rdx,%rax
    70eb:	48 c1 f8 02          	sar    $0x2,%rax
    70ef:	5d                   	pop    %rbp
    70f0:	c3                   	retq   
    70f1:	90                   	nop

00000000000070f2 <_ZNKSt6vectorIiSaIiEE4sizeEv>:
    70f2:	55                   	push   %rbp
    70f3:	48 89 e5             	mov    %rsp,%rbp
    70f6:	48 89 7d f8          	mov    %rdi,-0x8(%rbp)
    70fa:	48 8b 45 f8          	mov    -0x8(%rbp),%rax
    70fe:	48 8b 50 08          	mov    0x8(%rax),%rdx
    7102:	48 8b 45 f8          	mov    -0x8(%rbp),%rax
    7106:	48 8b 00             	mov    (%rax),%rax
    7109:	48 29 c2             	sub    %rax,%rdx
    710c:	48 89 d0             	mov    %rdx,%rax
    710f:	48 c1 f8 02          	sar    $0x2,%rax
    7113:	5d                   	pop    %rbp
    7114:	c3                   	retq   
    7115:	90                   	nop

0000000000007116 <_ZNSt12_Vector_baseIiSaIiEE11_M_allocateEm>:
    7116:	55                   	push   %rbp
    7117:	48 89 e5             	mov    %rsp,%rbp
    711a:	48 83 ec 10          	sub    $0x10,%rsp
    711e:	48 89 7d f8          	mov    %rdi,-0x8(%rbp)
    7122:	48 89 75 f0          	mov    %rsi,-0x10(%rbp)
    7126:	48 83 7d f0 00       	cmpq   $0x0,-0x10(%rbp)
    712b:	74 15                	je     7142 <_ZNSt12_Vector_baseIiSaIiEE11_M_allocateEm+0x2c>
    712d:	48 8b 45 f8          	mov    -0x8(%rbp),%rax
    7131:	48 8b 55 f0          	mov    -0x10(%rbp),%rdx
    7135:	48 89 d6             	mov    %rdx,%rsi
    7138:	48 89 c7             	mov    %rax,%rdi
    713b:	e8 96 10 00 00       	callq  81d6 <_ZNSt16allocator_traitsISaIiEE8allocateERS0_m>
    7140:	eb 05                	jmp    7147 <_ZNSt12_Vector_baseIiSaIiEE11_M_allocateEm+0x31>
    7142:	b8 00 00 00 00       	mov    $0x0,%eax
    7147:	c9                   	leaveq 
    7148:	c3                   	retq   

0000000000007149 <_ZNSt6vectorIiSaIiEE11_S_relocateEPiS2_S2_RS0_>:
    7149:	55                   	push   %rbp
    714a:	48 89 e5             	mov    %rsp,%rbp
    714d:	48 83 ec 30          	sub    $0x30,%rsp
    7151:	48 89 7d e8          	mov    %rdi,-0x18(%rbp)
    7155:	48 89 75 e0          	mov    %rsi,-0x20(%rbp)
    7159:	48 89 55 d8          	mov    %rdx,-0x28(%rbp)
    715d:	48 89 4d d0          	mov    %rcx,-0x30(%rbp)
    7161:	64 48 8b 04 25 28 00 	mov    %fs:0x28,%rax
    7168:	00 00 
    716a:	48 89 45 f8          	mov    %rax,-0x8(%rbp)
    716e:	31 c0                	xor    %eax,%eax
    7170:	48 8b 4d d0          	mov    -0x30(%rbp),%rcx
    7174:	48 8b 55 d8          	mov    -0x28(%rbp),%rdx
    7178:	48 8b 75 e0          	mov    -0x20(%rbp),%rsi
    717c:	48 8b 45 e8          	mov    -0x18(%rbp),%rax
    7180:	48 89 c7             	mov    %rax,%rdi
    7183:	e8 78 10 00 00       	callq  8200 <_ZNSt6vectorIiSaIiEE14_S_do_relocateEPiS2_S2_RS0_St17integral_constantIbLb1EE>
    7188:	48 8b 7d f8          	mov    -0x8(%rbp),%rdi
    718c:	64 48 33 3c 25 28 00 	xor    %fs:0x28,%rdi
    7193:	00 00 
    7195:	74 05                	je     719c <_ZNSt6vectorIiSaIiEE11_S_relocateEPiS2_S2_RS0_+0x53>
    7197:	e8 f4 a9 ff ff       	callq  1b90 <__stack_chk_fail@plt>
    719c:	c9                   	leaveq 
    719d:	c3                   	retq   

000000000000719e <_ZNKSt6vectorISt4pairIiiESaIS1_EE6cbeginEv>:
    719e:	55                   	push   %rbp
    719f:	48 89 e5             	mov    %rsp,%rbp
    71a2:	48 83 ec 30          	sub    $0x30,%rsp
    71a6:	48 89 7d d8          	mov    %rdi,-0x28(%rbp)
    71aa:	64 48 8b 04 25 28 00 	mov    %fs:0x28,%rax
    71b1:	00 00 
    71b3:	48 89 45 f8          	mov    %rax,-0x8(%rbp)
    71b7:	31 c0                	xor    %eax,%eax
    71b9:	48 8b 45 d8          	mov    -0x28(%rbp),%rax
    71bd:	48 8b 00             	mov    (%rax),%rax
    71c0:	48 89 45 e8          	mov    %rax,-0x18(%rbp)
    71c4:	48 8d 55 e8          	lea    -0x18(%rbp),%rdx
    71c8:	48 8d 45 f0          	lea    -0x10(%rbp),%rax
    71cc:	48 89 d6             	mov    %rdx,%rsi
    71cf:	48 89 c7             	mov    %rax,%rdi
    71d2:	e8 5b 10 00 00       	callq  8232 <_ZN9__gnu_cxx17__normal_iteratorIPKSt4pairIiiESt6vectorIS2_SaIS2_EEEC1ERKS4_>
    71d7:	48 8b 45 f0          	mov    -0x10(%rbp),%rax
    71db:	48 8b 4d f8          	mov    -0x8(%rbp),%rcx
    71df:	64 48 33 0c 25 28 00 	xor    %fs:0x28,%rcx
    71e6:	00 00 
    71e8:	74 05                	je     71ef <_ZNKSt6vectorISt4pairIiiESaIS1_EE6cbeginEv+0x51>
    71ea:	e8 a1 a9 ff ff       	callq  1b90 <__stack_chk_fail@plt>
    71ef:	c9                   	leaveq 
    71f0:	c3                   	retq   

00000000000071f1 <_ZN9__gnu_cxxmiIPKSt4pairIiiESt6vectorIS2_SaIS2_EEEENS_17__normal_iteratorIT_T0_E15difference_typeERKSB_SE_>:
    71f1:	55                   	push   %rbp
    71f2:	48 89 e5             	mov    %rsp,%rbp
    71f5:	53                   	push   %rbx
    71f6:	48 83 ec 18          	sub    $0x18,%rsp
    71fa:	48 89 7d e8          	mov    %rdi,-0x18(%rbp)
    71fe:	48 89 75 e0          	mov    %rsi,-0x20(%rbp)
    7202:	48 8b 45 e8          	mov    -0x18(%rbp),%rax
    7206:	48 89 c7             	mov    %rax,%rdi
    7209:	e8 42 10 00 00       	callq  8250 <_ZNK9__gnu_cxx17__normal_iteratorIPKSt4pairIiiESt6vectorIS2_SaIS2_EEE4baseEv>
    720e:	48 8b 18             	mov    (%rax),%rbx
    7211:	48 8b 45 e0          	mov    -0x20(%rbp),%rax
    7215:	48 89 c7             	mov    %rax,%rdi
    7218:	e8 33 10 00 00       	callq  8250 <_ZNK9__gnu_cxx17__normal_iteratorIPKSt4pairIiiESt6vectorIS2_SaIS2_EEE4baseEv>
    721d:	48 8b 00             	mov    (%rax),%rax
    7220:	48 29 c3             	sub    %rax,%rbx
    7223:	48 89 d8             	mov    %rbx,%rax
    7226:	48 c1 f8 03          	sar    $0x3,%rax
    722a:	48 83 c4 18          	add    $0x18,%rsp
    722e:	5b                   	pop    %rbx
    722f:	5d                   	pop    %rbp
    7230:	c3                   	retq   
    7231:	90                   	nop

0000000000007232 <_ZNK9__gnu_cxx17__normal_iteratorIPSt4pairIiiESt6vectorIS2_SaIS2_EEEplEl>:
    7232:	55                   	push   %rbp
    7233:	48 89 e5             	mov    %rsp,%rbp
    7236:	48 83 ec 30          	sub    $0x30,%rsp
    723a:	48 89 7d d8          	mov    %rdi,-0x28(%rbp)
    723e:	48 89 75 d0          	mov    %rsi,-0x30(%rbp)
    7242:	64 48 8b 04 25 28 00 	mov    %fs:0x28,%rax
    7249:	00 00 
    724b:	48 89 45 f8          	mov    %rax,-0x8(%rbp)
    724f:	31 c0                	xor    %eax,%eax
    7251:	48 8b 45 d8          	mov    -0x28(%rbp),%rax
    7255:	48 8b 00             	mov    (%rax),%rax
    7258:	48 8b 55 d0          	mov    -0x30(%rbp),%rdx
    725c:	48 c1 e2 03          	shl    $0x3,%rdx
    7260:	48 01 d0             	add    %rdx,%rax
    7263:	48 89 45 e8          	mov    %rax,-0x18(%rbp)
    7267:	48 8d 55 e8          	lea    -0x18(%rbp),%rdx
    726b:	48 8d 45 f0          	lea    -0x10(%rbp),%rax
    726f:	48 89 d6             	mov    %rdx,%rsi
    7272:	48 89 c7             	mov    %rax,%rdi
    7275:	e8 92 f2 ff ff       	callq  650c <_ZN9__gnu_cxx17__normal_iteratorIPSt4pairIiiESt6vectorIS2_SaIS2_EEEC1ERKS3_>
    727a:	48 8b 45 f0          	mov    -0x10(%rbp),%rax
    727e:	48 8b 4d f8          	mov    -0x8(%rbp),%rcx
    7282:	64 48 33 0c 25 28 00 	xor    %fs:0x28,%rcx
    7289:	00 00 
    728b:	74 05                	je     7292 <_ZNK9__gnu_cxx17__normal_iteratorIPSt4pairIiiESt6vectorIS2_SaIS2_EEEplEl+0x60>
    728d:	e8 fe a8 ff ff       	callq  1b90 <__stack_chk_fail@plt>
    7292:	c9                   	leaveq 
    7293:	c3                   	retq   

0000000000007294 <_ZNSt6vectorISt4pairIiiESaIS1_EE8_M_eraseEN9__gnu_cxx17__normal_iteratorIPS1_S3_EES7_>:
    7294:	55                   	push   %rbp
    7295:	48 89 e5             	mov    %rsp,%rbp
    7298:	53                   	push   %rbx
    7299:	48 83 ec 38          	sub    $0x38,%rsp
    729d:	48 89 7d d8          	mov    %rdi,-0x28(%rbp)
    72a1:	48 89 75 d0          	mov    %rsi,-0x30(%rbp)
    72a5:	48 89 55 c8          	mov    %rdx,-0x38(%rbp)
    72a9:	64 48 8b 04 25 28 00 	mov    %fs:0x28,%rax
    72b0:	00 00 
    72b2:	48 89 45 e8          	mov    %rax,-0x18(%rbp)
    72b6:	31 c0                	xor    %eax,%eax
    72b8:	48 8d 55 c8          	lea    -0x38(%rbp),%rdx
    72bc:	48 8d 45 d0          	lea    -0x30(%rbp),%rax
    72c0:	48 89 d6             	mov    %rdx,%rsi
    72c3:	48 89 c7             	mov    %rax,%rdi
    72c6:	e8 57 dc ff ff       	callq  4f22 <_ZN9__gnu_cxxneIPSt4pairIiiESt6vectorIS2_SaIS2_EEEEbRKNS_17__normal_iteratorIT_T0_EESC_>
    72cb:	84 c0                	test   %al,%al
    72cd:	0f 84 92 00 00 00    	je     7365 <_ZNSt6vectorISt4pairIiiESaIS1_EE8_M_eraseEN9__gnu_cxx17__normal_iteratorIPS1_S3_EES7_+0xd1>
    72d3:	48 8b 45 d8          	mov    -0x28(%rbp),%rax
    72d7:	48 89 c7             	mov    %rax,%rdi
    72da:	e8 f7 db ff ff       	callq  4ed6 <_ZNSt6vectorISt4pairIiiESaIS1_EE3endEv>
    72df:	48 89 45 e0          	mov    %rax,-0x20(%rbp)
    72e3:	48 8d 55 e0          	lea    -0x20(%rbp),%rdx
    72e7:	48 8d 45 c8          	lea    -0x38(%rbp),%rax
    72eb:	48 89 d6             	mov    %rdx,%rsi
    72ee:	48 89 c7             	mov    %rax,%rdi
    72f1:	e8 2c dc ff ff       	callq  4f22 <_ZN9__gnu_cxxneIPSt4pairIiiESt6vectorIS2_SaIS2_EEEEbRKNS_17__normal_iteratorIT_T0_EESC_>
    72f6:	84 c0                	test   %al,%al
    72f8:	74 22                	je     731c <_ZNSt6vectorISt4pairIiiESaIS1_EE8_M_eraseEN9__gnu_cxx17__normal_iteratorIPS1_S3_EES7_+0x88>
    72fa:	48 8b 45 d8          	mov    -0x28(%rbp),%rax
    72fe:	48 89 c7             	mov    %rax,%rdi
    7301:	e8 d0 db ff ff       	callq  4ed6 <_ZNSt6vectorISt4pairIiiESaIS1_EE3endEv>
    7306:	48 89 c1             	mov    %rax,%rcx
    7309:	48 8b 55 d0          	mov    -0x30(%rbp),%rdx
    730d:	48 8b 45 c8          	mov    -0x38(%rbp),%rax
    7311:	48 89 ce             	mov    %rcx,%rsi
    7314:	48 89 c7             	mov    %rax,%rdi
    7317:	e8 42 0f 00 00       	callq  825e <_ZSt4moveIN9__gnu_cxx17__normal_iteratorIPSt4pairIiiESt6vectorIS3_SaIS3_EEEES8_ET0_T_SA_S9_>
    731c:	48 8d 45 d0          	lea    -0x30(%rbp),%rax
    7320:	48 89 c7             	mov    %rax,%rdi
    7323:	e8 02 f2 ff ff       	callq  652a <_ZNK9__gnu_cxx17__normal_iteratorIPSt4pairIiiESt6vectorIS2_SaIS2_EEE4baseEv>
    7328:	48 8b 18             	mov    (%rax),%rbx
    732b:	48 8b 45 d8          	mov    -0x28(%rbp),%rax
    732f:	48 89 c7             	mov    %rax,%rdi
    7332:	e8 9f db ff ff       	callq  4ed6 <_ZNSt6vectorISt4pairIiiESaIS1_EE3endEv>
    7337:	48 89 45 e0          	mov    %rax,-0x20(%rbp)
    733b:	48 8d 55 c8          	lea    -0x38(%rbp),%rdx
    733f:	48 8d 45 e0          	lea    -0x20(%rbp),%rax
    7343:	48 89 d6             	mov    %rdx,%rsi
    7346:	48 89 c7             	mov    %rax,%rdi
    7349:	e8 bc 0f 00 00       	callq  830a <_ZN9__gnu_cxxmiIPSt4pairIiiESt6vectorIS2_SaIS2_EEEENS_17__normal_iteratorIT_T0_E15difference_typeERKSA_SD_>
    734e:	48 c1 e0 03          	shl    $0x3,%rax
    7352:	48 8d 14 03          	lea    (%rbx,%rax,1),%rdx
    7356:	48 8b 45 d8          	mov    -0x28(%rbp),%rax
    735a:	48 89 d6             	mov    %rdx,%rsi
    735d:	48 89 c7             	mov    %rax,%rdi
    7360:	e8 45 0f 00 00       	callq  82aa <_ZNSt6vectorISt4pairIiiESaIS1_EE15_M_erase_at_endEPS1_>
    7365:	48 8b 45 d0          	mov    -0x30(%rbp),%rax
    7369:	48 8b 4d e8          	mov    -0x18(%rbp),%rcx
    736d:	64 48 33 0c 25 28 00 	xor    %fs:0x28,%rcx
    7374:	00 00 
    7376:	74 05                	je     737d <_ZNSt6vectorISt4pairIiiESaIS1_EE8_M_eraseEN9__gnu_cxx17__normal_iteratorIPS1_S3_EES7_+0xe9>
    7378:	e8 13 a8 ff ff       	callq  1b90 <__stack_chk_fail@plt>
    737d:	48 83 c4 38          	add    $0x38,%rsp
    7381:	5b                   	pop    %rbx
    7382:	5d                   	pop    %rbp
    7383:	c3                   	retq   

0000000000007384 <_ZN9__gnu_cxx13new_allocatorIiEC1Ev>:
    7384:	55                   	push   %rbp
    7385:	48 89 e5             	mov    %rsp,%rbp
    7388:	48 89 7d f8          	mov    %rdi,-0x8(%rbp)
    738c:	90                   	nop
    738d:	5d                   	pop    %rbp
    738e:	c3                   	retq   
    738f:	90                   	nop

0000000000007390 <_ZNSt12_Vector_baseIiSaIiEEC1ERKS0_>:
    7390:	55                   	push   %rbp
    7391:	48 89 e5             	mov    %rsp,%rbp
    7394:	48 83 ec 10          	sub    $0x10,%rsp
    7398:	48 89 7d f8          	mov    %rdi,-0x8(%rbp)
    739c:	48 89 75 f0          	mov    %rsi,-0x10(%rbp)
    73a0:	48 8b 45 f8          	mov    -0x8(%rbp),%rax
    73a4:	48 8b 55 f0          	mov    -0x10(%rbp),%rdx
    73a8:	48 89 d6             	mov    %rdx,%rsi
    73ab:	48 89 c7             	mov    %rax,%rdi
    73ae:	e8 97 0f 00 00       	callq  834a <_ZNSt12_Vector_baseIiSaIiEE12_Vector_implC1ERKS0_>
    73b3:	90                   	nop
    73b4:	c9                   	leaveq 
    73b5:	c3                   	retq   

00000000000073b6 <_ZNKSt16initializer_listIiE5beginEv>:
    73b6:	55                   	push   %rbp
    73b7:	48 89 e5             	mov    %rsp,%rbp
    73ba:	48 89 7d f8          	mov    %rdi,-0x8(%rbp)
    73be:	48 8b 45 f8          	mov    -0x8(%rbp),%rax
    73c2:	48 8b 00             	mov    (%rax),%rax
    73c5:	5d                   	pop    %rbp
    73c6:	c3                   	retq   
    73c7:	90                   	nop

00000000000073c8 <_ZNKSt16initializer_listIiE3endEv>:
    73c8:	55                   	push   %rbp
    73c9:	48 89 e5             	mov    %rsp,%rbp
    73cc:	53                   	push   %rbx
    73cd:	48 83 ec 18          	sub    $0x18,%rsp
    73d1:	48 89 7d e8          	mov    %rdi,-0x18(%rbp)
    73d5:	48 8b 45 e8          	mov    -0x18(%rbp),%rax
    73d9:	48 89 c7             	mov    %rax,%rdi
    73dc:	e8 d5 ff ff ff       	callq  73b6 <_ZNKSt16initializer_listIiE5beginEv>
    73e1:	48 89 c3             	mov    %rax,%rbx
    73e4:	48 8b 45 e8          	mov    -0x18(%rbp),%rax
    73e8:	48 89 c7             	mov    %rax,%rdi
    73eb:	e8 8c 0f 00 00       	callq  837c <_ZNKSt16initializer_listIiE4sizeEv>
    73f0:	48 c1 e0 02          	shl    $0x2,%rax
    73f4:	48 01 d8             	add    %rbx,%rax
    73f7:	48 83 c4 18          	add    $0x18,%rsp
    73fb:	5b                   	pop    %rbx
    73fc:	5d                   	pop    %rbp
    73fd:	c3                   	retq   

00000000000073fe <_ZSt8distanceIPKiENSt15iterator_traitsIT_E15difference_typeES3_S3_>:
    73fe:	55                   	push   %rbp
    73ff:	48 89 e5             	mov    %rsp,%rbp
    7402:	48 83 ec 10          	sub    $0x10,%rsp
    7406:	48 89 7d f8          	mov    %rdi,-0x8(%rbp)
    740a:	48 89 75 f0          	mov    %rsi,-0x10(%rbp)
    740e:	48 8d 45 f8          	lea    -0x8(%rbp),%rax
    7412:	48 89 c7             	mov    %rax,%rdi
    7415:	e8 74 0f 00 00       	callq  838e <_ZSt19__iterator_categoryIPKiENSt15iterator_traitsIT_E17iterator_categoryERKS3_>
    741a:	48 8b 45 f8          	mov    -0x8(%rbp),%rax
    741e:	48 8b 55 f0          	mov    -0x10(%rbp),%rdx
    7422:	48 89 d6             	mov    %rdx,%rsi
    7425:	48 89 c7             	mov    %rax,%rdi
    7428:	e8 6b 0f 00 00       	callq  8398 <_ZSt10__distanceIPKiENSt15iterator_traitsIT_E15difference_typeES3_S3_St26random_access_iterator_tag>
    742d:	c9                   	leaveq 
    742e:	c3                   	retq   
    742f:	90                   	nop

0000000000007430 <_ZNSt6vectorIiSaIiEE19_M_range_initializeIPKiEEvT_S5_St20forward_iterator_tag>:
    7430:	55                   	push   %rbp
    7431:	48 89 e5             	mov    %rsp,%rbp
    7434:	53                   	push   %rbx
    7435:	48 83 ec 38          	sub    $0x38,%rsp
    7439:	48 89 7d d8          	mov    %rdi,-0x28(%rbp)
    743d:	48 89 75 d0          	mov    %rsi,-0x30(%rbp)
    7441:	48 89 55 c8          	mov    %rdx,-0x38(%rbp)
    7445:	48 8b 55 c8          	mov    -0x38(%rbp),%rdx
    7449:	48 8b 45 d0          	mov    -0x30(%rbp),%rax
    744d:	48 89 d6             	mov    %rdx,%rsi
    7450:	48 89 c7             	mov    %rax,%rdi
    7453:	e8 a6 ff ff ff       	callq  73fe <_ZSt8distanceIPKiENSt15iterator_traitsIT_E15difference_typeES3_S3_>
    7458:	48 89 45 e8          	mov    %rax,-0x18(%rbp)
    745c:	48 8b 5d d8          	mov    -0x28(%rbp),%rbx
    7460:	48 8b 45 d8          	mov    -0x28(%rbp),%rax
    7464:	48 89 c7             	mov    %rax,%rdi
    7467:	e8 1a f6 ff ff       	callq  6a86 <_ZNSt12_Vector_baseIiSaIiEE19_M_get_Tp_allocatorEv>
    746c:	48 89 c2             	mov    %rax,%rdx
    746f:	48 8b 45 e8          	mov    -0x18(%rbp),%rax
    7473:	48 89 d6             	mov    %rdx,%rsi
    7476:	48 89 c7             	mov    %rax,%rdi
    7479:	e8 34 0f 00 00       	callq  83b2 <_ZNSt6vectorIiSaIiEE17_S_check_init_lenEmRKS0_>
    747e:	48 89 c6             	mov    %rax,%rsi
    7481:	48 89 df             	mov    %rbx,%rdi
    7484:	e8 8d fc ff ff       	callq  7116 <_ZNSt12_Vector_baseIiSaIiEE11_M_allocateEm>
    7489:	48 8b 55 d8          	mov    -0x28(%rbp),%rdx
    748d:	48 89 02             	mov    %rax,(%rdx)
    7490:	48 8b 45 d8          	mov    -0x28(%rbp),%rax
    7494:	48 8b 00             	mov    (%rax),%rax
    7497:	48 8b 55 e8          	mov    -0x18(%rbp),%rdx
    749b:	48 c1 e2 02          	shl    $0x2,%rdx
    749f:	48 01 c2             	add    %rax,%rdx
    74a2:	48 8b 45 d8          	mov    -0x28(%rbp),%rax
    74a6:	48 89 50 10          	mov    %rdx,0x10(%rax)
    74aa:	48 8b 45 d8          	mov    -0x28(%rbp),%rax
    74ae:	48 89 c7             	mov    %rax,%rdi
    74b1:	e8 d0 f5 ff ff       	callq  6a86 <_ZNSt12_Vector_baseIiSaIiEE19_M_get_Tp_allocatorEv>
    74b6:	48 89 c1             	mov    %rax,%rcx
    74b9:	48 8b 45 d8          	mov    -0x28(%rbp),%rax
    74bd:	48 8b 10             	mov    (%rax),%rdx
    74c0:	48 8b 75 c8          	mov    -0x38(%rbp),%rsi
    74c4:	48 8b 45 d0          	mov    -0x30(%rbp),%rax
    74c8:	48 89 c7             	mov    %rax,%rdi
    74cb:	e8 63 0f 00 00       	callq  8433 <_ZSt22__uninitialized_copy_aIPKiPiiET0_T_S4_S3_RSaIT1_E>
    74d0:	48 8b 55 d8          	mov    -0x28(%rbp),%rdx
    74d4:	48 89 42 08          	mov    %rax,0x8(%rdx)
    74d8:	90                   	nop
    74d9:	48 83 c4 38          	add    $0x38,%rsp
    74dd:	5b                   	pop    %rbx
    74de:	5d                   	pop    %rbp
    74df:	c3                   	retq   

00000000000074e0 <_ZN9__gnu_cxx13new_allocatorImEC1Ev>:
    74e0:	55                   	push   %rbp
    74e1:	48 89 e5             	mov    %rsp,%rbp
    74e4:	48 89 7d f8          	mov    %rdi,-0x8(%rbp)
    74e8:	90                   	nop
    74e9:	5d                   	pop    %rbp
    74ea:	c3                   	retq   
    74eb:	90                   	nop

00000000000074ec <_ZN9__gnu_cxx13new_allocatorImED1Ev>:
    74ec:	55                   	push   %rbp
    74ed:	48 89 e5             	mov    %rsp,%rbp
    74f0:	48 89 7d f8          	mov    %rdi,-0x8(%rbp)
    74f4:	90                   	nop
    74f5:	5d                   	pop    %rbp
    74f6:	c3                   	retq   
    74f7:	90                   	nop

00000000000074f8 <_ZNSt12_Vector_baseImSaImEE12_Vector_implD1Ev>:
    74f8:	55                   	push   %rbp
    74f9:	48 89 e5             	mov    %rsp,%rbp
    74fc:	48 83 ec 10          	sub    $0x10,%rsp
    7500:	48 89 7d f8          	mov    %rdi,-0x8(%rbp)
    7504:	48 8b 45 f8          	mov    -0x8(%rbp),%rax
    7508:	48 89 c7             	mov    %rax,%rdi
    750b:	e8 06 ec ff ff       	callq  6116 <_ZNSaImED1Ev>
    7510:	90                   	nop
    7511:	c9                   	leaveq 
    7512:	c3                   	retq   
    7513:	90                   	nop

0000000000007514 <_ZNSt12_Vector_baseImSaImEEC1ERKS0_>:
    7514:	55                   	push   %rbp
    7515:	48 89 e5             	mov    %rsp,%rbp
    7518:	48 83 ec 10          	sub    $0x10,%rsp
    751c:	48 89 7d f8          	mov    %rdi,-0x8(%rbp)
    7520:	48 89 75 f0          	mov    %rsi,-0x10(%rbp)
    7524:	48 8b 45 f8          	mov    -0x8(%rbp),%rax
    7528:	48 8b 55 f0          	mov    -0x10(%rbp),%rdx
    752c:	48 89 d6             	mov    %rdx,%rsi
    752f:	48 89 c7             	mov    %rax,%rdi
    7532:	e8 2d 0f 00 00       	callq  8464 <_ZNSt12_Vector_baseImSaImEE12_Vector_implC1ERKS0_>
    7537:	90                   	nop
    7538:	c9                   	leaveq 
    7539:	c3                   	retq   

000000000000753a <_ZNSt12_Vector_baseImSaImEED1Ev>:
    753a:	55                   	push   %rbp
    753b:	48 89 e5             	mov    %rsp,%rbp
    753e:	48 83 ec 10          	sub    $0x10,%rsp
    7542:	48 89 7d f8          	mov    %rdi,-0x8(%rbp)
    7546:	48 8b 45 f8          	mov    -0x8(%rbp),%rax
    754a:	48 8b 50 10          	mov    0x10(%rax),%rdx
    754e:	48 8b 45 f8          	mov    -0x8(%rbp),%rax
    7552:	48 8b 00             	mov    (%rax),%rax
    7555:	48 29 c2             	sub    %rax,%rdx
    7558:	48 89 d0             	mov    %rdx,%rax
    755b:	48 c1 f8 03          	sar    $0x3,%rax
    755f:	48 89 c2             	mov    %rax,%rdx
    7562:	48 8b 45 f8          	mov    -0x8(%rbp),%rax
    7566:	48 8b 08             	mov    (%rax),%rcx
    7569:	48 8b 45 f8          	mov    -0x8(%rbp),%rax
    756d:	48 89 ce             	mov    %rcx,%rsi
    7570:	48 89 c7             	mov    %rax,%rdi
    7573:	e8 1e 0f 00 00       	callq  8496 <_ZNSt12_Vector_baseImSaImEE13_M_deallocateEPmm>
    7578:	48 8b 45 f8          	mov    -0x8(%rbp),%rax
    757c:	48 89 c7             	mov    %rax,%rdi
    757f:	e8 74 ff ff ff       	callq  74f8 <_ZNSt12_Vector_baseImSaImEE12_Vector_implD1Ev>
    7584:	90                   	nop
    7585:	c9                   	leaveq 
    7586:	c3                   	retq   
    7587:	90                   	nop

0000000000007588 <_ZNKSt16initializer_listImE5beginEv>:
    7588:	55                   	push   %rbp
    7589:	48 89 e5             	mov    %rsp,%rbp
    758c:	48 89 7d f8          	mov    %rdi,-0x8(%rbp)
    7590:	48 8b 45 f8          	mov    -0x8(%rbp),%rax
    7594:	48 8b 00             	mov    (%rax),%rax
    7597:	5d                   	pop    %rbp
    7598:	c3                   	retq   
    7599:	90                   	nop

000000000000759a <_ZNKSt16initializer_listImE3endEv>:
    759a:	55                   	push   %rbp
    759b:	48 89 e5             	mov    %rsp,%rbp
    759e:	53                   	push   %rbx
    759f:	48 83 ec 18          	sub    $0x18,%rsp
    75a3:	48 89 7d e8          	mov    %rdi,-0x18(%rbp)
    75a7:	48 8b 45 e8          	mov    -0x18(%rbp),%rax
    75ab:	48 89 c7             	mov    %rax,%rdi
    75ae:	e8 d5 ff ff ff       	callq  7588 <_ZNKSt16initializer_listImE5beginEv>
    75b3:	48 89 c3             	mov    %rax,%rbx
    75b6:	48 8b 45 e8          	mov    -0x18(%rbp),%rax
    75ba:	48 89 c7             	mov    %rax,%rdi
    75bd:	e8 0a 0f 00 00       	callq  84cc <_ZNKSt16initializer_listImE4sizeEv>
    75c2:	48 c1 e0 03          	shl    $0x3,%rax
    75c6:	48 01 d8             	add    %rbx,%rax
    75c9:	48 83 c4 18          	add    $0x18,%rsp
    75cd:	5b                   	pop    %rbx
    75ce:	5d                   	pop    %rbp
    75cf:	c3                   	retq   

00000000000075d0 <_ZSt8distanceIPKmENSt15iterator_traitsIT_E15difference_typeES3_S3_>:
    75d0:	55                   	push   %rbp
    75d1:	48 89 e5             	mov    %rsp,%rbp
    75d4:	48 83 ec 10          	sub    $0x10,%rsp
    75d8:	48 89 7d f8          	mov    %rdi,-0x8(%rbp)
    75dc:	48 89 75 f0          	mov    %rsi,-0x10(%rbp)
    75e0:	48 8d 45 f8          	lea    -0x8(%rbp),%rax
    75e4:	48 89 c7             	mov    %rax,%rdi
    75e7:	e8 f2 0e 00 00       	callq  84de <_ZSt19__iterator_categoryIPKmENSt15iterator_traitsIT_E17iterator_categoryERKS3_>
    75ec:	48 8b 45 f8          	mov    -0x8(%rbp),%rax
    75f0:	48 8b 55 f0          	mov    -0x10(%rbp),%rdx
    75f4:	48 89 d6             	mov    %rdx,%rsi
    75f7:	48 89 c7             	mov    %rax,%rdi
    75fa:	e8 e9 0e 00 00       	callq  84e8 <_ZSt10__distanceIPKmENSt15iterator_traitsIT_E15difference_typeES3_S3_St26random_access_iterator_tag>
    75ff:	c9                   	leaveq 
    7600:	c3                   	retq   
    7601:	90                   	nop

0000000000007602 <_ZNSt6vectorImSaImEE19_M_range_initializeIPKmEEvT_S5_St20forward_iterator_tag>:
    7602:	55                   	push   %rbp
    7603:	48 89 e5             	mov    %rsp,%rbp
    7606:	53                   	push   %rbx
    7607:	48 83 ec 38          	sub    $0x38,%rsp
    760b:	48 89 7d d8          	mov    %rdi,-0x28(%rbp)
    760f:	48 89 75 d0          	mov    %rsi,-0x30(%rbp)
    7613:	48 89 55 c8          	mov    %rdx,-0x38(%rbp)
    7617:	48 8b 55 c8          	mov    -0x38(%rbp),%rdx
    761b:	48 8b 45 d0          	mov    -0x30(%rbp),%rax
    761f:	48 89 d6             	mov    %rdx,%rsi
    7622:	48 89 c7             	mov    %rax,%rdi
    7625:	e8 a6 ff ff ff       	callq  75d0 <_ZSt8distanceIPKmENSt15iterator_traitsIT_E15difference_typeES3_S3_>
    762a:	48 89 45 e8          	mov    %rax,-0x18(%rbp)
    762e:	48 8b 5d d8          	mov    -0x28(%rbp),%rbx
    7632:	48 8b 45 d8          	mov    -0x28(%rbp),%rax
    7636:	48 89 c7             	mov    %rax,%rdi
    7639:	e8 74 00 00 00       	callq  76b2 <_ZNSt12_Vector_baseImSaImEE19_M_get_Tp_allocatorEv>
    763e:	48 89 c2             	mov    %rax,%rdx
    7641:	48 8b 45 e8          	mov    -0x18(%rbp),%rax
    7645:	48 89 d6             	mov    %rdx,%rsi
    7648:	48 89 c7             	mov    %rax,%rdi
    764b:	e8 b2 0e 00 00       	callq  8502 <_ZNSt6vectorImSaImEE17_S_check_init_lenEmRKS0_>
    7650:	48 89 c6             	mov    %rax,%rsi
    7653:	48 89 df             	mov    %rbx,%rdi
    7656:	e8 29 0f 00 00       	callq  8584 <_ZNSt12_Vector_baseImSaImEE11_M_allocateEm>
    765b:	48 8b 55 d8          	mov    -0x28(%rbp),%rdx
    765f:	48 89 02             	mov    %rax,(%rdx)
    7662:	48 8b 45 d8          	mov    -0x28(%rbp),%rax
    7666:	48 8b 00             	mov    (%rax),%rax
    7669:	48 8b 55 e8          	mov    -0x18(%rbp),%rdx
    766d:	48 c1 e2 03          	shl    $0x3,%rdx
    7671:	48 01 c2             	add    %rax,%rdx
    7674:	48 8b 45 d8          	mov    -0x28(%rbp),%rax
    7678:	48 89 50 10          	mov    %rdx,0x10(%rax)
    767c:	48 8b 45 d8          	mov    -0x28(%rbp),%rax
    7680:	48 89 c7             	mov    %rax,%rdi
    7683:	e8 2a 00 00 00       	callq  76b2 <_ZNSt12_Vector_baseImSaImEE19_M_get_Tp_allocatorEv>
    7688:	48 89 c1             	mov    %rax,%rcx
    768b:	48 8b 45 d8          	mov    -0x28(%rbp),%rax
    768f:	48 8b 10             	mov    (%rax),%rdx
    7692:	48 8b 75 c8          	mov    -0x38(%rbp),%rsi
    7696:	48 8b 45 d0          	mov    -0x30(%rbp),%rax
    769a:	48 89 c7             	mov    %rax,%rdi
    769d:	e8 15 0f 00 00       	callq  85b7 <_ZSt22__uninitialized_copy_aIPKmPmmET0_T_S4_S3_RSaIT1_E>
    76a2:	48 8b 55 d8          	mov    -0x28(%rbp),%rdx
    76a6:	48 89 42 08          	mov    %rax,0x8(%rdx)
    76aa:	90                   	nop
    76ab:	48 83 c4 38          	add    $0x38,%rsp
    76af:	5b                   	pop    %rbx
    76b0:	5d                   	pop    %rbp
    76b1:	c3                   	retq   

00000000000076b2 <_ZNSt12_Vector_baseImSaImEE19_M_get_Tp_allocatorEv>:
    76b2:	55                   	push   %rbp
    76b3:	48 89 e5             	mov    %rsp,%rbp
    76b6:	48 89 7d f8          	mov    %rdi,-0x8(%rbp)
    76ba:	48 8b 45 f8          	mov    -0x8(%rbp),%rax
    76be:	5d                   	pop    %rbp
    76bf:	c3                   	retq   

00000000000076c0 <_ZSt8_DestroyIPmmEvT_S1_RSaIT0_E>:
    76c0:	55                   	push   %rbp
    76c1:	48 89 e5             	mov    %rsp,%rbp
    76c4:	48 83 ec 20          	sub    $0x20,%rsp
    76c8:	48 89 7d f8          	mov    %rdi,-0x8(%rbp)
    76cc:	48 89 75 f0          	mov    %rsi,-0x10(%rbp)
    76d0:	48 89 55 e8          	mov    %rdx,-0x18(%rbp)
    76d4:	48 8b 55 f0          	mov    -0x10(%rbp),%rdx
    76d8:	48 8b 45 f8          	mov    -0x8(%rbp),%rax
    76dc:	48 89 d6             	mov    %rdx,%rsi
    76df:	48 89 c7             	mov    %rax,%rdi
    76e2:	e8 01 0f 00 00       	callq  85e8 <_ZSt8_DestroyIPmEvT_S1_>
    76e7:	90                   	nop
    76e8:	c9                   	leaveq 
    76e9:	c3                   	retq   

00000000000076ea <_ZN9__gnu_cxx17__normal_iteratorIPmSt6vectorImSaImEEEC1ERKS1_>:
    76ea:	55                   	push   %rbp
    76eb:	48 89 e5             	mov    %rsp,%rbp
    76ee:	48 89 7d f8          	mov    %rdi,-0x8(%rbp)
    76f2:	48 89 75 f0          	mov    %rsi,-0x10(%rbp)
    76f6:	48 8b 45 f0          	mov    -0x10(%rbp),%rax
    76fa:	48 8b 10             	mov    (%rax),%rdx
    76fd:	48 8b 45 f8          	mov    -0x8(%rbp),%rax
    7701:	48 89 10             	mov    %rdx,(%rax)
    7704:	90                   	nop
    7705:	5d                   	pop    %rbp
    7706:	c3                   	retq   
    7707:	90                   	nop

0000000000007708 <_ZNK9__gnu_cxx17__normal_iteratorIPmSt6vectorImSaImEEE4baseEv>:
    7708:	55                   	push   %rbp
    7709:	48 89 e5             	mov    %rsp,%rbp
    770c:	48 89 7d f8          	mov    %rdi,-0x8(%rbp)
    7710:	48 8b 45 f8          	mov    -0x8(%rbp),%rax
    7714:	5d                   	pop    %rbp
    7715:	c3                   	retq   

0000000000007716 <_ZSt11__addressofISt18shared_timed_mutexEPT_RS1_>:
    7716:	55                   	push   %rbp
    7717:	48 89 e5             	mov    %rsp,%rbp
    771a:	48 89 7d f8          	mov    %rdi,-0x8(%rbp)
    771e:	48 8b 45 f8          	mov    -0x8(%rbp),%rax
    7722:	5d                   	pop    %rbp
    7723:	c3                   	retq   

0000000000007724 <_ZN9ArenaItemIiiE15storage_to_itemEP8HashNodeIiiE>:
    7724:	55                   	push   %rbp
    7725:	48 89 e5             	mov    %rsp,%rbp
    7728:	48 89 7d e8          	mov    %rdi,-0x18(%rbp)
    772c:	48 8b 45 e8          	mov    -0x18(%rbp),%rax
    7730:	48 89 45 f8          	mov    %rax,-0x8(%rbp)
    7734:	48 8b 45 f8          	mov    -0x8(%rbp),%rax
    7738:	5d                   	pop    %rbp
    7739:	c3                   	retq   

000000000000773a <_ZN9ArenaItemIiiE13set_next_itemEPS0_>:
    773a:	55                   	push   %rbp
    773b:	48 89 e5             	mov    %rsp,%rbp
    773e:	48 89 7d f8          	mov    %rdi,-0x8(%rbp)
    7742:	48 89 75 f0          	mov    %rsi,-0x10(%rbp)
    7746:	48 8b 45 f8          	mov    -0x8(%rbp),%rax
    774a:	48 8b 55 f0          	mov    -0x10(%rbp),%rdx
    774e:	48 89 50 10          	mov    %rdx,0x10(%rax)
    7752:	90                   	nop
    7753:	5d                   	pop    %rbp
    7754:	c3                   	retq   

0000000000007755 <_ZSt4moveIRiEONSt16remove_referenceIT_E4typeEOS2_>:
    7755:	55                   	push   %rbp
    7756:	48 89 e5             	mov    %rsp,%rbp
    7759:	48 89 7d f8          	mov    %rdi,-0x8(%rbp)
    775d:	48 8b 45 f8          	mov    -0x8(%rbp),%rax
    7761:	5d                   	pop    %rbp
    7762:	c3                   	retq   
    7763:	90                   	nop

0000000000007764 <_ZN9ArenaItemIiiEC1Ev>:
    7764:	55                   	push   %rbp
    7765:	48 89 e5             	mov    %rsp,%rbp
    7768:	48 83 ec 10          	sub    $0x10,%rsp
    776c:	48 89 7d f8          	mov    %rdi,-0x8(%rbp)
    7770:	48 8b 45 f8          	mov    -0x8(%rbp),%rax
    7774:	48 89 c7             	mov    %rax,%rdi
    7777:	e8 92 0e 00 00       	callq  860e <_ZN8HashNodeIiiEC1Ev>
    777c:	90                   	nop
    777d:	c9                   	leaveq 
    777e:	c3                   	retq   
    777f:	90                   	nop

0000000000007780 <_ZN8SubArenaIiiEC1Em>:
    7780:	55                   	push   %rbp
    7781:	48 89 e5             	mov    %rsp,%rbp
    7784:	41 55                	push   %r13
    7786:	41 54                	push   %r12
    7788:	53                   	push   %rbx
    7789:	48 83 ec 28          	sub    $0x28,%rsp
    778d:	48 89 7d c8          	mov    %rdi,-0x38(%rbp)
    7791:	48 89 75 c0          	mov    %rsi,-0x40(%rbp)
    7795:	48 8b 5d c0          	mov    -0x40(%rbp),%rbx
    7799:	48 b8 55 55 55 55 55 	movabs $0x555555555555555,%rax
    77a0:	55 55 05 
    77a3:	48 39 c3             	cmp    %rax,%rbx
    77a6:	77 24                	ja     77cc <_ZN8SubArenaIiiEC1Em+0x4c>
    77a8:	48 89 d8             	mov    %rbx,%rax
    77ab:	48 01 c0             	add    %rax,%rax
    77ae:	48 01 d8             	add    %rbx,%rax
    77b1:	48 c1 e0 03          	shl    $0x3,%rax
    77b5:	48 89 c7             	mov    %rax,%rdi
    77b8:	e8 53 a2 ff ff       	callq  1a10 <_Znam@plt>
    77bd:	49 89 c5             	mov    %rax,%r13
    77c0:	4d 89 ec             	mov    %r13,%r12
    77c3:	48 8d 43 ff          	lea    -0x1(%rbx),%rax
    77c7:	48 89 c3             	mov    %rax,%rbx
    77ca:	eb 05                	jmp    77d1 <_ZN8SubArenaIiiEC1Em+0x51>
    77cc:	e8 ef a3 ff ff       	callq  1bc0 <__cxa_throw_bad_array_new_length@plt>
    77d1:	48 85 db             	test   %rbx,%rbx
    77d4:	78 12                	js     77e8 <_ZN8SubArenaIiiEC1Em+0x68>
    77d6:	4c 89 e7             	mov    %r12,%rdi
    77d9:	e8 86 ff ff ff       	callq  7764 <_ZN9ArenaItemIiiEC1Ev>
    77de:	49 83 c4 18          	add    $0x18,%r12
    77e2:	48 83 eb 01          	sub    $0x1,%rbx
    77e6:	eb e9                	jmp    77d1 <_ZN8SubArenaIiiEC1Em+0x51>
    77e8:	48 8b 45 c8          	mov    -0x38(%rbp),%rax
    77ec:	4c 89 28             	mov    %r13,(%rax)
    77ef:	48 c7 45 d8 01 00 00 	movq   $0x1,-0x28(%rbp)
    77f6:	00 
    77f7:	48 8b 45 d8          	mov    -0x28(%rbp),%rax
    77fb:	48 3b 45 c0          	cmp    -0x40(%rbp),%rax
    77ff:	73 4c                	jae    784d <_ZN8SubArenaIiiEC1Em+0xcd>
    7801:	48 8b 45 c8          	mov    -0x38(%rbp),%rax
    7805:	48 8b 08             	mov    (%rax),%rcx
    7808:	48 8b 55 d8          	mov    -0x28(%rbp),%rdx
    780c:	48 89 d0             	mov    %rdx,%rax
    780f:	48 01 c0             	add    %rax,%rax
    7812:	48 01 d0             	add    %rdx,%rax
    7815:	48 c1 e0 03          	shl    $0x3,%rax
    7819:	48 83 e8 18          	sub    $0x18,%rax
    781d:	48 01 c1             	add    %rax,%rcx
    7820:	48 8b 45 c8          	mov    -0x38(%rbp),%rax
    7824:	48 8b 30             	mov    (%rax),%rsi
    7827:	48 8b 55 d8          	mov    -0x28(%rbp),%rdx
    782b:	48 89 d0             	mov    %rdx,%rax
    782e:	48 01 c0             	add    %rax,%rax
    7831:	48 01 d0             	add    %rdx,%rax
    7834:	48 c1 e0 03          	shl    $0x3,%rax
    7838:	48 01 f0             	add    %rsi,%rax
    783b:	48 89 c6             	mov    %rax,%rsi
    783e:	48 89 cf             	mov    %rcx,%rdi
    7841:	e8 f4 fe ff ff       	callq  773a <_ZN9ArenaItemIiiE13set_next_itemEPS0_>
    7846:	48 83 45 d8 01       	addq   $0x1,-0x28(%rbp)
    784b:	eb aa                	jmp    77f7 <_ZN8SubArenaIiiEC1Em+0x77>
    784d:	48 8b 45 c8          	mov    -0x38(%rbp),%rax
    7851:	48 8b 08             	mov    (%rax),%rcx
    7854:	48 8b 55 c0          	mov    -0x40(%rbp),%rdx
    7858:	48 89 d0             	mov    %rdx,%rax
    785b:	48 01 c0             	add    %rax,%rax
    785e:	48 01 d0             	add    %rdx,%rax
    7861:	48 c1 e0 03          	shl    $0x3,%rax
    7865:	48 83 e8 18          	sub    $0x18,%rax
    7869:	48 01 c8             	add    %rcx,%rax
    786c:	be 00 00 00 00       	mov    $0x0,%esi
    7871:	48 89 c7             	mov    %rax,%rdi
    7874:	e8 c1 fe ff ff       	callq  773a <_ZN9ArenaItemIiiE13set_next_itemEPS0_>
    7879:	48 8b 45 c8          	mov    -0x38(%rbp),%rax
    787d:	48 c7 40 08 00 00 00 	movq   $0x0,0x8(%rax)
    7884:	00 
    7885:	90                   	nop
    7886:	48 83 c4 28          	add    $0x28,%rsp
    788a:	5b                   	pop    %rbx
    788b:	41 5c                	pop    %r12
    788d:	41 5d                	pop    %r13
    788f:	5d                   	pop    %rbp
    7890:	c3                   	retq   
    7891:	90                   	nop

0000000000007892 <_ZN8SubArenaIiiE14set_next_arenaEPS0_>:
    7892:	55                   	push   %rbp
    7893:	48 89 e5             	mov    %rsp,%rbp
    7896:	48 89 7d f8          	mov    %rdi,-0x8(%rbp)
    789a:	48 89 75 f0          	mov    %rsi,-0x10(%rbp)
    789e:	48 8b 45 f8          	mov    -0x8(%rbp),%rax
    78a2:	48 8b 55 f0          	mov    -0x10(%rbp),%rdx
    78a6:	48 89 50 08          	mov    %rdx,0x8(%rax)
    78aa:	90                   	nop
    78ab:	5d                   	pop    %rbp
    78ac:	c3                   	retq   
    78ad:	90                   	nop

00000000000078ae <_ZNK8SubArenaIiiE11get_storageEv>:
    78ae:	55                   	push   %rbp
    78af:	48 89 e5             	mov    %rsp,%rbp
    78b2:	48 89 7d f8          	mov    %rdi,-0x8(%rbp)
    78b6:	48 8b 45 f8          	mov    -0x8(%rbp),%rax
    78ba:	48 8b 00             	mov    (%rax),%rax
    78bd:	5d                   	pop    %rbp
    78be:	c3                   	retq   
    78bf:	90                   	nop

00000000000078c0 <_ZNK9ArenaItemIiiE13get_next_itemEv>:
    78c0:	55                   	push   %rbp
    78c1:	48 89 e5             	mov    %rsp,%rbp
    78c4:	48 89 7d f8          	mov    %rdi,-0x8(%rbp)
    78c8:	48 8b 45 f8          	mov    -0x8(%rbp),%rax
    78cc:	48 8b 40 10          	mov    0x10(%rax),%rax
    78d0:	5d                   	pop    %rbp
    78d1:	c3                   	retq   

00000000000078d2 <_ZN9ArenaItemIiiE11get_storageEv>:
    78d2:	55                   	push   %rbp
    78d3:	48 89 e5             	mov    %rsp,%rbp
    78d6:	48 89 7d f8          	mov    %rdi,-0x8(%rbp)
    78da:	48 8b 45 f8          	mov    -0x8(%rbp),%rax
    78de:	5d                   	pop    %rbp
    78df:	c3                   	retq   

00000000000078e0 <_ZN8HashNodeIiiE7setNodeEii>:
    78e0:	55                   	push   %rbp
    78e1:	48 89 e5             	mov    %rsp,%rbp
    78e4:	48 83 ec 10          	sub    $0x10,%rsp
    78e8:	48 89 7d f8          	mov    %rdi,-0x8(%rbp)
    78ec:	89 75 f4             	mov    %esi,-0xc(%rbp)
    78ef:	89 55 f0             	mov    %edx,-0x10(%rbp)
    78f2:	48 8d 45 f4          	lea    -0xc(%rbp),%rax
    78f6:	48 89 c7             	mov    %rax,%rdi
    78f9:	e8 57 fe ff ff       	callq  7755 <_ZSt4moveIRiEONSt16remove_referenceIT_E4typeEOS2_>
    78fe:	8b 10                	mov    (%rax),%edx
    7900:	48 8b 45 f8          	mov    -0x8(%rbp),%rax
    7904:	89 50 08             	mov    %edx,0x8(%rax)
    7907:	48 8d 45 f0          	lea    -0x10(%rbp),%rax
    790b:	48 89 c7             	mov    %rax,%rdi
    790e:	e8 42 fe ff ff       	callq  7755 <_ZSt4moveIRiEONSt16remove_referenceIT_E4typeEOS2_>
    7913:	8b 10                	mov    (%rax),%edx
    7915:	48 8b 45 f8          	mov    -0x8(%rbp),%rax
    7919:	89 50 0c             	mov    %edx,0xc(%rax)
    791c:	90                   	nop
    791d:	c9                   	leaveq 
    791e:	c3                   	retq   
    791f:	90                   	nop

0000000000007920 <_ZN5ArenaIiiE7setSizeEm>:
    7920:	55                   	push   %rbp
    7921:	48 89 e5             	mov    %rsp,%rbp
    7924:	48 83 ec 10          	sub    $0x10,%rsp
    7928:	48 89 7d f8          	mov    %rdi,-0x8(%rbp)
    792c:	48 89 75 f0          	mov    %rsi,-0x10(%rbp)
    7930:	48 8b 45 f8          	mov    -0x8(%rbp),%rax
    7934:	48 83 c0 18          	add    $0x18,%rax
    7938:	48 89 c7             	mov    %rax,%rdi
    793b:	e8 a2 c7 ff ff       	callq  40e2 <_ZNSt5mutex4lockEv>
    7940:	48 8b 45 f8          	mov    -0x8(%rbp),%rax
    7944:	48 8b 55 f0          	mov    -0x10(%rbp),%rdx
    7948:	48 89 10             	mov    %rdx,(%rax)
    794b:	48 8b 45 f8          	mov    -0x8(%rbp),%rax
    794f:	48 83 c0 18          	add    $0x18,%rax
    7953:	48 89 c7             	mov    %rax,%rdi
    7956:	e8 b5 c7 ff ff       	callq  4110 <_ZNSt5mutex6unlockEv>
    795b:	90                   	nop
    795c:	c9                   	leaveq 
    795d:	c3                   	retq   

000000000000795e <_ZN9HashTableIiiE7subHashEPv>:
    795e:	55                   	push   %rbp
    795f:	48 89 e5             	mov    %rsp,%rbp
    7962:	48 83 ec 50          	sub    $0x50,%rsp
    7966:	48 89 7d b8          	mov    %rdi,-0x48(%rbp)
    796a:	48 8b 45 b8          	mov    -0x48(%rbp),%rax
    796e:	48 89 45 d0          	mov    %rax,-0x30(%rbp)
    7972:	48 8b 45 d0          	mov    -0x30(%rbp),%rax
    7976:	8b 40 18             	mov    0x18(%rax),%eax
    7979:	48 98                	cltq   
    797b:	48 89 45 d8          	mov    %rax,-0x28(%rbp)
    797f:	48 8b 45 d0          	mov    -0x30(%rbp),%rax
    7983:	48 8b 40 20          	mov    0x20(%rax),%rax
    7987:	48 89 45 e0          	mov    %rax,-0x20(%rbp)
    798b:	48 8b 45 d0          	mov    -0x30(%rbp),%rax
    798f:	48 8b 40 08          	mov    0x8(%rax),%rax
    7993:	48 89 45 e8          	mov    %rax,-0x18(%rbp)
    7997:	48 8b 45 d0          	mov    -0x30(%rbp),%rax
    799b:	48 8b 40 10          	mov    0x10(%rax),%rax
    799f:	48 89 45 f0          	mov    %rax,-0x10(%rbp)
    79a3:	48 8b 45 e0          	mov    -0x20(%rbp),%rax
    79a7:	48 0f af 45 d8       	imul   -0x28(%rbp),%rax
    79ac:	48 89 45 c8          	mov    %rax,-0x38(%rbp)
    79b0:	48 8b 45 d8          	mov    -0x28(%rbp),%rax
    79b4:	48 83 c0 01          	add    $0x1,%rax
    79b8:	48 0f af 45 e0       	imul   -0x20(%rbp),%rax
    79bd:	48 39 45 c8          	cmp    %rax,-0x38(%rbp)
    79c1:	0f 83 83 00 00 00    	jae    7a4a <_ZN9HashTableIiiE7subHashEPv+0xec>
    79c7:	48 8b 45 f0          	mov    -0x10(%rbp),%rax
    79cb:	48 8b 00             	mov    (%rax),%rax
    79ce:	48 8b 55 c8          	mov    -0x38(%rbp),%rdx
    79d2:	48 c1 e2 03          	shl    $0x3,%rdx
    79d6:	48 01 d0             	add    %rdx,%rax
    79d9:	48 89 c7             	mov    %rax,%rdi
    79dc:	e8 01 c9 ff ff       	callq  42e2 <_ZN6BucketIiiE7getNodeEv>
    79e1:	48 89 45 c0          	mov    %rax,-0x40(%rbp)
    79e5:	48 83 7d c0 00       	cmpq   $0x0,-0x40(%rbp)
    79ea:	74 54                	je     7a40 <_ZN9HashTableIiiE7subHashEPv+0xe2>
    79ec:	48 8b 45 c0          	mov    -0x40(%rbp),%rax
    79f0:	48 89 c7             	mov    %rax,%rdi
    79f3:	e8 9c ea ff ff       	callq  6494 <_ZN8HashNodeIiiE7getNextEv>
    79f8:	48 89 45 f8          	mov    %rax,-0x8(%rbp)
    79fc:	48 8b 45 c0          	mov    -0x40(%rbp),%rax
    7a00:	48 89 c7             	mov    %rax,%rdi
    7a03:	e8 7a ea ff ff       	callq  6482 <_ZN8HashNodeIiiE6getKeyEv>
    7a08:	8b 10                	mov    (%rax),%edx
    7a0a:	48 8b 45 f0          	mov    -0x10(%rbp),%rax
    7a0e:	89 d6                	mov    %edx,%esi
    7a10:	48 89 c7             	mov    %rax,%rdi
    7a13:	e8 12 ea ff ff       	callq  642a <_ZN9HashTableIiiE9hash_funcEi>
    7a18:	48 8d 14 c5 00 00 00 	lea    0x0(,%rax,8),%rdx
    7a1f:	00 
    7a20:	48 8b 45 e8          	mov    -0x18(%rbp),%rax
    7a24:	48 01 c2             	add    %rax,%rdx
    7a27:	48 8b 45 c0          	mov    -0x40(%rbp),%rax
    7a2b:	48 89 c6             	mov    %rax,%rsi
    7a2e:	48 89 d7             	mov    %rdx,%rdi
    7a31:	e8 d6 c8 ff ff       	callq  430c <_ZN6BucketIiiE6appendEP8HashNodeIiiE>
    7a36:	48 8b 45 f8          	mov    -0x8(%rbp),%rax
    7a3a:	48 89 45 c0          	mov    %rax,-0x40(%rbp)
    7a3e:	eb a5                	jmp    79e5 <_ZN9HashTableIiiE7subHashEPv+0x87>
    7a40:	48 83 45 c8 01       	addq   $0x1,-0x38(%rbp)
    7a45:	e9 66 ff ff ff       	jmpq   79b0 <_ZN9HashTableIiiE7subHashEPv+0x52>
    7a4a:	b8 00 00 00 00       	mov    $0x0,%eax
    7a4f:	c9                   	leaveq 
    7a50:	c3                   	retq   
    7a51:	90                   	nop

0000000000007a52 <_ZNSt6threadC1IRFPvS1_EJP10arg_structIiiEEvEEOT_DpOT0_>:
    7a52:	55                   	push   %rbp
    7a53:	48 89 e5             	mov    %rsp,%rbp
    7a56:	53                   	push   %rbx
    7a57:	48 83 ec 58          	sub    $0x58,%rsp
    7a5b:	48 89 7d b8          	mov    %rdi,-0x48(%rbp)
    7a5f:	48 89 75 b0          	mov    %rsi,-0x50(%rbp)
    7a63:	48 89 55 a8          	mov    %rdx,-0x58(%rbp)
    7a67:	64 48 8b 04 25 28 00 	mov    %fs:0x28,%rax
    7a6e:	00 00 
    7a70:	48 89 45 e8          	mov    %rax,-0x18(%rbp)
    7a74:	31 c0                	xor    %eax,%eax
    7a76:	48 8b 45 b8          	mov    -0x48(%rbp),%rax
    7a7a:	48 89 c7             	mov    %rax,%rdi
    7a7d:	e8 52 c5 ff ff       	callq  3fd4 <_ZNSt6thread2idC1Ev>
    7a82:	48 8b 05 2f 75 20 00 	mov    0x20752f(%rip),%rax        # 20efb8 <pthread_create@GLIBC_2.2.5>
    7a89:	48 89 45 c8          	mov    %rax,-0x38(%rbp)
    7a8d:	48 8b 45 a8          	mov    -0x58(%rbp),%rax
    7a91:	48 89 c7             	mov    %rax,%rdi
    7a94:	e8 99 0b 00 00       	callq  8632 <_ZSt7forwardIP10arg_structIiiEEOT_RNSt16remove_referenceIS3_E4typeE>
    7a99:	48 89 c3             	mov    %rax,%rbx
    7a9c:	48 8b 45 b0          	mov    -0x50(%rbp),%rax
    7aa0:	48 89 c7             	mov    %rax,%rdi
    7aa3:	e8 7c 0b 00 00       	callq  8624 <_ZSt7forwardIRFPvS0_EEOT_RNSt16remove_referenceIS3_E4typeE>
    7aa8:	48 89 c1             	mov    %rax,%rcx
    7aab:	48 8d 45 d0          	lea    -0x30(%rbp),%rax
    7aaf:	48 89 da             	mov    %rbx,%rdx
    7ab2:	48 89 ce             	mov    %rcx,%rsi
    7ab5:	48 89 c7             	mov    %rax,%rdi
    7ab8:	e8 b0 0c 00 00       	callq  876d <_ZNSt6thread14__make_invokerIRFPvS1_EJP10arg_structIiiEEEENS_8_InvokerISt5tupleIJNSt5decayIT_E4typeEDpNS9_IT0_E4typeEEEEEOSA_DpOSD_>
    7abd:	48 8d 45 c0          	lea    -0x40(%rbp),%rax
    7ac1:	48 8d 55 d0          	lea    -0x30(%rbp),%rdx
    7ac5:	48 89 d6             	mov    %rdx,%rsi
    7ac8:	48 89 c7             	mov    %rax,%rdi
    7acb:	e8 ee 0c 00 00       	callq  87be <_ZNSt6thread13_S_make_stateINS_8_InvokerISt5tupleIJPFPvS3_EP10arg_structIiiEEEEEEESt10unique_ptrINS_6_StateESt14default_deleteISC_EEOT_>
    7ad0:	48 8b 55 c8          	mov    -0x38(%rbp),%rdx
    7ad4:	48 8d 4d c0          	lea    -0x40(%rbp),%rcx
    7ad8:	48 8b 45 b8          	mov    -0x48(%rbp),%rax
    7adc:	48 89 ce             	mov    %rcx,%rsi
    7adf:	48 89 c7             	mov    %rax,%rdi
    7ae2:	e8 39 a0 ff ff       	callq  1b20 <_ZNSt6thread15_M_start_threadESt10unique_ptrINS_6_StateESt14default_deleteIS1_EEPFvvE@plt>
    7ae7:	48 8d 45 c0          	lea    -0x40(%rbp),%rax
    7aeb:	48 89 c7             	mov    %rax,%rdi
    7aee:	e8 21 0d 00 00       	callq  8814 <_ZNSt10unique_ptrINSt6thread6_StateESt14default_deleteIS1_EED1Ev>
    7af3:	90                   	nop
    7af4:	48 8b 45 e8          	mov    -0x18(%rbp),%rax
    7af8:	64 48 33 04 25 28 00 	xor    %fs:0x28,%rax
    7aff:	00 00 
    7b01:	74 21                	je     7b24 <_ZNSt6threadC1IRFPvS1_EJP10arg_structIiiEEvEEOT_DpOT0_+0xd2>
    7b03:	eb 1a                	jmp    7b1f <_ZNSt6threadC1IRFPvS1_EJP10arg_structIiiEEvEEOT_DpOT0_+0xcd>
    7b05:	48 89 c3             	mov    %rax,%rbx
    7b08:	48 8d 45 c0          	lea    -0x40(%rbp),%rax
    7b0c:	48 89 c7             	mov    %rax,%rdi
    7b0f:	e8 00 0d 00 00       	callq  8814 <_ZNSt10unique_ptrINSt6thread6_StateESt14default_deleteIS1_EED1Ev>
    7b14:	48 89 d8             	mov    %rbx,%rax
    7b17:	48 89 c7             	mov    %rax,%rdi
    7b1a:	e8 41 a1 ff ff       	callq  1c60 <_Unwind_Resume@plt>
    7b1f:	e8 6c a0 ff ff       	callq  1b90 <__stack_chk_fail@plt>
    7b24:	48 83 c4 58          	add    $0x58,%rsp
    7b28:	5b                   	pop    %rbx
    7b29:	5d                   	pop    %rbp
    7b2a:	c3                   	retq   
    7b2b:	90                   	nop

0000000000007b2c <_ZN9__gnu_cxx13new_allocatorISt4pairIiiEEC1Ev>:
    7b2c:	55                   	push   %rbp
    7b2d:	48 89 e5             	mov    %rsp,%rbp
    7b30:	48 89 7d f8          	mov    %rdi,-0x8(%rbp)
    7b34:	90                   	nop
    7b35:	5d                   	pop    %rbp
    7b36:	c3                   	retq   

0000000000007b37 <_ZNSt16allocator_traitsISaISt4pairIiiEEE10deallocateERS2_PS1_m>:
    7b37:	55                   	push   %rbp
    7b38:	48 89 e5             	mov    %rsp,%rbp
    7b3b:	48 83 ec 20          	sub    $0x20,%rsp
    7b3f:	48 89 7d f8          	mov    %rdi,-0x8(%rbp)
    7b43:	48 89 75 f0          	mov    %rsi,-0x10(%rbp)
    7b47:	48 89 55 e8          	mov    %rdx,-0x18(%rbp)
    7b4b:	48 8b 55 e8          	mov    -0x18(%rbp),%rdx
    7b4f:	48 8b 4d f0          	mov    -0x10(%rbp),%rcx
    7b53:	48 8b 45 f8          	mov    -0x8(%rbp),%rax
    7b57:	48 89 ce             	mov    %rcx,%rsi
    7b5a:	48 89 c7             	mov    %rax,%rdi
    7b5d:	e8 18 0d 00 00       	callq  887a <_ZN9__gnu_cxx13new_allocatorISt4pairIiiEE10deallocateEPS2_m>
    7b62:	90                   	nop
    7b63:	c9                   	leaveq 
    7b64:	c3                   	retq   

0000000000007b65 <_ZSt8_DestroyIPSt4pairIiiEEvT_S3_>:
    7b65:	55                   	push   %rbp
    7b66:	48 89 e5             	mov    %rsp,%rbp
    7b69:	48 83 ec 10          	sub    $0x10,%rsp
    7b6d:	48 89 7d f8          	mov    %rdi,-0x8(%rbp)
    7b71:	48 89 75 f0          	mov    %rsi,-0x10(%rbp)
    7b75:	48 8b 55 f0          	mov    -0x10(%rbp),%rdx
    7b79:	48 8b 45 f8          	mov    -0x8(%rbp),%rax
    7b7d:	48 89 d6             	mov    %rdx,%rsi
    7b80:	48 89 c7             	mov    %rax,%rdi
    7b83:	e8 14 0d 00 00       	callq  889c <_ZNSt12_Destroy_auxILb1EE9__destroyIPSt4pairIiiEEEvT_S5_>
    7b88:	90                   	nop
    7b89:	c9                   	leaveq 
    7b8a:	c3                   	retq   

0000000000007b8b <_ZNSt16allocator_traitsISaIiEE10deallocateERS0_Pim>:
    7b8b:	55                   	push   %rbp
    7b8c:	48 89 e5             	mov    %rsp,%rbp
    7b8f:	48 83 ec 20          	sub    $0x20,%rsp
    7b93:	48 89 7d f8          	mov    %rdi,-0x8(%rbp)
    7b97:	48 89 75 f0          	mov    %rsi,-0x10(%rbp)
    7b9b:	48 89 55 e8          	mov    %rdx,-0x18(%rbp)
    7b9f:	48 8b 55 e8          	mov    -0x18(%rbp),%rdx
    7ba3:	48 8b 4d f0          	mov    -0x10(%rbp),%rcx
    7ba7:	48 8b 45 f8          	mov    -0x8(%rbp),%rax
    7bab:	48 89 ce             	mov    %rcx,%rsi
    7bae:	48 89 c7             	mov    %rax,%rdi
    7bb1:	e8 f6 0c 00 00       	callq  88ac <_ZN9__gnu_cxx13new_allocatorIiE10deallocateEPim>
    7bb6:	90                   	nop
    7bb7:	c9                   	leaveq 
    7bb8:	c3                   	retq   

0000000000007bb9 <_ZSt8_DestroyIPiEvT_S1_>:
    7bb9:	55                   	push   %rbp
    7bba:	48 89 e5             	mov    %rsp,%rbp
    7bbd:	48 83 ec 10          	sub    $0x10,%rsp
    7bc1:	48 89 7d f8          	mov    %rdi,-0x8(%rbp)
    7bc5:	48 89 75 f0          	mov    %rsi,-0x10(%rbp)
    7bc9:	48 8b 55 f0          	mov    -0x10(%rbp),%rdx
    7bcd:	48 8b 45 f8          	mov    -0x8(%rbp),%rax
    7bd1:	48 89 d6             	mov    %rdx,%rsi
    7bd4:	48 89 c7             	mov    %rax,%rdi
    7bd7:	e8 f2 0c 00 00       	callq  88ce <_ZNSt12_Destroy_auxILb1EE9__destroyIPiEEvT_S3_>
    7bdc:	90                   	nop
    7bdd:	c9                   	leaveq 
    7bde:	c3                   	retq   
    7bdf:	90                   	nop

0000000000007be0 <_ZNSt11unique_lockISt18shared_timed_mutexE4lockEv>:
    7be0:	55                   	push   %rbp
    7be1:	48 89 e5             	mov    %rsp,%rbp
    7be4:	48 83 ec 10          	sub    $0x10,%rsp
    7be8:	48 89 7d f8          	mov    %rdi,-0x8(%rbp)
    7bec:	48 8b 45 f8          	mov    -0x8(%rbp),%rax
    7bf0:	48 8b 00             	mov    (%rax),%rax
    7bf3:	48 85 c0             	test   %rax,%rax
    7bf6:	75 0a                	jne    7c02 <_ZNSt11unique_lockISt18shared_timed_mutexE4lockEv+0x22>
    7bf8:	bf 01 00 00 00       	mov    $0x1,%edi
    7bfd:	e8 be 9e ff ff       	callq  1ac0 <_ZSt20__throw_system_errori@plt>
    7c02:	48 8b 45 f8          	mov    -0x8(%rbp),%rax
    7c06:	0f b6 40 08          	movzbl 0x8(%rax),%eax
    7c0a:	84 c0                	test   %al,%al
    7c0c:	74 0a                	je     7c18 <_ZNSt11unique_lockISt18shared_timed_mutexE4lockEv+0x38>
    7c0e:	bf 23 00 00 00       	mov    $0x23,%edi
    7c13:	e8 a8 9e ff ff       	callq  1ac0 <_ZSt20__throw_system_errori@plt>
    7c18:	48 8b 45 f8          	mov    -0x8(%rbp),%rax
    7c1c:	48 8b 00             	mov    (%rax),%rax
    7c1f:	48 89 c7             	mov    %rax,%rdi
    7c22:	e8 31 c6 ff ff       	callq  4258 <_ZNSt18shared_timed_mutex4lockEv>
    7c27:	48 8b 45 f8          	mov    -0x8(%rbp),%rax
    7c2b:	c6 40 08 01          	movb   $0x1,0x8(%rax)
    7c2f:	90                   	nop
    7c30:	c9                   	leaveq 
    7c31:	c3                   	retq   

0000000000007c32 <_ZNSt11unique_lockISt18shared_timed_mutexE6unlockEv>:
    7c32:	55                   	push   %rbp
    7c33:	48 89 e5             	mov    %rsp,%rbp
    7c36:	48 83 ec 10          	sub    $0x10,%rsp
    7c3a:	48 89 7d f8          	mov    %rdi,-0x8(%rbp)
    7c3e:	48 8b 45 f8          	mov    -0x8(%rbp),%rax
    7c42:	0f b6 40 08          	movzbl 0x8(%rax),%eax
    7c46:	83 f0 01             	xor    $0x1,%eax
    7c49:	84 c0                	test   %al,%al
    7c4b:	74 0a                	je     7c57 <_ZNSt11unique_lockISt18shared_timed_mutexE6unlockEv+0x25>
    7c4d:	bf 01 00 00 00       	mov    $0x1,%edi
    7c52:	e8 69 9e ff ff       	callq  1ac0 <_ZSt20__throw_system_errori@plt>
    7c57:	48 8b 45 f8          	mov    -0x8(%rbp),%rax
    7c5b:	48 8b 00             	mov    (%rax),%rax
    7c5e:	48 85 c0             	test   %rax,%rax
    7c61:	74 17                	je     7c7a <_ZNSt11unique_lockISt18shared_timed_mutexE6unlockEv+0x48>
    7c63:	48 8b 45 f8          	mov    -0x8(%rbp),%rax
    7c67:	48 8b 00             	mov    (%rax),%rax
    7c6a:	48 89 c7             	mov    %rax,%rdi
    7c6d:	e8 02 c6 ff ff       	callq  4274 <_ZNSt18shared_timed_mutex6unlockEv>
    7c72:	48 8b 45 f8          	mov    -0x8(%rbp),%rax
    7c76:	c6 40 08 00          	movb   $0x0,0x8(%rax)
    7c7a:	90                   	nop
    7c7b:	c9                   	leaveq 
    7c7c:	c3                   	retq   
    7c7d:	90                   	nop

0000000000007c7e <_ZN8SubArenaIiiE8get_nextEv>:
    7c7e:	55                   	push   %rbp
    7c7f:	48 89 e5             	mov    %rsp,%rbp
    7c82:	48 89 7d f8          	mov    %rdi,-0x8(%rbp)
    7c86:	48 8b 45 f8          	mov    -0x8(%rbp),%rax
    7c8a:	48 8b 40 08          	mov    0x8(%rax),%rax
    7c8e:	5d                   	pop    %rbp
    7c8f:	c3                   	retq   

0000000000007c90 <_ZN8SubArenaIiiED1Ev>:
    7c90:	55                   	push   %rbp
    7c91:	48 89 e5             	mov    %rsp,%rbp
    7c94:	48 83 ec 10          	sub    $0x10,%rsp
    7c98:	48 89 7d f8          	mov    %rdi,-0x8(%rbp)
    7c9c:	48 8b 45 f8          	mov    -0x8(%rbp),%rax
    7ca0:	48 8b 00             	mov    (%rax),%rax
    7ca3:	48 85 c0             	test   %rax,%rax
    7ca6:	74 0f                	je     7cb7 <_ZN8SubArenaIiiED1Ev+0x27>
    7ca8:	48 8b 45 f8          	mov    -0x8(%rbp),%rax
    7cac:	48 8b 00             	mov    (%rax),%rax
    7caf:	48 89 c7             	mov    %rax,%rdi
    7cb2:	e8 e9 9e ff ff       	callq  1ba0 <_ZdaPv@plt>
    7cb7:	90                   	nop
    7cb8:	c9                   	leaveq 
    7cb9:	c3                   	retq   

0000000000007cba <_ZSt7forwardISt4pairIiiEEOT_RNSt16remove_referenceIS2_E4typeE>:
    7cba:	55                   	push   %rbp
    7cbb:	48 89 e5             	mov    %rsp,%rbp
    7cbe:	48 89 7d f8          	mov    %rdi,-0x8(%rbp)
    7cc2:	48 8b 45 f8          	mov    -0x8(%rbp),%rax
    7cc6:	5d                   	pop    %rbp
    7cc7:	c3                   	retq   

0000000000007cc8 <_ZNSt16allocator_traitsISaISt4pairIiiEEE9constructIS1_JS1_EEEvRS2_PT_DpOT0_>:
    7cc8:	55                   	push   %rbp
    7cc9:	48 89 e5             	mov    %rsp,%rbp
    7ccc:	48 83 ec 20          	sub    $0x20,%rsp
    7cd0:	48 89 7d f8          	mov    %rdi,-0x8(%rbp)
    7cd4:	48 89 75 f0          	mov    %rsi,-0x10(%rbp)
    7cd8:	48 89 55 e8          	mov    %rdx,-0x18(%rbp)
    7cdc:	48 8b 45 e8          	mov    -0x18(%rbp),%rax
    7ce0:	48 89 c7             	mov    %rax,%rdi
    7ce3:	e8 d2 ff ff ff       	callq  7cba <_ZSt7forwardISt4pairIiiEEOT_RNSt16remove_referenceIS2_E4typeE>
    7ce8:	48 89 c2             	mov    %rax,%rdx
    7ceb:	48 8b 4d f0          	mov    -0x10(%rbp),%rcx
    7cef:	48 8b 45 f8          	mov    -0x8(%rbp),%rax
    7cf3:	48 89 ce             	mov    %rcx,%rsi
    7cf6:	48 89 c7             	mov    %rax,%rdi
    7cf9:	e8 e0 0b 00 00       	callq  88de <_ZN9__gnu_cxx13new_allocatorISt4pairIiiEE9constructIS2_JS2_EEEvPT_DpOT0_>
    7cfe:	90                   	nop
    7cff:	c9                   	leaveq 
    7d00:	c3                   	retq   
    7d01:	90                   	nop

0000000000007d02 <_ZNSt6vectorISt4pairIiiESaIS1_EE17_M_realloc_insertIJS1_EEEvN9__gnu_cxx17__normal_iteratorIPS1_S3_EEDpOT_>:
    7d02:	55                   	push   %rbp
    7d03:	48 89 e5             	mov    %rsp,%rbp
    7d06:	53                   	push   %rbx
    7d07:	48 83 ec 68          	sub    $0x68,%rsp
    7d0b:	48 89 7d a8          	mov    %rdi,-0x58(%rbp)
    7d0f:	48 89 75 a0          	mov    %rsi,-0x60(%rbp)
    7d13:	48 89 55 98          	mov    %rdx,-0x68(%rbp)
    7d17:	64 48 8b 04 25 28 00 	mov    %fs:0x28,%rax
    7d1e:	00 00 
    7d20:	48 89 45 e8          	mov    %rax,-0x18(%rbp)
    7d24:	31 c0                	xor    %eax,%eax
    7d26:	48 8b 45 a8          	mov    -0x58(%rbp),%rax
    7d2a:	48 8d 15 8a 1f 00 00 	lea    0x1f8a(%rip),%rdx        # 9cbb <_ZN6__pstl9execution2v1L5unseqE+0x8c>
    7d31:	be 01 00 00 00       	mov    $0x1,%esi
    7d36:	48 89 c7             	mov    %rax,%rdi
    7d39:	e8 e4 0b 00 00       	callq  8922 <_ZNKSt6vectorISt4pairIiiESaIS1_EE12_M_check_lenEmPKc>
    7d3e:	48 89 45 b8          	mov    %rax,-0x48(%rbp)
    7d42:	48 8b 45 a8          	mov    -0x58(%rbp),%rax
    7d46:	48 8b 00             	mov    (%rax),%rax
    7d49:	48 89 45 c0          	mov    %rax,-0x40(%rbp)
    7d4d:	48 8b 45 a8          	mov    -0x58(%rbp),%rax
    7d51:	48 8b 40 08          	mov    0x8(%rax),%rax
    7d55:	48 89 45 c8          	mov    %rax,-0x38(%rbp)
    7d59:	48 8b 45 a8          	mov    -0x58(%rbp),%rax
    7d5d:	48 89 c7             	mov    %rax,%rdi
    7d60:	e8 29 d1 ff ff       	callq  4e8e <_ZNSt6vectorISt4pairIiiESaIS1_EE5beginEv>
    7d65:	48 89 45 b0          	mov    %rax,-0x50(%rbp)
    7d69:	48 8d 55 b0          	lea    -0x50(%rbp),%rdx
    7d6d:	48 8d 45 a0          	lea    -0x60(%rbp),%rax
    7d71:	48 89 d6             	mov    %rdx,%rsi
    7d74:	48 89 c7             	mov    %rax,%rdi
    7d77:	e8 8e 05 00 00       	callq  830a <_ZN9__gnu_cxxmiIPSt4pairIiiESt6vectorIS2_SaIS2_EEEENS_17__normal_iteratorIT_T0_E15difference_typeERKSA_SD_>
    7d7c:	48 89 45 d0          	mov    %rax,-0x30(%rbp)
    7d80:	48 8b 45 a8          	mov    -0x58(%rbp),%rax
    7d84:	48 8b 55 b8          	mov    -0x48(%rbp),%rdx
    7d88:	48 89 d6             	mov    %rdx,%rsi
    7d8b:	48 89 c7             	mov    %rax,%rdi
    7d8e:	e8 91 f2 ff ff       	callq  7024 <_ZNSt12_Vector_baseISt4pairIiiESaIS1_EE11_M_allocateEm>
    7d93:	48 89 45 d8          	mov    %rax,-0x28(%rbp)
    7d97:	48 8b 45 d8          	mov    -0x28(%rbp),%rax
    7d9b:	48 89 45 e0          	mov    %rax,-0x20(%rbp)
    7d9f:	48 8b 45 98          	mov    -0x68(%rbp),%rax
    7da3:	48 89 c7             	mov    %rax,%rdi
    7da6:	e8 0f ff ff ff       	callq  7cba <_ZSt7forwardISt4pairIiiEEOT_RNSt16remove_referenceIS2_E4typeE>
    7dab:	48 89 c2             	mov    %rax,%rdx
    7dae:	48 8b 45 d0          	mov    -0x30(%rbp),%rax
    7db2:	48 8d 0c c5 00 00 00 	lea    0x0(,%rax,8),%rcx
    7db9:	00 
    7dba:	48 8b 45 d8          	mov    -0x28(%rbp),%rax
    7dbe:	48 01 c1             	add    %rax,%rcx
    7dc1:	48 8b 45 a8          	mov    -0x58(%rbp),%rax
    7dc5:	48 89 ce             	mov    %rcx,%rsi
    7dc8:	48 89 c7             	mov    %rax,%rdi
    7dcb:	e8 f8 fe ff ff       	callq  7cc8 <_ZNSt16allocator_traitsISaISt4pairIiiEEE9constructIS1_JS1_EEEvRS2_PT_DpOT0_>
    7dd0:	48 c7 45 e0 00 00 00 	movq   $0x0,-0x20(%rbp)
    7dd7:	00 
    7dd8:	48 8b 45 a8          	mov    -0x58(%rbp),%rax
    7ddc:	48 89 c7             	mov    %rax,%rdi
    7ddf:	e8 fa eb ff ff       	callq  69de <_ZNSt12_Vector_baseISt4pairIiiESaIS1_EE19_M_get_Tp_allocatorEv>
    7de4:	48 89 c3             	mov    %rax,%rbx
    7de7:	48 8d 45 a0          	lea    -0x60(%rbp),%rax
    7deb:	48 89 c7             	mov    %rax,%rdi
    7dee:	e8 37 e7 ff ff       	callq  652a <_ZNK9__gnu_cxx17__normal_iteratorIPSt4pairIiiESt6vectorIS2_SaIS2_EEE4baseEv>
    7df3:	48 8b 30             	mov    (%rax),%rsi
    7df6:	48 8b 55 d8          	mov    -0x28(%rbp),%rdx
    7dfa:	48 8b 45 c0          	mov    -0x40(%rbp),%rax
    7dfe:	48 89 d9             	mov    %rbx,%rcx
    7e01:	48 89 c7             	mov    %rax,%rdi
    7e04:	e8 4e f2 ff ff       	callq  7057 <_ZNSt6vectorISt4pairIiiESaIS1_EE11_S_relocateEPS1_S4_S4_RS2_>
    7e09:	48 89 45 e0          	mov    %rax,-0x20(%rbp)
    7e0d:	48 83 45 e0 08       	addq   $0x8,-0x20(%rbp)
    7e12:	48 8b 45 a8          	mov    -0x58(%rbp),%rax
    7e16:	48 89 c7             	mov    %rax,%rdi
    7e19:	e8 c0 eb ff ff       	callq  69de <_ZNSt12_Vector_baseISt4pairIiiESaIS1_EE19_M_get_Tp_allocatorEv>
    7e1e:	48 89 c3             	mov    %rax,%rbx
    7e21:	48 8d 45 a0          	lea    -0x60(%rbp),%rax
    7e25:	48 89 c7             	mov    %rax,%rdi
    7e28:	e8 fd e6 ff ff       	callq  652a <_ZNK9__gnu_cxx17__normal_iteratorIPSt4pairIiiESt6vectorIS2_SaIS2_EEE4baseEv>
    7e2d:	48 8b 00             	mov    (%rax),%rax
    7e30:	48 8b 55 e0          	mov    -0x20(%rbp),%rdx
    7e34:	48 8b 75 c8          	mov    -0x38(%rbp),%rsi
    7e38:	48 89 d9             	mov    %rbx,%rcx
    7e3b:	48 89 c7             	mov    %rax,%rdi
    7e3e:	e8 14 f2 ff ff       	callq  7057 <_ZNSt6vectorISt4pairIiiESaIS1_EE11_S_relocateEPS1_S4_S4_RS2_>
    7e43:	48 89 45 e0          	mov    %rax,-0x20(%rbp)
    7e47:	48 8b 45 a8          	mov    -0x58(%rbp),%rax
    7e4b:	48 8b 55 a8          	mov    -0x58(%rbp),%rdx
    7e4f:	48 8b 52 10          	mov    0x10(%rdx),%rdx
    7e53:	48 2b 55 c0          	sub    -0x40(%rbp),%rdx
    7e57:	48 c1 fa 03          	sar    $0x3,%rdx
    7e5b:	48 8b 4d c0          	mov    -0x40(%rbp),%rcx
    7e5f:	48 89 ce             	mov    %rcx,%rsi
    7e62:	48 89 c7             	mov    %rax,%rdi
    7e65:	e8 3e eb ff ff       	callq  69a8 <_ZNSt12_Vector_baseISt4pairIiiESaIS1_EE13_M_deallocateEPS1_m>
    7e6a:	48 8b 45 a8          	mov    -0x58(%rbp),%rax
    7e6e:	48 8b 55 d8          	mov    -0x28(%rbp),%rdx
    7e72:	48 89 10             	mov    %rdx,(%rax)
    7e75:	48 8b 45 a8          	mov    -0x58(%rbp),%rax
    7e79:	48 8b 55 e0          	mov    -0x20(%rbp),%rdx
    7e7d:	48 89 50 08          	mov    %rdx,0x8(%rax)
    7e81:	48 8b 45 b8          	mov    -0x48(%rbp),%rax
    7e85:	48 8d 14 c5 00 00 00 	lea    0x0(,%rax,8),%rdx
    7e8c:	00 
    7e8d:	48 8b 45 d8          	mov    -0x28(%rbp),%rax
    7e91:	48 01 c2             	add    %rax,%rdx
    7e94:	48 8b 45 a8          	mov    -0x58(%rbp),%rax
    7e98:	48 89 50 10          	mov    %rdx,0x10(%rax)
    7e9c:	90                   	nop
    7e9d:	48 8b 45 e8          	mov    -0x18(%rbp),%rax
    7ea1:	64 48 33 04 25 28 00 	xor    %fs:0x28,%rax
    7ea8:	00 00 
    7eaa:	74 05                	je     7eb1 <_ZNSt6vectorISt4pairIiiESaIS1_EE17_M_realloc_insertIJS1_EEEvN9__gnu_cxx17__normal_iteratorIPS1_S3_EEDpOT_+0x1af>
    7eac:	e8 df 9c ff ff       	callq  1b90 <__stack_chk_fail@plt>
    7eb1:	48 83 c4 68          	add    $0x68,%rsp
    7eb5:	5b                   	pop    %rbx
    7eb6:	5d                   	pop    %rbp
    7eb7:	c3                   	retq   

0000000000007eb8 <_ZNSt6vectorISt4pairIiiESaIS1_EE4backEv>:
    7eb8:	55                   	push   %rbp
    7eb9:	48 89 e5             	mov    %rsp,%rbp
    7ebc:	48 83 ec 30          	sub    $0x30,%rsp
    7ec0:	48 89 7d d8          	mov    %rdi,-0x28(%rbp)
    7ec4:	64 48 8b 04 25 28 00 	mov    %fs:0x28,%rax
    7ecb:	00 00 
    7ecd:	48 89 45 f8          	mov    %rax,-0x8(%rbp)
    7ed1:	31 c0                	xor    %eax,%eax
    7ed3:	48 8b 45 d8          	mov    -0x28(%rbp),%rax
    7ed7:	48 89 c7             	mov    %rax,%rdi
    7eda:	e8 f7 cf ff ff       	callq  4ed6 <_ZNSt6vectorISt4pairIiiESaIS1_EE3endEv>
    7edf:	48 89 45 e8          	mov    %rax,-0x18(%rbp)
    7ee3:	48 8d 45 e8          	lea    -0x18(%rbp),%rax
    7ee7:	be 01 00 00 00       	mov    $0x1,%esi
    7eec:	48 89 c7             	mov    %rax,%rdi
    7eef:	e8 40 0b 00 00       	callq  8a34 <_ZNK9__gnu_cxx17__normal_iteratorIPSt4pairIiiESt6vectorIS2_SaIS2_EEEmiEl>
    7ef4:	48 89 45 f0          	mov    %rax,-0x10(%rbp)
    7ef8:	48 8d 45 f0          	lea    -0x10(%rbp),%rax
    7efc:	48 89 c7             	mov    %rax,%rdi
    7eff:	e8 7a d0 ff ff       	callq  4f7e <_ZNK9__gnu_cxx17__normal_iteratorIPSt4pairIiiESt6vectorIS2_SaIS2_EEEdeEv>
    7f04:	48 8b 55 f8          	mov    -0x8(%rbp),%rdx
    7f08:	64 48 33 14 25 28 00 	xor    %fs:0x28,%rdx
    7f0f:	00 00 
    7f11:	74 05                	je     7f18 <_ZNSt6vectorISt4pairIiiESaIS1_EE4backEv+0x60>
    7f13:	e8 78 9c ff ff       	callq  1b90 <__stack_chk_fail@plt>
    7f18:	c9                   	leaveq 
    7f19:	c3                   	retq   

0000000000007f1a <_ZSt7forwardIRKiEOT_RNSt16remove_referenceIS2_E4typeE>:
    7f1a:	55                   	push   %rbp
    7f1b:	48 89 e5             	mov    %rsp,%rbp
    7f1e:	48 89 7d f8          	mov    %rdi,-0x8(%rbp)
    7f22:	48 8b 45 f8          	mov    -0x8(%rbp),%rax
    7f26:	5d                   	pop    %rbp
    7f27:	c3                   	retq   

0000000000007f28 <_ZN9__gnu_cxx13new_allocatorIiE9constructIiJRKiEEEvPT_DpOT0_>:
    7f28:	55                   	push   %rbp
    7f29:	48 89 e5             	mov    %rsp,%rbp
    7f2c:	53                   	push   %rbx
    7f2d:	48 83 ec 28          	sub    $0x28,%rsp
    7f31:	48 89 7d e8          	mov    %rdi,-0x18(%rbp)
    7f35:	48 89 75 e0          	mov    %rsi,-0x20(%rbp)
    7f39:	48 89 55 d8          	mov    %rdx,-0x28(%rbp)
    7f3d:	48 8b 45 d8          	mov    -0x28(%rbp),%rax
    7f41:	48 89 c7             	mov    %rax,%rdi
    7f44:	e8 d1 ff ff ff       	callq  7f1a <_ZSt7forwardIRKiEOT_RNSt16remove_referenceIS2_E4typeE>
    7f49:	8b 18                	mov    (%rax),%ebx
    7f4b:	48 8b 45 e0          	mov    -0x20(%rbp),%rax
    7f4f:	48 89 c6             	mov    %rax,%rsi
    7f52:	bf 04 00 00 00       	mov    $0x4,%edi
    7f57:	e8 5d bf ff ff       	callq  3eb9 <_ZnwmPv>
    7f5c:	89 18                	mov    %ebx,(%rax)
    7f5e:	90                   	nop
    7f5f:	48 83 c4 28          	add    $0x28,%rsp
    7f63:	5b                   	pop    %rbx
    7f64:	5d                   	pop    %rbp
    7f65:	c3                   	retq   

0000000000007f66 <_ZNKSt6vectorIiSaIiEE12_M_check_lenEmPKc>:
    7f66:	55                   	push   %rbp
    7f67:	48 89 e5             	mov    %rsp,%rbp
    7f6a:	53                   	push   %rbx
    7f6b:	48 83 ec 48          	sub    $0x48,%rsp
    7f6f:	48 89 7d c8          	mov    %rdi,-0x38(%rbp)
    7f73:	48 89 75 c0          	mov    %rsi,-0x40(%rbp)
    7f77:	48 89 55 b8          	mov    %rdx,-0x48(%rbp)
    7f7b:	64 48 8b 04 25 28 00 	mov    %fs:0x28,%rax
    7f82:	00 00 
    7f84:	48 89 45 e8          	mov    %rax,-0x18(%rbp)
    7f88:	31 c0                	xor    %eax,%eax
    7f8a:	48 8b 45 c8          	mov    -0x38(%rbp),%rax
    7f8e:	48 89 c7             	mov    %rax,%rdi
    7f91:	e8 16 f1 ff ff       	callq  70ac <_ZNKSt6vectorIiSaIiEE8max_sizeEv>
    7f96:	48 89 c3             	mov    %rax,%rbx
    7f99:	48 8b 45 c8          	mov    -0x38(%rbp),%rax
    7f9d:	48 89 c7             	mov    %rax,%rdi
    7fa0:	e8 4d f1 ff ff       	callq  70f2 <_ZNKSt6vectorIiSaIiEE4sizeEv>
    7fa5:	48 29 c3             	sub    %rax,%rbx
    7fa8:	48 89 da             	mov    %rbx,%rdx
    7fab:	48 8b 45 c0          	mov    -0x40(%rbp),%rax
    7faf:	48 39 c2             	cmp    %rax,%rdx
    7fb2:	0f 92 c0             	setb   %al
    7fb5:	84 c0                	test   %al,%al
    7fb7:	74 0c                	je     7fc5 <_ZNKSt6vectorIiSaIiEE12_M_check_lenEmPKc+0x5f>
    7fb9:	48 8b 45 b8          	mov    -0x48(%rbp),%rax
    7fbd:	48 89 c7             	mov    %rax,%rdi
    7fc0:	e8 eb 9a ff ff       	callq  1ab0 <_ZSt20__throw_length_errorPKc@plt>
    7fc5:	48 8b 45 c8          	mov    -0x38(%rbp),%rax
    7fc9:	48 89 c7             	mov    %rax,%rdi
    7fcc:	e8 21 f1 ff ff       	callq  70f2 <_ZNKSt6vectorIiSaIiEE4sizeEv>
    7fd1:	48 89 c3             	mov    %rax,%rbx
    7fd4:	48 8b 45 c8          	mov    -0x38(%rbp),%rax
    7fd8:	48 89 c7             	mov    %rax,%rdi
    7fdb:	e8 12 f1 ff ff       	callq  70f2 <_ZNKSt6vectorIiSaIiEE4sizeEv>
    7fe0:	48 89 45 d8          	mov    %rax,-0x28(%rbp)
    7fe4:	48 8d 55 c0          	lea    -0x40(%rbp),%rdx
    7fe8:	48 8d 45 d8          	lea    -0x28(%rbp),%rax
    7fec:	48 89 d6             	mov    %rdx,%rsi
    7fef:	48 89 c7             	mov    %rax,%rdi
    7ff2:	e8 bc c9 ff ff       	callq  49b3 <_ZSt3maxImERKT_S2_S2_>
    7ff7:	48 8b 00             	mov    (%rax),%rax
    7ffa:	48 01 d8             	add    %rbx,%rax
    7ffd:	48 89 45 e0          	mov    %rax,-0x20(%rbp)
    8001:	48 8b 45 c8          	mov    -0x38(%rbp),%rax
    8005:	48 89 c7             	mov    %rax,%rdi
    8008:	e8 e5 f0 ff ff       	callq  70f2 <_ZNKSt6vectorIiSaIiEE4sizeEv>
    800d:	48 39 45 e0          	cmp    %rax,-0x20(%rbp)
    8011:	72 12                	jb     8025 <_ZNKSt6vectorIiSaIiEE12_M_check_lenEmPKc+0xbf>
    8013:	48 8b 45 c8          	mov    -0x38(%rbp),%rax
    8017:	48 89 c7             	mov    %rax,%rdi
    801a:	e8 8d f0 ff ff       	callq  70ac <_ZNKSt6vectorIiSaIiEE8max_sizeEv>
    801f:	48 39 45 e0          	cmp    %rax,-0x20(%rbp)
    8023:	76 0e                	jbe    8033 <_ZNKSt6vectorIiSaIiEE12_M_check_lenEmPKc+0xcd>
    8025:	48 8b 45 c8          	mov    -0x38(%rbp),%rax
    8029:	48 89 c7             	mov    %rax,%rdi
    802c:	e8 7b f0 ff ff       	callq  70ac <_ZNKSt6vectorIiSaIiEE8max_sizeEv>
    8031:	eb 04                	jmp    8037 <_ZNKSt6vectorIiSaIiEE12_M_check_lenEmPKc+0xd1>
    8033:	48 8b 45 e0          	mov    -0x20(%rbp),%rax
    8037:	48 8b 4d e8          	mov    -0x18(%rbp),%rcx
    803b:	64 48 33 0c 25 28 00 	xor    %fs:0x28,%rcx
    8042:	00 00 
    8044:	74 05                	je     804b <_ZNKSt6vectorIiSaIiEE12_M_check_lenEmPKc+0xe5>
    8046:	e8 45 9b ff ff       	callq  1b90 <__stack_chk_fail@plt>
    804b:	48 83 c4 48          	add    $0x48,%rsp
    804f:	5b                   	pop    %rbx
    8050:	5d                   	pop    %rbp
    8051:	c3                   	retq   

0000000000008052 <_ZN9__gnu_cxxmiIPiSt6vectorIiSaIiEEEENS_17__normal_iteratorIT_T0_E15difference_typeERKS8_SB_>:
    8052:	55                   	push   %rbp
    8053:	48 89 e5             	mov    %rsp,%rbp
    8056:	53                   	push   %rbx
    8057:	48 83 ec 18          	sub    $0x18,%rsp
    805b:	48 89 7d e8          	mov    %rdi,-0x18(%rbp)
    805f:	48 89 75 e0          	mov    %rsi,-0x20(%rbp)
    8063:	48 8b 45 e8          	mov    -0x18(%rbp),%rax
    8067:	48 89 c7             	mov    %rax,%rdi
    806a:	e8 49 e3 ff ff       	callq  63b8 <_ZNK9__gnu_cxx17__normal_iteratorIPiSt6vectorIiSaIiEEE4baseEv>
    806f:	48 8b 18             	mov    (%rax),%rbx
    8072:	48 8b 45 e0          	mov    -0x20(%rbp),%rax
    8076:	48 89 c7             	mov    %rax,%rdi
    8079:	e8 3a e3 ff ff       	callq  63b8 <_ZNK9__gnu_cxx17__normal_iteratorIPiSt6vectorIiSaIiEEE4baseEv>
    807e:	48 8b 00             	mov    (%rax),%rax
    8081:	48 29 c3             	sub    %rax,%rbx
    8084:	48 89 d8             	mov    %rbx,%rax
    8087:	48 c1 f8 02          	sar    $0x2,%rax
    808b:	48 83 c4 18          	add    $0x18,%rsp
    808f:	5b                   	pop    %rbx
    8090:	5d                   	pop    %rbp
    8091:	c3                   	retq   

0000000000008092 <_ZNSt6vectorISt4pairIiiESaIS1_EE11_S_max_sizeERKS2_>:
    8092:	55                   	push   %rbp
    8093:	48 89 e5             	mov    %rsp,%rbp
    8096:	48 83 ec 30          	sub    $0x30,%rsp
    809a:	48 89 7d d8          	mov    %rdi,-0x28(%rbp)
    809e:	64 48 8b 04 25 28 00 	mov    %fs:0x28,%rax
    80a5:	00 00 
    80a7:	48 89 45 f8          	mov    %rax,-0x8(%rbp)
    80ab:	31 c0                	xor    %eax,%eax
    80ad:	48 b8 ff ff ff ff ff 	movabs $0xfffffffffffffff,%rax
    80b4:	ff ff 0f 
    80b7:	48 89 45 e8          	mov    %rax,-0x18(%rbp)
    80bb:	48 8b 45 d8          	mov    -0x28(%rbp),%rax
    80bf:	48 89 c7             	mov    %rax,%rdi
    80c2:	e8 d2 09 00 00       	callq  8a99 <_ZNSt16allocator_traitsISaISt4pairIiiEEE8max_sizeERKS2_>
    80c7:	48 89 45 f0          	mov    %rax,-0x10(%rbp)
    80cb:	48 8d 55 f0          	lea    -0x10(%rbp),%rdx
    80cf:	48 8d 45 e8          	lea    -0x18(%rbp),%rax
    80d3:	48 89 d6             	mov    %rdx,%rsi
    80d6:	48 89 c7             	mov    %rax,%rdi
    80d9:	e8 cb be ff ff       	callq  3fa9 <_ZSt3minImERKT_S2_S2_>
    80de:	48 8b 00             	mov    (%rax),%rax
    80e1:	48 8b 4d f8          	mov    -0x8(%rbp),%rcx
    80e5:	64 48 33 0c 25 28 00 	xor    %fs:0x28,%rcx
    80ec:	00 00 
    80ee:	74 05                	je     80f5 <_ZNSt6vectorISt4pairIiiESaIS1_EE11_S_max_sizeERKS2_+0x63>
    80f0:	e8 9b 9a ff ff       	callq  1b90 <__stack_chk_fail@plt>
    80f5:	c9                   	leaveq 
    80f6:	c3                   	retq   
    80f7:	90                   	nop

00000000000080f8 <_ZNKSt12_Vector_baseISt4pairIiiESaIS1_EE19_M_get_Tp_allocatorEv>:
    80f8:	55                   	push   %rbp
    80f9:	48 89 e5             	mov    %rsp,%rbp
    80fc:	48 89 7d f8          	mov    %rdi,-0x8(%rbp)
    8100:	48 8b 45 f8          	mov    -0x8(%rbp),%rax
    8104:	5d                   	pop    %rbp
    8105:	c3                   	retq   

0000000000008106 <_ZNSt16allocator_traitsISaISt4pairIiiEEE8allocateERS2_m>:
    8106:	55                   	push   %rbp
    8107:	48 89 e5             	mov    %rsp,%rbp
    810a:	48 83 ec 10          	sub    $0x10,%rsp
    810e:	48 89 7d f8          	mov    %rdi,-0x8(%rbp)
    8112:	48 89 75 f0          	mov    %rsi,-0x10(%rbp)
    8116:	48 8b 4d f0          	mov    -0x10(%rbp),%rcx
    811a:	48 8b 45 f8          	mov    -0x8(%rbp),%rax
    811e:	ba 00 00 00 00       	mov    $0x0,%edx
    8123:	48 89 ce             	mov    %rcx,%rsi
    8126:	48 89 c7             	mov    %rax,%rdi
    8129:	e8 86 09 00 00       	callq  8ab4 <_ZN9__gnu_cxx13new_allocatorISt4pairIiiEE8allocateEmPKv>
    812e:	c9                   	leaveq 
    812f:	c3                   	retq   

0000000000008130 <_ZNSt6vectorISt4pairIiiESaIS1_EE14_S_do_relocateEPS1_S4_S4_RS2_St17integral_constantIbLb1EE>:
    8130:	55                   	push   %rbp
    8131:	48 89 e5             	mov    %rsp,%rbp
    8134:	48 83 ec 20          	sub    $0x20,%rsp
    8138:	48 89 7d f8          	mov    %rdi,-0x8(%rbp)
    813c:	48 89 75 f0          	mov    %rsi,-0x10(%rbp)
    8140:	48 89 55 e8          	mov    %rdx,-0x18(%rbp)
    8144:	48 89 4d e0          	mov    %rcx,-0x20(%rbp)
    8148:	48 8b 4d e0          	mov    -0x20(%rbp),%rcx
    814c:	48 8b 55 e8          	mov    -0x18(%rbp),%rdx
    8150:	48 8b 75 f0          	mov    -0x10(%rbp),%rsi
    8154:	48 8b 45 f8          	mov    -0x8(%rbp),%rax
    8158:	48 89 c7             	mov    %rax,%rdi
    815b:	e8 97 09 00 00       	callq  8af7 <_ZSt12__relocate_aIPSt4pairIiiES2_SaIS1_EET0_T_S5_S4_RT1_>
    8160:	c9                   	leaveq 
    8161:	c3                   	retq   

0000000000008162 <_ZNSt6vectorIiSaIiEE11_S_max_sizeERKS0_>:
    8162:	55                   	push   %rbp
    8163:	48 89 e5             	mov    %rsp,%rbp
    8166:	48 83 ec 30          	sub    $0x30,%rsp
    816a:	48 89 7d d8          	mov    %rdi,-0x28(%rbp)
    816e:	64 48 8b 04 25 28 00 	mov    %fs:0x28,%rax
    8175:	00 00 
    8177:	48 89 45 f8          	mov    %rax,-0x8(%rbp)
    817b:	31 c0                	xor    %eax,%eax
    817d:	48 b8 ff ff ff ff ff 	movabs $0x1fffffffffffffff,%rax
    8184:	ff ff 1f 
    8187:	48 89 45 e8          	mov    %rax,-0x18(%rbp)
    818b:	48 8b 45 d8          	mov    -0x28(%rbp),%rax
    818f:	48 89 c7             	mov    %rax,%rdi
    8192:	e8 c3 09 00 00       	callq  8b5a <_ZNSt16allocator_traitsISaIiEE8max_sizeERKS0_>
    8197:	48 89 45 f0          	mov    %rax,-0x10(%rbp)
    819b:	48 8d 55 f0          	lea    -0x10(%rbp),%rdx
    819f:	48 8d 45 e8          	lea    -0x18(%rbp),%rax
    81a3:	48 89 d6             	mov    %rdx,%rsi
    81a6:	48 89 c7             	mov    %rax,%rdi
    81a9:	e8 fb bd ff ff       	callq  3fa9 <_ZSt3minImERKT_S2_S2_>
    81ae:	48 8b 00             	mov    (%rax),%rax
    81b1:	48 8b 4d f8          	mov    -0x8(%rbp),%rcx
    81b5:	64 48 33 0c 25 28 00 	xor    %fs:0x28,%rcx
    81bc:	00 00 
    81be:	74 05                	je     81c5 <_ZNSt6vectorIiSaIiEE11_S_max_sizeERKS0_+0x63>
    81c0:	e8 cb 99 ff ff       	callq  1b90 <__stack_chk_fail@plt>
    81c5:	c9                   	leaveq 
    81c6:	c3                   	retq   
    81c7:	90                   	nop

00000000000081c8 <_ZNKSt12_Vector_baseIiSaIiEE19_M_get_Tp_allocatorEv>:
    81c8:	55                   	push   %rbp
    81c9:	48 89 e5             	mov    %rsp,%rbp
    81cc:	48 89 7d f8          	mov    %rdi,-0x8(%rbp)
    81d0:	48 8b 45 f8          	mov    -0x8(%rbp),%rax
    81d4:	5d                   	pop    %rbp
    81d5:	c3                   	retq   

00000000000081d6 <_ZNSt16allocator_traitsISaIiEE8allocateERS0_m>:
    81d6:	55                   	push   %rbp
    81d7:	48 89 e5             	mov    %rsp,%rbp
    81da:	48 83 ec 10          	sub    $0x10,%rsp
    81de:	48 89 7d f8          	mov    %rdi,-0x8(%rbp)
    81e2:	48 89 75 f0          	mov    %rsi,-0x10(%rbp)
    81e6:	48 8b 4d f0          	mov    -0x10(%rbp),%rcx
    81ea:	48 8b 45 f8          	mov    -0x8(%rbp),%rax
    81ee:	ba 00 00 00 00       	mov    $0x0,%edx
    81f3:	48 89 ce             	mov    %rcx,%rsi
    81f6:	48 89 c7             	mov    %rax,%rdi
    81f9:	e8 76 09 00 00       	callq  8b74 <_ZN9__gnu_cxx13new_allocatorIiE8allocateEmPKv>
    81fe:	c9                   	leaveq 
    81ff:	c3                   	retq   

0000000000008200 <_ZNSt6vectorIiSaIiEE14_S_do_relocateEPiS2_S2_RS0_St17integral_constantIbLb1EE>:
    8200:	55                   	push   %rbp
    8201:	48 89 e5             	mov    %rsp,%rbp
    8204:	48 83 ec 20          	sub    $0x20,%rsp
    8208:	48 89 7d f8          	mov    %rdi,-0x8(%rbp)
    820c:	48 89 75 f0          	mov    %rsi,-0x10(%rbp)
    8210:	48 89 55 e8          	mov    %rdx,-0x18(%rbp)
    8214:	48 89 4d e0          	mov    %rcx,-0x20(%rbp)
    8218:	48 8b 4d e0          	mov    -0x20(%rbp),%rcx
    821c:	48 8b 55 e8          	mov    -0x18(%rbp),%rdx
    8220:	48 8b 75 f0          	mov    -0x10(%rbp),%rsi
    8224:	48 8b 45 f8          	mov    -0x8(%rbp),%rax
    8228:	48 89 c7             	mov    %rax,%rdi
    822b:	e8 87 09 00 00       	callq  8bb7 <_ZSt12__relocate_aIPiS0_SaIiEET0_T_S3_S2_RT1_>
    8230:	c9                   	leaveq 
    8231:	c3                   	retq   

0000000000008232 <_ZN9__gnu_cxx17__normal_iteratorIPKSt4pairIiiESt6vectorIS2_SaIS2_EEEC1ERKS4_>:
    8232:	55                   	push   %rbp
    8233:	48 89 e5             	mov    %rsp,%rbp
    8236:	48 89 7d f8          	mov    %rdi,-0x8(%rbp)
    823a:	48 89 75 f0          	mov    %rsi,-0x10(%rbp)
    823e:	48 8b 45 f0          	mov    -0x10(%rbp),%rax
    8242:	48 8b 10             	mov    (%rax),%rdx
    8245:	48 8b 45 f8          	mov    -0x8(%rbp),%rax
    8249:	48 89 10             	mov    %rdx,(%rax)
    824c:	90                   	nop
    824d:	5d                   	pop    %rbp
    824e:	c3                   	retq   
    824f:	90                   	nop

0000000000008250 <_ZNK9__gnu_cxx17__normal_iteratorIPKSt4pairIiiESt6vectorIS2_SaIS2_EEE4baseEv>:
    8250:	55                   	push   %rbp
    8251:	48 89 e5             	mov    %rsp,%rbp
    8254:	48 89 7d f8          	mov    %rdi,-0x8(%rbp)
    8258:	48 8b 45 f8          	mov    -0x8(%rbp),%rax
    825c:	5d                   	pop    %rbp
    825d:	c3                   	retq   

000000000000825e <_ZSt4moveIN9__gnu_cxx17__normal_iteratorIPSt4pairIiiESt6vectorIS3_SaIS3_EEEES8_ET0_T_SA_S9_>:
    825e:	55                   	push   %rbp
    825f:	48 89 e5             	mov    %rsp,%rbp
    8262:	53                   	push   %rbx
    8263:	48 83 ec 28          	sub    $0x28,%rsp
    8267:	48 89 7d e8          	mov    %rdi,-0x18(%rbp)
    826b:	48 89 75 e0          	mov    %rsi,-0x20(%rbp)
    826f:	48 89 55 d8          	mov    %rdx,-0x28(%rbp)
    8273:	48 8b 45 e0          	mov    -0x20(%rbp),%rax
    8277:	48 89 c7             	mov    %rax,%rdi
    827a:	e8 9b 09 00 00       	callq  8c1a <_ZSt12__miter_baseIN9__gnu_cxx17__normal_iteratorIPSt4pairIiiESt6vectorIS3_SaIS3_EEEEET_S9_>
    827f:	48 89 c3             	mov    %rax,%rbx
    8282:	48 8b 45 e8          	mov    -0x18(%rbp),%rax
    8286:	48 89 c7             	mov    %rax,%rdi
    8289:	e8 8c 09 00 00       	callq  8c1a <_ZSt12__miter_baseIN9__gnu_cxx17__normal_iteratorIPSt4pairIiiESt6vectorIS3_SaIS3_EEEEET_S9_>
    828e:	48 89 c1             	mov    %rax,%rcx
    8291:	48 8b 45 d8          	mov    -0x28(%rbp),%rax
    8295:	48 89 c2             	mov    %rax,%rdx
    8298:	48 89 de             	mov    %rbx,%rsi
    829b:	48 89 cf             	mov    %rcx,%rdi
    829e:	e8 85 09 00 00       	callq  8c28 <_ZSt14__copy_move_a2ILb1EN9__gnu_cxx17__normal_iteratorIPSt4pairIiiESt6vectorIS3_SaIS3_EEEES8_ET1_T0_SA_S9_>
    82a3:	48 83 c4 28          	add    $0x28,%rsp
    82a7:	5b                   	pop    %rbx
    82a8:	5d                   	pop    %rbp
    82a9:	c3                   	retq   

00000000000082aa <_ZNSt6vectorISt4pairIiiESaIS1_EE15_M_erase_at_endEPS1_>:
    82aa:	55                   	push   %rbp
    82ab:	48 89 e5             	mov    %rsp,%rbp
    82ae:	48 83 ec 20          	sub    $0x20,%rsp
    82b2:	48 89 7d e8          	mov    %rdi,-0x18(%rbp)
    82b6:	48 89 75 e0          	mov    %rsi,-0x20(%rbp)
    82ba:	48 8b 45 e8          	mov    -0x18(%rbp),%rax
    82be:	48 8b 40 08          	mov    0x8(%rax),%rax
    82c2:	48 2b 45 e0          	sub    -0x20(%rbp),%rax
    82c6:	48 c1 f8 03          	sar    $0x3,%rax
    82ca:	48 89 45 f8          	mov    %rax,-0x8(%rbp)
    82ce:	48 83 7d f8 00       	cmpq   $0x0,-0x8(%rbp)
    82d3:	74 32                	je     8307 <_ZNSt6vectorISt4pairIiiESaIS1_EE15_M_erase_at_endEPS1_+0x5d>
    82d5:	48 8b 45 e8          	mov    -0x18(%rbp),%rax
    82d9:	48 89 c7             	mov    %rax,%rdi
    82dc:	e8 fd e6 ff ff       	callq  69de <_ZNSt12_Vector_baseISt4pairIiiESaIS1_EE19_M_get_Tp_allocatorEv>
    82e1:	48 89 c2             	mov    %rax,%rdx
    82e4:	48 8b 45 e8          	mov    -0x18(%rbp),%rax
    82e8:	48 8b 48 08          	mov    0x8(%rax),%rcx
    82ec:	48 8b 45 e0          	mov    -0x20(%rbp),%rax
    82f0:	48 89 ce             	mov    %rcx,%rsi
    82f3:	48 89 c7             	mov    %rax,%rdi
    82f6:	e8 f1 e6 ff ff       	callq  69ec <_ZSt8_DestroyIPSt4pairIiiES1_EvT_S3_RSaIT0_E>
    82fb:	48 8b 45 e8          	mov    -0x18(%rbp),%rax
    82ff:	48 8b 55 e0          	mov    -0x20(%rbp),%rdx
    8303:	48 89 50 08          	mov    %rdx,0x8(%rax)
    8307:	90                   	nop
    8308:	c9                   	leaveq 
    8309:	c3                   	retq   

000000000000830a <_ZN9__gnu_cxxmiIPSt4pairIiiESt6vectorIS2_SaIS2_EEEENS_17__normal_iteratorIT_T0_E15difference_typeERKSA_SD_>:
    830a:	55                   	push   %rbp
    830b:	48 89 e5             	mov    %rsp,%rbp
    830e:	53                   	push   %rbx
    830f:	48 83 ec 18          	sub    $0x18,%rsp
    8313:	48 89 7d e8          	mov    %rdi,-0x18(%rbp)
    8317:	48 89 75 e0          	mov    %rsi,-0x20(%rbp)
    831b:	48 8b 45 e8          	mov    -0x18(%rbp),%rax
    831f:	48 89 c7             	mov    %rax,%rdi
    8322:	e8 03 e2 ff ff       	callq  652a <_ZNK9__gnu_cxx17__normal_iteratorIPSt4pairIiiESt6vectorIS2_SaIS2_EEE4baseEv>
    8327:	48 8b 18             	mov    (%rax),%rbx
    832a:	48 8b 45 e0          	mov    -0x20(%rbp),%rax
    832e:	48 89 c7             	mov    %rax,%rdi
    8331:	e8 f4 e1 ff ff       	callq  652a <_ZNK9__gnu_cxx17__normal_iteratorIPSt4pairIiiESt6vectorIS2_SaIS2_EEE4baseEv>
    8336:	48 8b 00             	mov    (%rax),%rax
    8339:	48 29 c3             	sub    %rax,%rbx
    833c:	48 89 d8             	mov    %rbx,%rax
    833f:	48 c1 f8 03          	sar    $0x3,%rax
    8343:	48 83 c4 18          	add    $0x18,%rsp
    8347:	5b                   	pop    %rbx
    8348:	5d                   	pop    %rbp
    8349:	c3                   	retq   

000000000000834a <_ZNSt12_Vector_baseIiSaIiEE12_Vector_implC1ERKS0_>:
    834a:	55                   	push   %rbp
    834b:	48 89 e5             	mov    %rsp,%rbp
    834e:	48 83 ec 10          	sub    $0x10,%rsp
    8352:	48 89 7d f8          	mov    %rdi,-0x8(%rbp)
    8356:	48 89 75 f0          	mov    %rsi,-0x10(%rbp)
    835a:	48 8b 55 f0          	mov    -0x10(%rbp),%rdx
    835e:	48 8b 45 f8          	mov    -0x8(%rbp),%rax
    8362:	48 89 d6             	mov    %rdx,%rsi
    8365:	48 89 c7             	mov    %rax,%rdi
    8368:	e8 25 09 00 00       	callq  8c92 <_ZNSaIiEC1ERKS_>
    836d:	48 8b 45 f8          	mov    -0x8(%rbp),%rax
    8371:	48 89 c7             	mov    %rax,%rdi
    8374:	e8 9d e6 ff ff       	callq  6a16 <_ZNSt12_Vector_baseIiSaIiEE17_Vector_impl_dataC1Ev>
    8379:	90                   	nop
    837a:	c9                   	leaveq 
    837b:	c3                   	retq   

000000000000837c <_ZNKSt16initializer_listIiE4sizeEv>:
    837c:	55                   	push   %rbp
    837d:	48 89 e5             	mov    %rsp,%rbp
    8380:	48 89 7d f8          	mov    %rdi,-0x8(%rbp)
    8384:	48 8b 45 f8          	mov    -0x8(%rbp),%rax
    8388:	48 8b 40 08          	mov    0x8(%rax),%rax
    838c:	5d                   	pop    %rbp
    838d:	c3                   	retq   

000000000000838e <_ZSt19__iterator_categoryIPKiENSt15iterator_traitsIT_E17iterator_categoryERKS3_>:
    838e:	55                   	push   %rbp
    838f:	48 89 e5             	mov    %rsp,%rbp
    8392:	48 89 7d f8          	mov    %rdi,-0x8(%rbp)
    8396:	5d                   	pop    %rbp
    8397:	c3                   	retq   

0000000000008398 <_ZSt10__distanceIPKiENSt15iterator_traitsIT_E15difference_typeES3_S3_St26random_access_iterator_tag>:
    8398:	55                   	push   %rbp
    8399:	48 89 e5             	mov    %rsp,%rbp
    839c:	48 89 7d f8          	mov    %rdi,-0x8(%rbp)
    83a0:	48 89 75 f0          	mov    %rsi,-0x10(%rbp)
    83a4:	48 8b 45 f0          	mov    -0x10(%rbp),%rax
    83a8:	48 2b 45 f8          	sub    -0x8(%rbp),%rax
    83ac:	48 c1 f8 02          	sar    $0x2,%rax
    83b0:	5d                   	pop    %rbp
    83b1:	c3                   	retq   

00000000000083b2 <_ZNSt6vectorIiSaIiEE17_S_check_init_lenEmRKS0_>:
    83b2:	55                   	push   %rbp
    83b3:	48 89 e5             	mov    %rsp,%rbp
    83b6:	53                   	push   %rbx
    83b7:	48 83 ec 28          	sub    $0x28,%rsp
    83bb:	48 89 7d d8          	mov    %rdi,-0x28(%rbp)
    83bf:	48 89 75 d0          	mov    %rsi,-0x30(%rbp)
    83c3:	64 48 8b 04 25 28 00 	mov    %fs:0x28,%rax
    83ca:	00 00 
    83cc:	48 89 45 e8          	mov    %rax,-0x18(%rbp)
    83d0:	31 c0                	xor    %eax,%eax
    83d2:	48 8b 55 d0          	mov    -0x30(%rbp),%rdx
    83d6:	48 8d 45 e7          	lea    -0x19(%rbp),%rax
    83da:	48 89 d6             	mov    %rdx,%rsi
    83dd:	48 89 c7             	mov    %rax,%rdi
    83e0:	e8 ad 08 00 00       	callq  8c92 <_ZNSaIiEC1ERKS_>
    83e5:	48 8d 45 e7          	lea    -0x19(%rbp),%rax
    83e9:	48 89 c7             	mov    %rax,%rdi
    83ec:	e8 71 fd ff ff       	callq  8162 <_ZNSt6vectorIiSaIiEE11_S_max_sizeERKS0_>
    83f1:	48 39 45 d8          	cmp    %rax,-0x28(%rbp)
    83f5:	0f 97 c3             	seta   %bl
    83f8:	48 8d 45 e7          	lea    -0x19(%rbp),%rax
    83fc:	48 89 c7             	mov    %rax,%rdi
    83ff:	e8 ca d2 ff ff       	callq  56ce <_ZNSaIiED1Ev>
    8404:	84 db                	test   %bl,%bl
    8406:	74 0c                	je     8414 <_ZNSt6vectorIiSaIiEE17_S_check_init_lenEmRKS0_+0x62>
    8408:	48 8d 3d c9 18 00 00 	lea    0x18c9(%rip),%rdi        # 9cd8 <_ZN6__pstl9execution2v1L5unseqE+0xa9>
    840f:	e8 9c 96 ff ff       	callq  1ab0 <_ZSt20__throw_length_errorPKc@plt>
    8414:	48 8b 45 d8          	mov    -0x28(%rbp),%rax
    8418:	48 8b 4d e8          	mov    -0x18(%rbp),%rcx
    841c:	64 48 33 0c 25 28 00 	xor    %fs:0x28,%rcx
    8423:	00 00 
    8425:	74 05                	je     842c <_ZNSt6vectorIiSaIiEE17_S_check_init_lenEmRKS0_+0x7a>
    8427:	e8 64 97 ff ff       	callq  1b90 <__stack_chk_fail@plt>
    842c:	48 83 c4 28          	add    $0x28,%rsp
    8430:	5b                   	pop    %rbx
    8431:	5d                   	pop    %rbp
    8432:	c3                   	retq   

0000000000008433 <_ZSt22__uninitialized_copy_aIPKiPiiET0_T_S4_S3_RSaIT1_E>:
    8433:	55                   	push   %rbp
    8434:	48 89 e5             	mov    %rsp,%rbp
    8437:	48 83 ec 20          	sub    $0x20,%rsp
    843b:	48 89 7d f8          	mov    %rdi,-0x8(%rbp)
    843f:	48 89 75 f0          	mov    %rsi,-0x10(%rbp)
    8443:	48 89 55 e8          	mov    %rdx,-0x18(%rbp)
    8447:	48 89 4d e0          	mov    %rcx,-0x20(%rbp)
    844b:	48 8b 55 e8          	mov    -0x18(%rbp),%rdx
    844f:	48 8b 4d f0          	mov    -0x10(%rbp),%rcx
    8453:	48 8b 45 f8          	mov    -0x8(%rbp),%rax
    8457:	48 89 ce             	mov    %rcx,%rsi
    845a:	48 89 c7             	mov    %rax,%rdi
    845d:	e8 56 08 00 00       	callq  8cb8 <_ZSt18uninitialized_copyIPKiPiET0_T_S4_S3_>
    8462:	c9                   	leaveq 
    8463:	c3                   	retq   

0000000000008464 <_ZNSt12_Vector_baseImSaImEE12_Vector_implC1ERKS0_>:
    8464:	55                   	push   %rbp
    8465:	48 89 e5             	mov    %rsp,%rbp
    8468:	48 83 ec 10          	sub    $0x10,%rsp
    846c:	48 89 7d f8          	mov    %rdi,-0x8(%rbp)
    8470:	48 89 75 f0          	mov    %rsi,-0x10(%rbp)
    8474:	48 8b 55 f0          	mov    -0x10(%rbp),%rdx
    8478:	48 8b 45 f8          	mov    -0x8(%rbp),%rax
    847c:	48 89 d6             	mov    %rdx,%rsi
    847f:	48 89 c7             	mov    %rax,%rdi
    8482:	e8 63 08 00 00       	callq  8cea <_ZNSaImEC1ERKS_>
    8487:	48 8b 45 f8          	mov    -0x8(%rbp),%rax
    848b:	48 89 c7             	mov    %rax,%rdi
    848e:	e8 7d 08 00 00       	callq  8d10 <_ZNSt12_Vector_baseImSaImEE17_Vector_impl_dataC1Ev>
    8493:	90                   	nop
    8494:	c9                   	leaveq 
    8495:	c3                   	retq   

0000000000008496 <_ZNSt12_Vector_baseImSaImEE13_M_deallocateEPmm>:
    8496:	55                   	push   %rbp
    8497:	48 89 e5             	mov    %rsp,%rbp
    849a:	48 83 ec 20          	sub    $0x20,%rsp
    849e:	48 89 7d f8          	mov    %rdi,-0x8(%rbp)
    84a2:	48 89 75 f0          	mov    %rsi,-0x10(%rbp)
    84a6:	48 89 55 e8          	mov    %rdx,-0x18(%rbp)
    84aa:	48 83 7d f0 00       	cmpq   $0x0,-0x10(%rbp)
    84af:	74 17                	je     84c8 <_ZNSt12_Vector_baseImSaImEE13_M_deallocateEPmm+0x32>
    84b1:	48 8b 45 f8          	mov    -0x8(%rbp),%rax
    84b5:	48 8b 55 e8          	mov    -0x18(%rbp),%rdx
    84b9:	48 8b 4d f0          	mov    -0x10(%rbp),%rcx
    84bd:	48 89 ce             	mov    %rcx,%rsi
    84c0:	48 89 c7             	mov    %rax,%rdi
    84c3:	e8 76 08 00 00       	callq  8d3e <_ZNSt16allocator_traitsISaImEE10deallocateERS0_Pmm>
    84c8:	90                   	nop
    84c9:	c9                   	leaveq 
    84ca:	c3                   	retq   
    84cb:	90                   	nop

00000000000084cc <_ZNKSt16initializer_listImE4sizeEv>:
    84cc:	55                   	push   %rbp
    84cd:	48 89 e5             	mov    %rsp,%rbp
    84d0:	48 89 7d f8          	mov    %rdi,-0x8(%rbp)
    84d4:	48 8b 45 f8          	mov    -0x8(%rbp),%rax
    84d8:	48 8b 40 08          	mov    0x8(%rax),%rax
    84dc:	5d                   	pop    %rbp
    84dd:	c3                   	retq   

00000000000084de <_ZSt19__iterator_categoryIPKmENSt15iterator_traitsIT_E17iterator_categoryERKS3_>:
    84de:	55                   	push   %rbp
    84df:	48 89 e5             	mov    %rsp,%rbp
    84e2:	48 89 7d f8          	mov    %rdi,-0x8(%rbp)
    84e6:	5d                   	pop    %rbp
    84e7:	c3                   	retq   

00000000000084e8 <_ZSt10__distanceIPKmENSt15iterator_traitsIT_E15difference_typeES3_S3_St26random_access_iterator_tag>:
    84e8:	55                   	push   %rbp
    84e9:	48 89 e5             	mov    %rsp,%rbp
    84ec:	48 89 7d f8          	mov    %rdi,-0x8(%rbp)
    84f0:	48 89 75 f0          	mov    %rsi,-0x10(%rbp)
    84f4:	48 8b 45 f0          	mov    -0x10(%rbp),%rax
    84f8:	48 2b 45 f8          	sub    -0x8(%rbp),%rax
    84fc:	48 c1 f8 03          	sar    $0x3,%rax
    8500:	5d                   	pop    %rbp
    8501:	c3                   	retq   

0000000000008502 <_ZNSt6vectorImSaImEE17_S_check_init_lenEmRKS0_>:
    8502:	55                   	push   %rbp
    8503:	48 89 e5             	mov    %rsp,%rbp
    8506:	53                   	push   %rbx
    8507:	48 83 ec 28          	sub    $0x28,%rsp
    850b:	48 89 7d d8          	mov    %rdi,-0x28(%rbp)
    850f:	48 89 75 d0          	mov    %rsi,-0x30(%rbp)
    8513:	64 48 8b 04 25 28 00 	mov    %fs:0x28,%rax
    851a:	00 00 
    851c:	48 89 45 e8          	mov    %rax,-0x18(%rbp)
    8520:	31 c0                	xor    %eax,%eax
    8522:	48 8b 55 d0          	mov    -0x30(%rbp),%rdx
    8526:	48 8d 45 e7          	lea    -0x19(%rbp),%rax
    852a:	48 89 d6             	mov    %rdx,%rsi
    852d:	48 89 c7             	mov    %rax,%rdi
    8530:	e8 b5 07 00 00       	callq  8cea <_ZNSaImEC1ERKS_>
    8535:	48 8d 45 e7          	lea    -0x19(%rbp),%rax
    8539:	48 89 c7             	mov    %rax,%rdi
    853c:	e8 2b 08 00 00       	callq  8d6c <_ZNSt6vectorImSaImEE11_S_max_sizeERKS0_>
    8541:	48 39 45 d8          	cmp    %rax,-0x28(%rbp)
    8545:	0f 97 c3             	seta   %bl
    8548:	48 8d 45 e7          	lea    -0x19(%rbp),%rax
    854c:	48 89 c7             	mov    %rax,%rdi
    854f:	e8 c2 db ff ff       	callq  6116 <_ZNSaImED1Ev>
    8554:	84 db                	test   %bl,%bl
    8556:	74 0c                	je     8564 <_ZNSt6vectorImSaImEE17_S_check_init_lenEmRKS0_+0x62>
    8558:	48 8d 3d 79 17 00 00 	lea    0x1779(%rip),%rdi        # 9cd8 <_ZN6__pstl9execution2v1L5unseqE+0xa9>
    855f:	e8 4c 95 ff ff       	callq  1ab0 <_ZSt20__throw_length_errorPKc@plt>
    8564:	48 8b 45 d8          	mov    -0x28(%rbp),%rax
    8568:	48 8b 4d e8          	mov    -0x18(%rbp),%rcx
    856c:	64 48 33 0c 25 28 00 	xor    %fs:0x28,%rcx
    8573:	00 00 
    8575:	74 05                	je     857c <_ZNSt6vectorImSaImEE17_S_check_init_lenEmRKS0_+0x7a>
    8577:	e8 14 96 ff ff       	callq  1b90 <__stack_chk_fail@plt>
    857c:	48 83 c4 28          	add    $0x28,%rsp
    8580:	5b                   	pop    %rbx
    8581:	5d                   	pop    %rbp
    8582:	c3                   	retq   
    8583:	90                   	nop

0000000000008584 <_ZNSt12_Vector_baseImSaImEE11_M_allocateEm>:
    8584:	55                   	push   %rbp
    8585:	48 89 e5             	mov    %rsp,%rbp
    8588:	48 83 ec 10          	sub    $0x10,%rsp
    858c:	48 89 7d f8          	mov    %rdi,-0x8(%rbp)
    8590:	48 89 75 f0          	mov    %rsi,-0x10(%rbp)
    8594:	48 83 7d f0 00       	cmpq   $0x0,-0x10(%rbp)
    8599:	74 15                	je     85b0 <_ZNSt12_Vector_baseImSaImEE11_M_allocateEm+0x2c>
    859b:	48 8b 45 f8          	mov    -0x8(%rbp),%rax
    859f:	48 8b 55 f0          	mov    -0x10(%rbp),%rdx
    85a3:	48 89 d6             	mov    %rdx,%rsi
    85a6:	48 89 c7             	mov    %rax,%rdi
    85a9:	e8 23 08 00 00       	callq  8dd1 <_ZNSt16allocator_traitsISaImEE8allocateERS0_m>
    85ae:	eb 05                	jmp    85b5 <_ZNSt12_Vector_baseImSaImEE11_M_allocateEm+0x31>
    85b0:	b8 00 00 00 00       	mov    $0x0,%eax
    85b5:	c9                   	leaveq 
    85b6:	c3                   	retq   

00000000000085b7 <_ZSt22__uninitialized_copy_aIPKmPmmET0_T_S4_S3_RSaIT1_E>:
    85b7:	55                   	push   %rbp
    85b8:	48 89 e5             	mov    %rsp,%rbp
    85bb:	48 83 ec 20          	sub    $0x20,%rsp
    85bf:	48 89 7d f8          	mov    %rdi,-0x8(%rbp)
    85c3:	48 89 75 f0          	mov    %rsi,-0x10(%rbp)
    85c7:	48 89 55 e8          	mov    %rdx,-0x18(%rbp)
    85cb:	48 89 4d e0          	mov    %rcx,-0x20(%rbp)
    85cf:	48 8b 55 e8          	mov    -0x18(%rbp),%rdx
    85d3:	48 8b 4d f0          	mov    -0x10(%rbp),%rcx
    85d7:	48 8b 45 f8          	mov    -0x8(%rbp),%rax
    85db:	48 89 ce             	mov    %rcx,%rsi
    85de:	48 89 c7             	mov    %rax,%rdi
    85e1:	e8 15 08 00 00       	callq  8dfb <_ZSt18uninitialized_copyIPKmPmET0_T_S4_S3_>
    85e6:	c9                   	leaveq 
    85e7:	c3                   	retq   

00000000000085e8 <_ZSt8_DestroyIPmEvT_S1_>:
    85e8:	55                   	push   %rbp
    85e9:	48 89 e5             	mov    %rsp,%rbp
    85ec:	48 83 ec 10          	sub    $0x10,%rsp
    85f0:	48 89 7d f8          	mov    %rdi,-0x8(%rbp)
    85f4:	48 89 75 f0          	mov    %rsi,-0x10(%rbp)
    85f8:	48 8b 55 f0          	mov    -0x10(%rbp),%rdx
    85fc:	48 8b 45 f8          	mov    -0x8(%rbp),%rax
    8600:	48 89 d6             	mov    %rdx,%rsi
    8603:	48 89 c7             	mov    %rax,%rdi
    8606:	e8 21 08 00 00       	callq  8e2c <_ZNSt12_Destroy_auxILb1EE9__destroyIPmEEvT_S3_>
    860b:	90                   	nop
    860c:	c9                   	leaveq 
    860d:	c3                   	retq   

000000000000860e <_ZN8HashNodeIiiEC1Ev>:
    860e:	55                   	push   %rbp
    860f:	48 89 e5             	mov    %rsp,%rbp
    8612:	48 89 7d f8          	mov    %rdi,-0x8(%rbp)
    8616:	48 8b 45 f8          	mov    -0x8(%rbp),%rax
    861a:	48 c7 00 00 00 00 00 	movq   $0x0,(%rax)
    8621:	90                   	nop
    8622:	5d                   	pop    %rbp
    8623:	c3                   	retq   

0000000000008624 <_ZSt7forwardIRFPvS0_EEOT_RNSt16remove_referenceIS3_E4typeE>:
    8624:	55                   	push   %rbp
    8625:	48 89 e5             	mov    %rsp,%rbp
    8628:	48 89 7d f8          	mov    %rdi,-0x8(%rbp)
    862c:	48 8b 45 f8          	mov    -0x8(%rbp),%rax
    8630:	5d                   	pop    %rbp
    8631:	c3                   	retq   

0000000000008632 <_ZSt7forwardIP10arg_structIiiEEOT_RNSt16remove_referenceIS3_E4typeE>:
    8632:	55                   	push   %rbp
    8633:	48 89 e5             	mov    %rsp,%rbp
    8636:	48 89 7d f8          	mov    %rdi,-0x8(%rbp)
    863a:	48 8b 45 f8          	mov    -0x8(%rbp),%rax
    863e:	5d                   	pop    %rbp
    863f:	c3                   	retq   

0000000000008640 <_ZNSt5tupleIJPFPvS0_EP10arg_structIiiEEEC1IRS1_S5_Lb1EEEOT_OT0_>:
    8640:	55                   	push   %rbp
    8641:	48 89 e5             	mov    %rsp,%rbp
    8644:	41 54                	push   %r12
    8646:	53                   	push   %rbx
    8647:	48 83 ec 20          	sub    $0x20,%rsp
    864b:	48 89 7d e8          	mov    %rdi,-0x18(%rbp)
    864f:	48 89 75 e0          	mov    %rsi,-0x20(%rbp)
    8653:	48 89 55 d8          	mov    %rdx,-0x28(%rbp)
    8657:	48 8b 5d e8          	mov    -0x18(%rbp),%rbx
    865b:	48 8b 45 d8          	mov    -0x28(%rbp),%rax
    865f:	48 89 c7             	mov    %rax,%rdi
    8662:	e8 cb ff ff ff       	callq  8632 <_ZSt7forwardIP10arg_structIiiEEOT_RNSt16remove_referenceIS3_E4typeE>
    8667:	49 89 c4             	mov    %rax,%r12
    866a:	48 8b 45 e0          	mov    -0x20(%rbp),%rax
    866e:	48 89 c7             	mov    %rax,%rdi
    8671:	e8 ae ff ff ff       	callq  8624 <_ZSt7forwardIRFPvS0_EEOT_RNSt16remove_referenceIS3_E4typeE>
    8676:	4c 89 e2             	mov    %r12,%rdx
    8679:	48 89 c6             	mov    %rax,%rsi
    867c:	48 89 df             	mov    %rbx,%rdi
    867f:	e8 0a 00 00 00       	callq  868e <_ZNSt11_Tuple_implILm0EJPFPvS0_EP10arg_structIiiEEEC1IRS1_JS5_EvEEOT_DpOT0_>
    8684:	90                   	nop
    8685:	48 83 c4 20          	add    $0x20,%rsp
    8689:	5b                   	pop    %rbx
    868a:	41 5c                	pop    %r12
    868c:	5d                   	pop    %rbp
    868d:	c3                   	retq   

000000000000868e <_ZNSt11_Tuple_implILm0EJPFPvS0_EP10arg_structIiiEEEC1IRS1_JS5_EvEEOT_DpOT0_>:
    868e:	55                   	push   %rbp
    868f:	48 89 e5             	mov    %rsp,%rbp
    8692:	53                   	push   %rbx
    8693:	48 83 ec 38          	sub    $0x38,%rsp
    8697:	48 89 7d d8          	mov    %rdi,-0x28(%rbp)
    869b:	48 89 75 d0          	mov    %rsi,-0x30(%rbp)
    869f:	48 89 55 c8          	mov    %rdx,-0x38(%rbp)
    86a3:	64 48 8b 04 25 28 00 	mov    %fs:0x28,%rax
    86aa:	00 00 
    86ac:	48 89 45 e8          	mov    %rax,-0x18(%rbp)
    86b0:	31 c0                	xor    %eax,%eax
    86b2:	48 8b 5d d8          	mov    -0x28(%rbp),%rbx
    86b6:	48 8b 45 c8          	mov    -0x38(%rbp),%rax
    86ba:	48 89 c7             	mov    %rax,%rdi
    86bd:	e8 70 ff ff ff       	callq  8632 <_ZSt7forwardIP10arg_structIiiEEOT_RNSt16remove_referenceIS3_E4typeE>
    86c2:	48 89 c6             	mov    %rax,%rsi
    86c5:	48 89 df             	mov    %rbx,%rdi
    86c8:	e8 43 00 00 00       	callq  8710 <_ZNSt11_Tuple_implILm1EJP10arg_structIiiEEEC1IS2_EEOT_>
    86cd:	48 8b 45 d8          	mov    -0x28(%rbp),%rax
    86d1:	48 8d 58 08          	lea    0x8(%rax),%rbx
    86d5:	48 8b 45 d0          	mov    -0x30(%rbp),%rax
    86d9:	48 89 c7             	mov    %rax,%rdi
    86dc:	e8 43 ff ff ff       	callq  8624 <_ZSt7forwardIRFPvS0_EEOT_RNSt16remove_referenceIS3_E4typeE>
    86e1:	48 89 45 e0          	mov    %rax,-0x20(%rbp)
    86e5:	48 8d 45 e0          	lea    -0x20(%rbp),%rax
    86e9:	48 89 c6             	mov    %rax,%rsi
    86ec:	48 89 df             	mov    %rbx,%rdi
    86ef:	e8 48 07 00 00       	callq  8e3c <_ZNSt10_Head_baseILm0EPFPvS0_ELb0EEC1ERKS2_>
    86f4:	90                   	nop
    86f5:	48 8b 45 e8          	mov    -0x18(%rbp),%rax
    86f9:	64 48 33 04 25 28 00 	xor    %fs:0x28,%rax
    8700:	00 00 
    8702:	74 05                	je     8709 <_ZNSt11_Tuple_implILm0EJPFPvS0_EP10arg_structIiiEEEC1IRS1_JS5_EvEEOT_DpOT0_+0x7b>
    8704:	e8 87 94 ff ff       	callq  1b90 <__stack_chk_fail@plt>
    8709:	48 83 c4 38          	add    $0x38,%rsp
    870d:	5b                   	pop    %rbx
    870e:	5d                   	pop    %rbp
    870f:	c3                   	retq   

0000000000008710 <_ZNSt11_Tuple_implILm1EJP10arg_structIiiEEEC1IS2_EEOT_>:
    8710:	55                   	push   %rbp
    8711:	48 89 e5             	mov    %rsp,%rbp
    8714:	53                   	push   %rbx
    8715:	48 83 ec 18          	sub    $0x18,%rsp
    8719:	48 89 7d e8          	mov    %rdi,-0x18(%rbp)
    871d:	48 89 75 e0          	mov    %rsi,-0x20(%rbp)
    8721:	48 8b 5d e8          	mov    -0x18(%rbp),%rbx
    8725:	48 8b 45 e0          	mov    -0x20(%rbp),%rax
    8729:	48 89 c7             	mov    %rax,%rdi
    872c:	e8 01 ff ff ff       	callq  8632 <_ZSt7forwardIP10arg_structIiiEEOT_RNSt16remove_referenceIS3_E4typeE>
    8731:	48 89 c6             	mov    %rax,%rsi
    8734:	48 89 df             	mov    %rbx,%rdi
    8737:	e8 08 00 00 00       	callq  8744 <_ZNSt10_Head_baseILm1EP10arg_structIiiELb0EEC1IS2_EEOT_>
    873c:	90                   	nop
    873d:	48 83 c4 18          	add    $0x18,%rsp
    8741:	5b                   	pop    %rbx
    8742:	5d                   	pop    %rbp
    8743:	c3                   	retq   

0000000000008744 <_ZNSt10_Head_baseILm1EP10arg_structIiiELb0EEC1IS2_EEOT_>:
    8744:	55                   	push   %rbp
    8745:	48 89 e5             	mov    %rsp,%rbp
    8748:	48 83 ec 10          	sub    $0x10,%rsp
    874c:	48 89 7d f8          	mov    %rdi,-0x8(%rbp)
    8750:	48 89 75 f0          	mov    %rsi,-0x10(%rbp)
    8754:	48 8b 45 f0          	mov    -0x10(%rbp),%rax
    8758:	48 89 c7             	mov    %rax,%rdi
    875b:	e8 d2 fe ff ff       	callq  8632 <_ZSt7forwardIP10arg_structIiiEEOT_RNSt16remove_referenceIS3_E4typeE>
    8760:	48 8b 10             	mov    (%rax),%rdx
    8763:	48 8b 45 f8          	mov    -0x8(%rbp),%rax
    8767:	48 89 10             	mov    %rdx,(%rax)
    876a:	90                   	nop
    876b:	c9                   	leaveq 
    876c:	c3                   	retq   

000000000000876d <_ZNSt6thread14__make_invokerIRFPvS1_EJP10arg_structIiiEEEENS_8_InvokerISt5tupleIJNSt5decayIT_E4typeEDpNS9_IT0_E4typeEEEEEOSA_DpOSD_>:
    876d:	55                   	push   %rbp
    876e:	48 89 e5             	mov    %rsp,%rbp
    8771:	41 54                	push   %r12
    8773:	53                   	push   %rbx
    8774:	48 83 ec 20          	sub    $0x20,%rsp
    8778:	48 89 7d e8          	mov    %rdi,-0x18(%rbp)
    877c:	48 89 75 e0          	mov    %rsi,-0x20(%rbp)
    8780:	48 89 55 d8          	mov    %rdx,-0x28(%rbp)
    8784:	48 8b 5d e8          	mov    -0x18(%rbp),%rbx
    8788:	48 8b 45 e0          	mov    -0x20(%rbp),%rax
    878c:	48 89 c7             	mov    %rax,%rdi
    878f:	e8 90 fe ff ff       	callq  8624 <_ZSt7forwardIRFPvS0_EEOT_RNSt16remove_referenceIS3_E4typeE>
    8794:	49 89 c4             	mov    %rax,%r12
    8797:	48 8b 45 d8          	mov    -0x28(%rbp),%rax
    879b:	48 89 c7             	mov    %rax,%rdi
    879e:	e8 8f fe ff ff       	callq  8632 <_ZSt7forwardIP10arg_structIiiEEOT_RNSt16remove_referenceIS3_E4typeE>
    87a3:	48 89 c2             	mov    %rax,%rdx
    87a6:	4c 89 e6             	mov    %r12,%rsi
    87a9:	48 89 df             	mov    %rbx,%rdi
    87ac:	e8 8f fe ff ff       	callq  8640 <_ZNSt5tupleIJPFPvS0_EP10arg_structIiiEEEC1IRS1_S5_Lb1EEEOT_OT0_>
    87b1:	48 8b 45 e8          	mov    -0x18(%rbp),%rax
    87b5:	48 83 c4 20          	add    $0x20,%rsp
    87b9:	5b                   	pop    %rbx
    87ba:	41 5c                	pop    %r12
    87bc:	5d                   	pop    %rbp
    87bd:	c3                   	retq   

00000000000087be <_ZNSt6thread13_S_make_stateINS_8_InvokerISt5tupleIJPFPvS3_EP10arg_structIiiEEEEEEESt10unique_ptrINS_6_StateESt14default_deleteISC_EEOT_>:
    87be:	55                   	push   %rbp
    87bf:	48 89 e5             	mov    %rsp,%rbp
    87c2:	41 54                	push   %r12
    87c4:	53                   	push   %rbx
    87c5:	48 83 ec 10          	sub    $0x10,%rsp
    87c9:	48 89 7d e8          	mov    %rdi,-0x18(%rbp)
    87cd:	48 89 75 e0          	mov    %rsi,-0x20(%rbp)
    87d1:	48 8b 45 e0          	mov    -0x20(%rbp),%rax
    87d5:	48 89 c7             	mov    %rax,%rdi
    87d8:	e8 7c 06 00 00       	callq  8e59 <_ZSt7forwardINSt6thread8_InvokerISt5tupleIJPFPvS3_EP10arg_structIiiEEEEEEOT_RNSt16remove_referenceISB_E4typeE>
    87dd:	49 89 c4             	mov    %rax,%r12
    87e0:	bf 18 00 00 00       	mov    $0x18,%edi
    87e5:	e8 76 93 ff ff       	callq  1b60 <_Znwm@plt>
    87ea:	48 89 c3             	mov    %rax,%rbx
    87ed:	4c 89 e6             	mov    %r12,%rsi
    87f0:	48 89 df             	mov    %rbx,%rdi
    87f3:	e8 d6 06 00 00       	callq  8ece <_ZNSt6thread11_State_implINS_8_InvokerISt5tupleIJPFPvS3_EP10arg_structIiiEEEEEEC1EOSA_>
    87f8:	48 8b 45 e8          	mov    -0x18(%rbp),%rax
    87fc:	48 89 de             	mov    %rbx,%rsi
    87ff:	48 89 c7             	mov    %rax,%rdi
    8802:	e8 19 07 00 00       	callq  8f20 <_ZNSt10unique_ptrINSt6thread6_StateESt14default_deleteIS1_EEC1IS3_vEEPS1_>
    8807:	48 8b 45 e8          	mov    -0x18(%rbp),%rax
    880b:	48 83 c4 10          	add    $0x10,%rsp
    880f:	5b                   	pop    %rbx
    8810:	41 5c                	pop    %r12
    8812:	5d                   	pop    %rbp
    8813:	c3                   	retq   

0000000000008814 <_ZNSt10unique_ptrINSt6thread6_StateESt14default_deleteIS1_EED1Ev>:
    8814:	55                   	push   %rbp
    8815:	48 89 e5             	mov    %rsp,%rbp
    8818:	53                   	push   %rbx
    8819:	48 83 ec 28          	sub    $0x28,%rsp
    881d:	48 89 7d d8          	mov    %rdi,-0x28(%rbp)
    8821:	48 8b 45 d8          	mov    -0x28(%rbp),%rax
    8825:	48 89 c7             	mov    %rax,%rdi
    8828:	e8 19 07 00 00       	callq  8f46 <_ZNSt15__uniq_ptr_implINSt6thread6_StateESt14default_deleteIS1_EE6_M_ptrEv>
    882d:	48 89 45 e8          	mov    %rax,-0x18(%rbp)
    8831:	48 8b 45 e8          	mov    -0x18(%rbp),%rax
    8835:	48 8b 00             	mov    (%rax),%rax
    8838:	48 85 c0             	test   %rax,%rax
    883b:	74 29                	je     8866 <_ZNSt10unique_ptrINSt6thread6_StateESt14default_deleteIS1_EED1Ev+0x52>
    883d:	48 8b 45 d8          	mov    -0x28(%rbp),%rax
    8841:	48 89 c7             	mov    %rax,%rdi
    8844:	e8 17 07 00 00       	callq  8f60 <_ZNSt10unique_ptrINSt6thread6_StateESt14default_deleteIS1_EE11get_deleterEv>
    8849:	48 89 c3             	mov    %rax,%rbx
    884c:	48 8b 45 e8          	mov    -0x18(%rbp),%rax
    8850:	48 89 c7             	mov    %rax,%rdi
    8853:	e8 22 07 00 00       	callq  8f7a <_ZSt4moveIRPNSt6thread6_StateEEONSt16remove_referenceIT_E4typeEOS5_>
    8858:	48 8b 00             	mov    (%rax),%rax
    885b:	48 89 c6             	mov    %rax,%rsi
    885e:	48 89 df             	mov    %rbx,%rdi
    8861:	e8 22 07 00 00       	callq  8f88 <_ZNKSt14default_deleteINSt6thread6_StateEEclEPS1_>
    8866:	48 8b 45 e8          	mov    -0x18(%rbp),%rax
    886a:	48 c7 00 00 00 00 00 	movq   $0x0,(%rax)
    8871:	90                   	nop
    8872:	48 83 c4 28          	add    $0x28,%rsp
    8876:	5b                   	pop    %rbx
    8877:	5d                   	pop    %rbp
    8878:	c3                   	retq   
    8879:	90                   	nop

000000000000887a <_ZN9__gnu_cxx13new_allocatorISt4pairIiiEE10deallocateEPS2_m>:
    887a:	55                   	push   %rbp
    887b:	48 89 e5             	mov    %rsp,%rbp
    887e:	48 83 ec 20          	sub    $0x20,%rsp
    8882:	48 89 7d f8          	mov    %rdi,-0x8(%rbp)
    8886:	48 89 75 f0          	mov    %rsi,-0x10(%rbp)
    888a:	48 89 55 e8          	mov    %rdx,-0x18(%rbp)
    888e:	48 8b 45 f0          	mov    -0x10(%rbp),%rax
    8892:	48 89 c7             	mov    %rax,%rdi
    8895:	e8 a6 92 ff ff       	callq  1b40 <_ZdlPv@plt>
    889a:	c9                   	leaveq 
    889b:	c3                   	retq   

000000000000889c <_ZNSt12_Destroy_auxILb1EE9__destroyIPSt4pairIiiEEEvT_S5_>:
    889c:	55                   	push   %rbp
    889d:	48 89 e5             	mov    %rsp,%rbp
    88a0:	48 89 7d f8          	mov    %rdi,-0x8(%rbp)
    88a4:	48 89 75 f0          	mov    %rsi,-0x10(%rbp)
    88a8:	90                   	nop
    88a9:	5d                   	pop    %rbp
    88aa:	c3                   	retq   
    88ab:	90                   	nop

00000000000088ac <_ZN9__gnu_cxx13new_allocatorIiE10deallocateEPim>:
    88ac:	55                   	push   %rbp
    88ad:	48 89 e5             	mov    %rsp,%rbp
    88b0:	48 83 ec 20          	sub    $0x20,%rsp
    88b4:	48 89 7d f8          	mov    %rdi,-0x8(%rbp)
    88b8:	48 89 75 f0          	mov    %rsi,-0x10(%rbp)
    88bc:	48 89 55 e8          	mov    %rdx,-0x18(%rbp)
    88c0:	48 8b 45 f0          	mov    -0x10(%rbp),%rax
    88c4:	48 89 c7             	mov    %rax,%rdi
    88c7:	e8 74 92 ff ff       	callq  1b40 <_ZdlPv@plt>
    88cc:	c9                   	leaveq 
    88cd:	c3                   	retq   

00000000000088ce <_ZNSt12_Destroy_auxILb1EE9__destroyIPiEEvT_S3_>:
    88ce:	55                   	push   %rbp
    88cf:	48 89 e5             	mov    %rsp,%rbp
    88d2:	48 89 7d f8          	mov    %rdi,-0x8(%rbp)
    88d6:	48 89 75 f0          	mov    %rsi,-0x10(%rbp)
    88da:	90                   	nop
    88db:	5d                   	pop    %rbp
    88dc:	c3                   	retq   
    88dd:	90                   	nop

00000000000088de <_ZN9__gnu_cxx13new_allocatorISt4pairIiiEE9constructIS2_JS2_EEEvPT_DpOT0_>:
    88de:	55                   	push   %rbp
    88df:	48 89 e5             	mov    %rsp,%rbp
    88e2:	53                   	push   %rbx
    88e3:	48 83 ec 28          	sub    $0x28,%rsp
    88e7:	48 89 7d e8          	mov    %rdi,-0x18(%rbp)
    88eb:	48 89 75 e0          	mov    %rsi,-0x20(%rbp)
    88ef:	48 89 55 d8          	mov    %rdx,-0x28(%rbp)
    88f3:	48 8b 45 d8          	mov    -0x28(%rbp),%rax
    88f7:	48 89 c7             	mov    %rax,%rdi
    88fa:	e8 bb f3 ff ff       	callq  7cba <_ZSt7forwardISt4pairIiiEEOT_RNSt16remove_referenceIS2_E4typeE>
    88ff:	48 89 c3             	mov    %rax,%rbx
    8902:	48 8b 45 e0          	mov    -0x20(%rbp),%rax
    8906:	48 89 c6             	mov    %rax,%rsi
    8909:	bf 08 00 00 00       	mov    $0x8,%edi
    890e:	e8 a6 b5 ff ff       	callq  3eb9 <_ZnwmPv>
    8913:	48 8b 13             	mov    (%rbx),%rdx
    8916:	48 89 10             	mov    %rdx,(%rax)
    8919:	90                   	nop
    891a:	48 83 c4 28          	add    $0x28,%rsp
    891e:	5b                   	pop    %rbx
    891f:	5d                   	pop    %rbp
    8920:	c3                   	retq   
    8921:	90                   	nop

0000000000008922 <_ZNKSt6vectorISt4pairIiiESaIS1_EE12_M_check_lenEmPKc>:
    8922:	55                   	push   %rbp
    8923:	48 89 e5             	mov    %rsp,%rbp
    8926:	53                   	push   %rbx
    8927:	48 83 ec 48          	sub    $0x48,%rsp
    892b:	48 89 7d c8          	mov    %rdi,-0x38(%rbp)
    892f:	48 89 75 c0          	mov    %rsi,-0x40(%rbp)
    8933:	48 89 55 b8          	mov    %rdx,-0x48(%rbp)
    8937:	64 48 8b 04 25 28 00 	mov    %fs:0x28,%rax
    893e:	00 00 
    8940:	48 89 45 e8          	mov    %rax,-0x18(%rbp)
    8944:	31 c0                	xor    %eax,%eax
    8946:	48 8b 45 c8          	mov    -0x38(%rbp),%rax
    894a:	48 89 c7             	mov    %rax,%rdi
    894d:	e8 8c e6 ff ff       	callq  6fde <_ZNKSt6vectorISt4pairIiiESaIS1_EE8max_sizeEv>
    8952:	48 89 c3             	mov    %rax,%rbx
    8955:	48 8b 45 c8          	mov    -0x38(%rbp),%rax
    8959:	48 89 c7             	mov    %rax,%rdi
    895c:	e8 71 d3 ff ff       	callq  5cd2 <_ZNKSt6vectorISt4pairIiiESaIS1_EE4sizeEv>
    8961:	48 29 c3             	sub    %rax,%rbx
    8964:	48 89 da             	mov    %rbx,%rdx
    8967:	48 8b 45 c0          	mov    -0x40(%rbp),%rax
    896b:	48 39 c2             	cmp    %rax,%rdx
    896e:	0f 92 c0             	setb   %al
    8971:	84 c0                	test   %al,%al
    8973:	74 0c                	je     8981 <_ZNKSt6vectorISt4pairIiiESaIS1_EE12_M_check_lenEmPKc+0x5f>
    8975:	48 8b 45 b8          	mov    -0x48(%rbp),%rax
    8979:	48 89 c7             	mov    %rax,%rdi
    897c:	e8 2f 91 ff ff       	callq  1ab0 <_ZSt20__throw_length_errorPKc@plt>
    8981:	48 8b 45 c8          	mov    -0x38(%rbp),%rax
    8985:	48 89 c7             	mov    %rax,%rdi
    8988:	e8 45 d3 ff ff       	callq  5cd2 <_ZNKSt6vectorISt4pairIiiESaIS1_EE4sizeEv>
    898d:	48 89 c3             	mov    %rax,%rbx
    8990:	48 8b 45 c8          	mov    -0x38(%rbp),%rax
    8994:	48 89 c7             	mov    %rax,%rdi
    8997:	e8 36 d3 ff ff       	callq  5cd2 <_ZNKSt6vectorISt4pairIiiESaIS1_EE4sizeEv>
    899c:	48 89 45 d8          	mov    %rax,-0x28(%rbp)
    89a0:	48 8d 55 c0          	lea    -0x40(%rbp),%rdx
    89a4:	48 8d 45 d8          	lea    -0x28(%rbp),%rax
    89a8:	48 89 d6             	mov    %rdx,%rsi
    89ab:	48 89 c7             	mov    %rax,%rdi
    89ae:	e8 00 c0 ff ff       	callq  49b3 <_ZSt3maxImERKT_S2_S2_>
    89b3:	48 8b 00             	mov    (%rax),%rax
    89b6:	48 01 d8             	add    %rbx,%rax
    89b9:	48 89 45 e0          	mov    %rax,-0x20(%rbp)
    89bd:	48 8b 45 c8          	mov    -0x38(%rbp),%rax
    89c1:	48 89 c7             	mov    %rax,%rdi
    89c4:	e8 09 d3 ff ff       	callq  5cd2 <_ZNKSt6vectorISt4pairIiiESaIS1_EE4sizeEv>
    89c9:	48 39 45 e0          	cmp    %rax,-0x20(%rbp)
    89cd:	72 12                	jb     89e1 <_ZNKSt6vectorISt4pairIiiESaIS1_EE12_M_check_lenEmPKc+0xbf>
    89cf:	48 8b 45 c8          	mov    -0x38(%rbp),%rax
    89d3:	48 89 c7             	mov    %rax,%rdi
    89d6:	e8 03 e6 ff ff       	callq  6fde <_ZNKSt6vectorISt4pairIiiESaIS1_EE8max_sizeEv>
    89db:	48 39 45 e0          	cmp    %rax,-0x20(%rbp)
    89df:	76 0e                	jbe    89ef <_ZNKSt6vectorISt4pairIiiESaIS1_EE12_M_check_lenEmPKc+0xcd>
    89e1:	48 8b 45 c8          	mov    -0x38(%rbp),%rax
    89e5:	48 89 c7             	mov    %rax,%rdi
    89e8:	e8 f1 e5 ff ff       	callq  6fde <_ZNKSt6vectorISt4pairIiiESaIS1_EE8max_sizeEv>
    89ed:	eb 04                	jmp    89f3 <_ZNKSt6vectorISt4pairIiiESaIS1_EE12_M_check_lenEmPKc+0xd1>
    89ef:	48 8b 45 e0          	mov    -0x20(%rbp),%rax
    89f3:	48 8b 4d e8          	mov    -0x18(%rbp),%rcx
    89f7:	64 48 33 0c 25 28 00 	xor    %fs:0x28,%rcx
    89fe:	00 00 
    8a00:	74 05                	je     8a07 <_ZNKSt6vectorISt4pairIiiESaIS1_EE12_M_check_lenEmPKc+0xe5>
    8a02:	e8 89 91 ff ff       	callq  1b90 <__stack_chk_fail@plt>
    8a07:	48 83 c4 48          	add    $0x48,%rsp
    8a0b:	5b                   	pop    %rbx
    8a0c:	5d                   	pop    %rbp
    8a0d:	c3                   	retq   

0000000000008a0e <_ZNSt16allocator_traitsISaISt4pairIiiEEE7destroyIS1_EEvRS2_PT_>:
    8a0e:	55                   	push   %rbp
    8a0f:	48 89 e5             	mov    %rsp,%rbp
    8a12:	48 83 ec 10          	sub    $0x10,%rsp
    8a16:	48 89 7d f8          	mov    %rdi,-0x8(%rbp)
    8a1a:	48 89 75 f0          	mov    %rsi,-0x10(%rbp)
    8a1e:	48 8b 55 f0          	mov    -0x10(%rbp),%rdx
    8a22:	48 8b 45 f8          	mov    -0x8(%rbp),%rax
    8a26:	48 89 d6             	mov    %rdx,%rsi
    8a29:	48 89 c7             	mov    %rax,%rdi
    8a2c:	e8 83 05 00 00       	callq  8fb4 <_ZN9__gnu_cxx13new_allocatorISt4pairIiiEE7destroyIS2_EEvPT_>
    8a31:	90                   	nop
    8a32:	c9                   	leaveq 
    8a33:	c3                   	retq   

0000000000008a34 <_ZNK9__gnu_cxx17__normal_iteratorIPSt4pairIiiESt6vectorIS2_SaIS2_EEEmiEl>:
    8a34:	55                   	push   %rbp
    8a35:	48 89 e5             	mov    %rsp,%rbp
    8a38:	48 83 ec 30          	sub    $0x30,%rsp
    8a3c:	48 89 7d d8          	mov    %rdi,-0x28(%rbp)
    8a40:	48 89 75 d0          	mov    %rsi,-0x30(%rbp)
    8a44:	64 48 8b 04 25 28 00 	mov    %fs:0x28,%rax
    8a4b:	00 00 
    8a4d:	48 89 45 f8          	mov    %rax,-0x8(%rbp)
    8a51:	31 c0                	xor    %eax,%eax
    8a53:	48 8b 45 d8          	mov    -0x28(%rbp),%rax
    8a57:	48 8b 00             	mov    (%rax),%rax
    8a5a:	48 8b 55 d0          	mov    -0x30(%rbp),%rdx
    8a5e:	48 c1 e2 03          	shl    $0x3,%rdx
    8a62:	48 f7 da             	neg    %rdx
    8a65:	48 01 d0             	add    %rdx,%rax
    8a68:	48 89 45 e8          	mov    %rax,-0x18(%rbp)
    8a6c:	48 8d 55 e8          	lea    -0x18(%rbp),%rdx
    8a70:	48 8d 45 f0          	lea    -0x10(%rbp),%rax
    8a74:	48 89 d6             	mov    %rdx,%rsi
    8a77:	48 89 c7             	mov    %rax,%rdi
    8a7a:	e8 8d da ff ff       	callq  650c <_ZN9__gnu_cxx17__normal_iteratorIPSt4pairIiiESt6vectorIS2_SaIS2_EEEC1ERKS3_>
    8a7f:	48 8b 45 f0          	mov    -0x10(%rbp),%rax
    8a83:	48 8b 4d f8          	mov    -0x8(%rbp),%rcx
    8a87:	64 48 33 0c 25 28 00 	xor    %fs:0x28,%rcx
    8a8e:	00 00 
    8a90:	74 05                	je     8a97 <_ZNK9__gnu_cxx17__normal_iteratorIPSt4pairIiiESt6vectorIS2_SaIS2_EEEmiEl+0x63>
    8a92:	e8 f9 90 ff ff       	callq  1b90 <__stack_chk_fail@plt>
    8a97:	c9                   	leaveq 
    8a98:	c3                   	retq   

0000000000008a99 <_ZNSt16allocator_traitsISaISt4pairIiiEEE8max_sizeERKS2_>:
    8a99:	55                   	push   %rbp
    8a9a:	48 89 e5             	mov    %rsp,%rbp
    8a9d:	48 83 ec 10          	sub    $0x10,%rsp
    8aa1:	48 89 7d f8          	mov    %rdi,-0x8(%rbp)
    8aa5:	48 8b 45 f8          	mov    -0x8(%rbp),%rax
    8aa9:	48 89 c7             	mov    %rax,%rdi
    8aac:	e8 13 05 00 00       	callq  8fc4 <_ZNK9__gnu_cxx13new_allocatorISt4pairIiiEE8max_sizeEv>
    8ab1:	c9                   	leaveq 
    8ab2:	c3                   	retq   
    8ab3:	90                   	nop

0000000000008ab4 <_ZN9__gnu_cxx13new_allocatorISt4pairIiiEE8allocateEmPKv>:
    8ab4:	55                   	push   %rbp
    8ab5:	48 89 e5             	mov    %rsp,%rbp
    8ab8:	48 83 ec 20          	sub    $0x20,%rsp
    8abc:	48 89 7d f8          	mov    %rdi,-0x8(%rbp)
    8ac0:	48 89 75 f0          	mov    %rsi,-0x10(%rbp)
    8ac4:	48 89 55 e8          	mov    %rdx,-0x18(%rbp)
    8ac8:	48 8b 45 f8          	mov    -0x8(%rbp),%rax
    8acc:	48 89 c7             	mov    %rax,%rdi
    8acf:	e8 f0 04 00 00       	callq  8fc4 <_ZNK9__gnu_cxx13new_allocatorISt4pairIiiEE8max_sizeEv>
    8ad4:	48 39 45 f0          	cmp    %rax,-0x10(%rbp)
    8ad8:	0f 97 c0             	seta   %al
    8adb:	84 c0                	test   %al,%al
    8add:	74 05                	je     8ae4 <_ZN9__gnu_cxx13new_allocatorISt4pairIiiEE8allocateEmPKv+0x30>
    8adf:	e8 6c 8f ff ff       	callq  1a50 <_ZSt17__throw_bad_allocv@plt>
    8ae4:	48 8b 45 f0          	mov    -0x10(%rbp),%rax
    8ae8:	48 c1 e0 03          	shl    $0x3,%rax
    8aec:	48 89 c7             	mov    %rax,%rdi
    8aef:	e8 6c 90 ff ff       	callq  1b60 <_Znwm@plt>
    8af4:	90                   	nop
    8af5:	c9                   	leaveq 
    8af6:	c3                   	retq   

0000000000008af7 <_ZSt12__relocate_aIPSt4pairIiiES2_SaIS1_EET0_T_S5_S4_RT1_>:
    8af7:	55                   	push   %rbp
    8af8:	48 89 e5             	mov    %rsp,%rbp
    8afb:	41 54                	push   %r12
    8afd:	53                   	push   %rbx
    8afe:	48 83 ec 20          	sub    $0x20,%rsp
    8b02:	48 89 7d e8          	mov    %rdi,-0x18(%rbp)
    8b06:	48 89 75 e0          	mov    %rsi,-0x20(%rbp)
    8b0a:	48 89 55 d8          	mov    %rdx,-0x28(%rbp)
    8b0e:	48 89 4d d0          	mov    %rcx,-0x30(%rbp)
    8b12:	48 8b 45 d8          	mov    -0x28(%rbp),%rax
    8b16:	48 89 c7             	mov    %rax,%rdi
    8b19:	e8 ba 04 00 00       	callq  8fd8 <_ZSt12__niter_baseIPSt4pairIiiEET_S3_>
    8b1e:	49 89 c4             	mov    %rax,%r12
    8b21:	48 8b 45 e0          	mov    -0x20(%rbp),%rax
    8b25:	48 89 c7             	mov    %rax,%rdi
    8b28:	e8 ab 04 00 00       	callq  8fd8 <_ZSt12__niter_baseIPSt4pairIiiEET_S3_>
    8b2d:	48 89 c3             	mov    %rax,%rbx
    8b30:	48 8b 45 e8          	mov    -0x18(%rbp),%rax
    8b34:	48 89 c7             	mov    %rax,%rdi
    8b37:	e8 9c 04 00 00       	callq  8fd8 <_ZSt12__niter_baseIPSt4pairIiiEET_S3_>
    8b3c:	48 89 c7             	mov    %rax,%rdi
    8b3f:	48 8b 45 d0          	mov    -0x30(%rbp),%rax
    8b43:	48 89 c1             	mov    %rax,%rcx
    8b46:	4c 89 e2             	mov    %r12,%rdx
    8b49:	48 89 de             	mov    %rbx,%rsi
    8b4c:	e8 95 04 00 00       	callq  8fe6 <_ZSt14__relocate_a_1IPSt4pairIiiES2_SaIS1_EET0_T_S5_S4_RT1_>
    8b51:	48 83 c4 20          	add    $0x20,%rsp
    8b55:	5b                   	pop    %rbx
    8b56:	41 5c                	pop    %r12
    8b58:	5d                   	pop    %rbp
    8b59:	c3                   	retq   

0000000000008b5a <_ZNSt16allocator_traitsISaIiEE8max_sizeERKS0_>:
    8b5a:	55                   	push   %rbp
    8b5b:	48 89 e5             	mov    %rsp,%rbp
    8b5e:	48 83 ec 10          	sub    $0x10,%rsp
    8b62:	48 89 7d f8          	mov    %rdi,-0x8(%rbp)
    8b66:	48 8b 45 f8          	mov    -0x8(%rbp),%rax
    8b6a:	48 89 c7             	mov    %rax,%rdi
    8b6d:	e8 e6 04 00 00       	callq  9058 <_ZNK9__gnu_cxx13new_allocatorIiE8max_sizeEv>
    8b72:	c9                   	leaveq 
    8b73:	c3                   	retq   

0000000000008b74 <_ZN9__gnu_cxx13new_allocatorIiE8allocateEmPKv>:
    8b74:	55                   	push   %rbp
    8b75:	48 89 e5             	mov    %rsp,%rbp
    8b78:	48 83 ec 20          	sub    $0x20,%rsp
    8b7c:	48 89 7d f8          	mov    %rdi,-0x8(%rbp)
    8b80:	48 89 75 f0          	mov    %rsi,-0x10(%rbp)
    8b84:	48 89 55 e8          	mov    %rdx,-0x18(%rbp)
    8b88:	48 8b 45 f8          	mov    -0x8(%rbp),%rax
    8b8c:	48 89 c7             	mov    %rax,%rdi
    8b8f:	e8 c4 04 00 00       	callq  9058 <_ZNK9__gnu_cxx13new_allocatorIiE8max_sizeEv>
    8b94:	48 39 45 f0          	cmp    %rax,-0x10(%rbp)
    8b98:	0f 97 c0             	seta   %al
    8b9b:	84 c0                	test   %al,%al
    8b9d:	74 05                	je     8ba4 <_ZN9__gnu_cxx13new_allocatorIiE8allocateEmPKv+0x30>
    8b9f:	e8 ac 8e ff ff       	callq  1a50 <_ZSt17__throw_bad_allocv@plt>
    8ba4:	48 8b 45 f0          	mov    -0x10(%rbp),%rax
    8ba8:	48 c1 e0 02          	shl    $0x2,%rax
    8bac:	48 89 c7             	mov    %rax,%rdi
    8baf:	e8 ac 8f ff ff       	callq  1b60 <_Znwm@plt>
    8bb4:	90                   	nop
    8bb5:	c9                   	leaveq 
    8bb6:	c3                   	retq   

0000000000008bb7 <_ZSt12__relocate_aIPiS0_SaIiEET0_T_S3_S2_RT1_>:
    8bb7:	55                   	push   %rbp
    8bb8:	48 89 e5             	mov    %rsp,%rbp
    8bbb:	41 54                	push   %r12
    8bbd:	53                   	push   %rbx
    8bbe:	48 83 ec 20          	sub    $0x20,%rsp
    8bc2:	48 89 7d e8          	mov    %rdi,-0x18(%rbp)
    8bc6:	48 89 75 e0          	mov    %rsi,-0x20(%rbp)
    8bca:	48 89 55 d8          	mov    %rdx,-0x28(%rbp)
    8bce:	48 89 4d d0          	mov    %rcx,-0x30(%rbp)
    8bd2:	48 8b 45 d8          	mov    -0x28(%rbp),%rax
    8bd6:	48 89 c7             	mov    %rax,%rdi
    8bd9:	e8 8e 04 00 00       	callq  906c <_ZSt12__niter_baseIPiET_S1_>
    8bde:	49 89 c4             	mov    %rax,%r12
    8be1:	48 8b 45 e0          	mov    -0x20(%rbp),%rax
    8be5:	48 89 c7             	mov    %rax,%rdi
    8be8:	e8 7f 04 00 00       	callq  906c <_ZSt12__niter_baseIPiET_S1_>
    8bed:	48 89 c3             	mov    %rax,%rbx
    8bf0:	48 8b 45 e8          	mov    -0x18(%rbp),%rax
    8bf4:	48 89 c7             	mov    %rax,%rdi
    8bf7:	e8 70 04 00 00       	callq  906c <_ZSt12__niter_baseIPiET_S1_>
    8bfc:	48 89 c7             	mov    %rax,%rdi
    8bff:	48 8b 45 d0          	mov    -0x30(%rbp),%rax
    8c03:	48 89 c1             	mov    %rax,%rcx
    8c06:	4c 89 e2             	mov    %r12,%rdx
    8c09:	48 89 de             	mov    %rbx,%rsi
    8c0c:	e8 69 04 00 00       	callq  907a <_ZSt14__relocate_a_1IiiENSt9enable_ifIXsrSt24__is_bitwise_relocatableIT_vE5valueEPS2_E4typeES4_S4_S4_RSaIT0_E>
    8c11:	48 83 c4 20          	add    $0x20,%rsp
    8c15:	5b                   	pop    %rbx
    8c16:	41 5c                	pop    %r12
    8c18:	5d                   	pop    %rbp
    8c19:	c3                   	retq   

0000000000008c1a <_ZSt12__miter_baseIN9__gnu_cxx17__normal_iteratorIPSt4pairIiiESt6vectorIS3_SaIS3_EEEEET_S9_>:
    8c1a:	55                   	push   %rbp
    8c1b:	48 89 e5             	mov    %rsp,%rbp
    8c1e:	48 89 7d f8          	mov    %rdi,-0x8(%rbp)
    8c22:	48 8b 45 f8          	mov    -0x8(%rbp),%rax
    8c26:	5d                   	pop    %rbp
    8c27:	c3                   	retq   

0000000000008c28 <_ZSt14__copy_move_a2ILb1EN9__gnu_cxx17__normal_iteratorIPSt4pairIiiESt6vectorIS3_SaIS3_EEEES8_ET1_T0_SA_S9_>:
    8c28:	55                   	push   %rbp
    8c29:	48 89 e5             	mov    %rsp,%rbp
    8c2c:	41 54                	push   %r12
    8c2e:	53                   	push   %rbx
    8c2f:	48 83 ec 20          	sub    $0x20,%rsp
    8c33:	48 89 7d e8          	mov    %rdi,-0x18(%rbp)
    8c37:	48 89 75 e0          	mov    %rsi,-0x20(%rbp)
    8c3b:	48 89 55 d8          	mov    %rdx,-0x28(%rbp)
    8c3f:	48 8b 45 d8          	mov    -0x28(%rbp),%rax
    8c43:	48 89 c7             	mov    %rax,%rdi
    8c46:	e8 92 04 00 00       	callq  90dd <_ZSt12__niter_baseIPSt4pairIiiESt6vectorIS1_SaIS1_EEET_N9__gnu_cxx17__normal_iteratorIS6_T0_EE>
    8c4b:	49 89 c4             	mov    %rax,%r12
    8c4e:	48 8b 45 e0          	mov    -0x20(%rbp),%rax
    8c52:	48 89 c7             	mov    %rax,%rdi
    8c55:	e8 83 04 00 00       	callq  90dd <_ZSt12__niter_baseIPSt4pairIiiESt6vectorIS1_SaIS1_EEET_N9__gnu_cxx17__normal_iteratorIS6_T0_EE>
    8c5a:	48 89 c3             	mov    %rax,%rbx
    8c5d:	48 8b 45 e8          	mov    -0x18(%rbp),%rax
    8c61:	48 89 c7             	mov    %rax,%rdi
    8c64:	e8 74 04 00 00       	callq  90dd <_ZSt12__niter_baseIPSt4pairIiiESt6vectorIS1_SaIS1_EEET_N9__gnu_cxx17__normal_iteratorIS6_T0_EE>
    8c69:	4c 89 e2             	mov    %r12,%rdx
    8c6c:	48 89 de             	mov    %rbx,%rsi
    8c6f:	48 89 c7             	mov    %rax,%rdi
    8c72:	e8 83 04 00 00       	callq  90fa <_ZSt13__copy_move_aILb1EPSt4pairIiiES2_ET1_T0_S4_S3_>
    8c77:	48 89 c2             	mov    %rax,%rdx
    8c7a:	48 8b 45 d8          	mov    -0x28(%rbp),%rax
    8c7e:	48 89 d6             	mov    %rdx,%rsi
    8c81:	48 89 c7             	mov    %rax,%rdi
    8c84:	e8 a2 04 00 00       	callq  912b <_ZSt12__niter_wrapIN9__gnu_cxx17__normal_iteratorIPSt4pairIiiESt6vectorIS3_SaIS3_EEEES4_ET_S9_T0_>
    8c89:	48 83 c4 20          	add    $0x20,%rsp
    8c8d:	5b                   	pop    %rbx
    8c8e:	41 5c                	pop    %r12
    8c90:	5d                   	pop    %rbp
    8c91:	c3                   	retq   

0000000000008c92 <_ZNSaIiEC1ERKS_>:
    8c92:	55                   	push   %rbp
    8c93:	48 89 e5             	mov    %rsp,%rbp
    8c96:	48 83 ec 10          	sub    $0x10,%rsp
    8c9a:	48 89 7d f8          	mov    %rdi,-0x8(%rbp)
    8c9e:	48 89 75 f0          	mov    %rsi,-0x10(%rbp)
    8ca2:	48 8b 55 f0          	mov    -0x10(%rbp),%rdx
    8ca6:	48 8b 45 f8          	mov    -0x8(%rbp),%rax
    8caa:	48 89 d6             	mov    %rdx,%rsi
    8cad:	48 89 c7             	mov    %rax,%rdi
    8cb0:	e8 b5 04 00 00       	callq  916a <_ZN9__gnu_cxx13new_allocatorIiEC1ERKS1_>
    8cb5:	90                   	nop
    8cb6:	c9                   	leaveq 
    8cb7:	c3                   	retq   

0000000000008cb8 <_ZSt18uninitialized_copyIPKiPiET0_T_S4_S3_>:
    8cb8:	55                   	push   %rbp
    8cb9:	48 89 e5             	mov    %rsp,%rbp
    8cbc:	48 83 ec 30          	sub    $0x30,%rsp
    8cc0:	48 89 7d e8          	mov    %rdi,-0x18(%rbp)
    8cc4:	48 89 75 e0          	mov    %rsi,-0x20(%rbp)
    8cc8:	48 89 55 d8          	mov    %rdx,-0x28(%rbp)
    8ccc:	c6 45 ff 01          	movb   $0x1,-0x1(%rbp)
    8cd0:	48 8b 55 d8          	mov    -0x28(%rbp),%rdx
    8cd4:	48 8b 4d e0          	mov    -0x20(%rbp),%rcx
    8cd8:	48 8b 45 e8          	mov    -0x18(%rbp),%rax
    8cdc:	48 89 ce             	mov    %rcx,%rsi
    8cdf:	48 89 c7             	mov    %rax,%rdi
    8ce2:	e8 92 04 00 00       	callq  9179 <_ZNSt20__uninitialized_copyILb1EE13__uninit_copyIPKiPiEET0_T_S6_S5_>
    8ce7:	c9                   	leaveq 
    8ce8:	c3                   	retq   
    8ce9:	90                   	nop

0000000000008cea <_ZNSaImEC1ERKS_>:
    8cea:	55                   	push   %rbp
    8ceb:	48 89 e5             	mov    %rsp,%rbp
    8cee:	48 83 ec 10          	sub    $0x10,%rsp
    8cf2:	48 89 7d f8          	mov    %rdi,-0x8(%rbp)
    8cf6:	48 89 75 f0          	mov    %rsi,-0x10(%rbp)
    8cfa:	48 8b 55 f0          	mov    -0x10(%rbp),%rdx
    8cfe:	48 8b 45 f8          	mov    -0x8(%rbp),%rax
    8d02:	48 89 d6             	mov    %rdx,%rsi
    8d05:	48 89 c7             	mov    %rax,%rdi
    8d08:	e8 99 04 00 00       	callq  91a6 <_ZN9__gnu_cxx13new_allocatorImEC1ERKS1_>
    8d0d:	90                   	nop
    8d0e:	c9                   	leaveq 
    8d0f:	c3                   	retq   

0000000000008d10 <_ZNSt12_Vector_baseImSaImEE17_Vector_impl_dataC1Ev>:
    8d10:	55                   	push   %rbp
    8d11:	48 89 e5             	mov    %rsp,%rbp
    8d14:	48 89 7d f8          	mov    %rdi,-0x8(%rbp)
    8d18:	48 8b 45 f8          	mov    -0x8(%rbp),%rax
    8d1c:	48 c7 00 00 00 00 00 	movq   $0x0,(%rax)
    8d23:	48 8b 45 f8          	mov    -0x8(%rbp),%rax
    8d27:	48 c7 40 08 00 00 00 	movq   $0x0,0x8(%rax)
    8d2e:	00 
    8d2f:	48 8b 45 f8          	mov    -0x8(%rbp),%rax
    8d33:	48 c7 40 10 00 00 00 	movq   $0x0,0x10(%rax)
    8d3a:	00 
    8d3b:	90                   	nop
    8d3c:	5d                   	pop    %rbp
    8d3d:	c3                   	retq   

0000000000008d3e <_ZNSt16allocator_traitsISaImEE10deallocateERS0_Pmm>:
    8d3e:	55                   	push   %rbp
    8d3f:	48 89 e5             	mov    %rsp,%rbp
    8d42:	48 83 ec 20          	sub    $0x20,%rsp
    8d46:	48 89 7d f8          	mov    %rdi,-0x8(%rbp)
    8d4a:	48 89 75 f0          	mov    %rsi,-0x10(%rbp)
    8d4e:	48 89 55 e8          	mov    %rdx,-0x18(%rbp)
    8d52:	48 8b 55 e8          	mov    -0x18(%rbp),%rdx
    8d56:	48 8b 4d f0          	mov    -0x10(%rbp),%rcx
    8d5a:	48 8b 45 f8          	mov    -0x8(%rbp),%rax
    8d5e:	48 89 ce             	mov    %rcx,%rsi
    8d61:	48 89 c7             	mov    %rax,%rdi
    8d64:	e8 4d 04 00 00       	callq  91b6 <_ZN9__gnu_cxx13new_allocatorImE10deallocateEPmm>
    8d69:	90                   	nop
    8d6a:	c9                   	leaveq 
    8d6b:	c3                   	retq   

0000000000008d6c <_ZNSt6vectorImSaImEE11_S_max_sizeERKS0_>:
    8d6c:	55                   	push   %rbp
    8d6d:	48 89 e5             	mov    %rsp,%rbp
    8d70:	48 83 ec 30          	sub    $0x30,%rsp
    8d74:	48 89 7d d8          	mov    %rdi,-0x28(%rbp)
    8d78:	64 48 8b 04 25 28 00 	mov    %fs:0x28,%rax
    8d7f:	00 00 
    8d81:	48 89 45 f8          	mov    %rax,-0x8(%rbp)
    8d85:	31 c0                	xor    %eax,%eax
    8d87:	48 b8 ff ff ff ff ff 	movabs $0xfffffffffffffff,%rax
    8d8e:	ff ff 0f 
    8d91:	48 89 45 e8          	mov    %rax,-0x18(%rbp)
    8d95:	48 8b 45 d8          	mov    -0x28(%rbp),%rax
    8d99:	48 89 c7             	mov    %rax,%rdi
    8d9c:	e8 37 04 00 00       	callq  91d8 <_ZNSt16allocator_traitsISaImEE8max_sizeERKS0_>
    8da1:	48 89 45 f0          	mov    %rax,-0x10(%rbp)
    8da5:	48 8d 55 f0          	lea    -0x10(%rbp),%rdx
    8da9:	48 8d 45 e8          	lea    -0x18(%rbp),%rax
    8dad:	48 89 d6             	mov    %rdx,%rsi
    8db0:	48 89 c7             	mov    %rax,%rdi
    8db3:	e8 f1 b1 ff ff       	callq  3fa9 <_ZSt3minImERKT_S2_S2_>
    8db8:	48 8b 00             	mov    (%rax),%rax
    8dbb:	48 8b 4d f8          	mov    -0x8(%rbp),%rcx
    8dbf:	64 48 33 0c 25 28 00 	xor    %fs:0x28,%rcx
    8dc6:	00 00 
    8dc8:	74 05                	je     8dcf <_ZNSt6vectorImSaImEE11_S_max_sizeERKS0_+0x63>
    8dca:	e8 c1 8d ff ff       	callq  1b90 <__stack_chk_fail@plt>
    8dcf:	c9                   	leaveq 
    8dd0:	c3                   	retq   

0000000000008dd1 <_ZNSt16allocator_traitsISaImEE8allocateERS0_m>:
    8dd1:	55                   	push   %rbp
    8dd2:	48 89 e5             	mov    %rsp,%rbp
    8dd5:	48 83 ec 10          	sub    $0x10,%rsp
    8dd9:	48 89 7d f8          	mov    %rdi,-0x8(%rbp)
    8ddd:	48 89 75 f0          	mov    %rsi,-0x10(%rbp)
    8de1:	48 8b 4d f0          	mov    -0x10(%rbp),%rcx
    8de5:	48 8b 45 f8          	mov    -0x8(%rbp),%rax
    8de9:	ba 00 00 00 00       	mov    $0x0,%edx
    8dee:	48 89 ce             	mov    %rcx,%rsi
    8df1:	48 89 c7             	mov    %rax,%rdi
    8df4:	e8 f9 03 00 00       	callq  91f2 <_ZN9__gnu_cxx13new_allocatorImE8allocateEmPKv>
    8df9:	c9                   	leaveq 
    8dfa:	c3                   	retq   

0000000000008dfb <_ZSt18uninitialized_copyIPKmPmET0_T_S4_S3_>:
    8dfb:	55                   	push   %rbp
    8dfc:	48 89 e5             	mov    %rsp,%rbp
    8dff:	48 83 ec 30          	sub    $0x30,%rsp
    8e03:	48 89 7d e8          	mov    %rdi,-0x18(%rbp)
    8e07:	48 89 75 e0          	mov    %rsi,-0x20(%rbp)
    8e0b:	48 89 55 d8          	mov    %rdx,-0x28(%rbp)
    8e0f:	c6 45 ff 01          	movb   $0x1,-0x1(%rbp)
    8e13:	48 8b 55 d8          	mov    -0x28(%rbp),%rdx
    8e17:	48 8b 4d e0          	mov    -0x20(%rbp),%rcx
    8e1b:	48 8b 45 e8          	mov    -0x18(%rbp),%rax
    8e1f:	48 89 ce             	mov    %rcx,%rsi
    8e22:	48 89 c7             	mov    %rax,%rdi
    8e25:	e8 0b 04 00 00       	callq  9235 <_ZNSt20__uninitialized_copyILb1EE13__uninit_copyIPKmPmEET0_T_S6_S5_>
    8e2a:	c9                   	leaveq 
    8e2b:	c3                   	retq   

0000000000008e2c <_ZNSt12_Destroy_auxILb1EE9__destroyIPmEEvT_S3_>:
    8e2c:	55                   	push   %rbp
    8e2d:	48 89 e5             	mov    %rsp,%rbp
    8e30:	48 89 7d f8          	mov    %rdi,-0x8(%rbp)
    8e34:	48 89 75 f0          	mov    %rsi,-0x10(%rbp)
    8e38:	90                   	nop
    8e39:	5d                   	pop    %rbp
    8e3a:	c3                   	retq   
    8e3b:	90                   	nop

0000000000008e3c <_ZNSt10_Head_baseILm0EPFPvS0_ELb0EEC1ERKS2_>:
    8e3c:	55                   	push   %rbp
    8e3d:	48 89 e5             	mov    %rsp,%rbp
    8e40:	48 89 7d f8          	mov    %rdi,-0x8(%rbp)
    8e44:	48 89 75 f0          	mov    %rsi,-0x10(%rbp)
    8e48:	48 8b 45 f0          	mov    -0x10(%rbp),%rax
    8e4c:	48 8b 10             	mov    (%rax),%rdx
    8e4f:	48 8b 45 f8          	mov    -0x8(%rbp),%rax
    8e53:	48 89 10             	mov    %rdx,(%rax)
    8e56:	90                   	nop
    8e57:	5d                   	pop    %rbp
    8e58:	c3                   	retq   

0000000000008e59 <_ZSt7forwardINSt6thread8_InvokerISt5tupleIJPFPvS3_EP10arg_structIiiEEEEEEOT_RNSt16remove_referenceISB_E4typeE>:
    8e59:	55                   	push   %rbp
    8e5a:	48 89 e5             	mov    %rsp,%rbp
    8e5d:	48 89 7d f8          	mov    %rdi,-0x8(%rbp)
    8e61:	48 8b 45 f8          	mov    -0x8(%rbp),%rax
    8e65:	5d                   	pop    %rbp
    8e66:	c3                   	retq   
    8e67:	90                   	nop

0000000000008e68 <_ZNSt6thread6_StateC1Ev>:
    8e68:	55                   	push   %rbp
    8e69:	48 89 e5             	mov    %rsp,%rbp
    8e6c:	48 89 7d f8          	mov    %rdi,-0x8(%rbp)
    8e70:	48 8d 15 f9 5c 20 00 	lea    0x205cf9(%rip),%rdx        # 20eb70 <_ZTVNSt6thread6_StateE@@GLIBCXX_3.4.22+0x10>
    8e77:	48 8b 45 f8          	mov    -0x8(%rbp),%rax
    8e7b:	48 89 10             	mov    %rdx,(%rax)
    8e7e:	90                   	nop
    8e7f:	5d                   	pop    %rbp
    8e80:	c3                   	retq   
    8e81:	90                   	nop

0000000000008e82 <_ZNSt5tupleIJPFPvS0_EP10arg_structIiiEEEC1EOS6_>:
    8e82:	55                   	push   %rbp
    8e83:	48 89 e5             	mov    %rsp,%rbp
    8e86:	48 83 ec 10          	sub    $0x10,%rsp
    8e8a:	48 89 7d f8          	mov    %rdi,-0x8(%rbp)
    8e8e:	48 89 75 f0          	mov    %rsi,-0x10(%rbp)
    8e92:	48 8b 45 f8          	mov    -0x8(%rbp),%rax
    8e96:	48 8b 55 f0          	mov    -0x10(%rbp),%rdx
    8e9a:	48 89 d6             	mov    %rdx,%rsi
    8e9d:	48 89 c7             	mov    %rax,%rdi
    8ea0:	e8 bd 03 00 00       	callq  9262 <_ZNSt11_Tuple_implILm0EJPFPvS0_EP10arg_structIiiEEEC1EOS6_>
    8ea5:	90                   	nop
    8ea6:	c9                   	leaveq 
    8ea7:	c3                   	retq   

0000000000008ea8 <_ZNSt6thread8_InvokerISt5tupleIJPFPvS2_EP10arg_structIiiEEEEC1EOS9_>:
    8ea8:	55                   	push   %rbp
    8ea9:	48 89 e5             	mov    %rsp,%rbp
    8eac:	48 83 ec 10          	sub    $0x10,%rsp
    8eb0:	48 89 7d f8          	mov    %rdi,-0x8(%rbp)
    8eb4:	48 89 75 f0          	mov    %rsi,-0x10(%rbp)
    8eb8:	48 8b 45 f8          	mov    -0x8(%rbp),%rax
    8ebc:	48 8b 55 f0          	mov    -0x10(%rbp),%rdx
    8ec0:	48 89 d6             	mov    %rdx,%rsi
    8ec3:	48 89 c7             	mov    %rax,%rdi
    8ec6:	e8 b7 ff ff ff       	callq  8e82 <_ZNSt5tupleIJPFPvS0_EP10arg_structIiiEEEC1EOS6_>
    8ecb:	90                   	nop
    8ecc:	c9                   	leaveq 
    8ecd:	c3                   	retq   

0000000000008ece <_ZNSt6thread11_State_implINS_8_InvokerISt5tupleIJPFPvS3_EP10arg_structIiiEEEEEEC1EOSA_>:
    8ece:	55                   	push   %rbp
    8ecf:	48 89 e5             	mov    %rsp,%rbp
    8ed2:	53                   	push   %rbx
    8ed3:	48 83 ec 18          	sub    $0x18,%rsp
    8ed7:	48 89 7d e8          	mov    %rdi,-0x18(%rbp)
    8edb:	48 89 75 e0          	mov    %rsi,-0x20(%rbp)
    8edf:	48 8b 45 e8          	mov    -0x18(%rbp),%rax
    8ee3:	48 89 c7             	mov    %rax,%rdi
    8ee6:	e8 7d ff ff ff       	callq  8e68 <_ZNSt6thread6_StateC1Ev>
    8eeb:	48 8d 15 fe 5b 20 00 	lea    0x205bfe(%rip),%rdx        # 20eaf0 <_ZTVNSt6thread11_State_implINS_8_InvokerISt5tupleIJPFPvS3_EP10arg_structIiiEEEEEEE+0x10>
    8ef2:	48 8b 45 e8          	mov    -0x18(%rbp),%rax
    8ef6:	48 89 10             	mov    %rdx,(%rax)
    8ef9:	48 8b 45 e8          	mov    -0x18(%rbp),%rax
    8efd:	48 8d 58 08          	lea    0x8(%rax),%rbx
    8f01:	48 8b 45 e0          	mov    -0x20(%rbp),%rax
    8f05:	48 89 c7             	mov    %rax,%rdi
    8f08:	e8 4c ff ff ff       	callq  8e59 <_ZSt7forwardINSt6thread8_InvokerISt5tupleIJPFPvS3_EP10arg_structIiiEEEEEEOT_RNSt16remove_referenceISB_E4typeE>
    8f0d:	48 89 c6             	mov    %rax,%rsi
    8f10:	48 89 df             	mov    %rbx,%rdi
    8f13:	e8 90 ff ff ff       	callq  8ea8 <_ZNSt6thread8_InvokerISt5tupleIJPFPvS2_EP10arg_structIiiEEEEC1EOS9_>
    8f18:	90                   	nop
    8f19:	48 83 c4 18          	add    $0x18,%rsp
    8f1d:	5b                   	pop    %rbx
    8f1e:	5d                   	pop    %rbp
    8f1f:	c3                   	retq   

0000000000008f20 <_ZNSt10unique_ptrINSt6thread6_StateESt14default_deleteIS1_EEC1IS3_vEEPS1_>:
    8f20:	55                   	push   %rbp
    8f21:	48 89 e5             	mov    %rsp,%rbp
    8f24:	48 83 ec 10          	sub    $0x10,%rsp
    8f28:	48 89 7d f8          	mov    %rdi,-0x8(%rbp)
    8f2c:	48 89 75 f0          	mov    %rsi,-0x10(%rbp)
    8f30:	48 8b 45 f8          	mov    -0x8(%rbp),%rax
    8f34:	48 8b 55 f0          	mov    -0x10(%rbp),%rdx
    8f38:	48 89 d6             	mov    %rdx,%rsi
    8f3b:	48 89 c7             	mov    %rax,%rdi
    8f3e:	e8 83 03 00 00       	callq  92c6 <_ZNSt15__uniq_ptr_implINSt6thread6_StateESt14default_deleteIS1_EEC1EPS1_>
    8f43:	90                   	nop
    8f44:	c9                   	leaveq 
    8f45:	c3                   	retq   

0000000000008f46 <_ZNSt15__uniq_ptr_implINSt6thread6_StateESt14default_deleteIS1_EE6_M_ptrEv>:
    8f46:	55                   	push   %rbp
    8f47:	48 89 e5             	mov    %rsp,%rbp
    8f4a:	48 83 ec 10          	sub    $0x10,%rsp
    8f4e:	48 89 7d f8          	mov    %rdi,-0x8(%rbp)
    8f52:	48 8b 45 f8          	mov    -0x8(%rbp),%rax
    8f56:	48 89 c7             	mov    %rax,%rdi
    8f59:	e8 a0 03 00 00       	callq  92fe <_ZSt3getILm0EJPNSt6thread6_StateESt14default_deleteIS1_EEERNSt13tuple_elementIXT_ESt5tupleIJDpT0_EEE4typeERS9_>
    8f5e:	c9                   	leaveq 
    8f5f:	c3                   	retq   

0000000000008f60 <_ZNSt10unique_ptrINSt6thread6_StateESt14default_deleteIS1_EE11get_deleterEv>:
    8f60:	55                   	push   %rbp
    8f61:	48 89 e5             	mov    %rsp,%rbp
    8f64:	48 83 ec 10          	sub    $0x10,%rsp
    8f68:	48 89 7d f8          	mov    %rdi,-0x8(%rbp)
    8f6c:	48 8b 45 f8          	mov    -0x8(%rbp),%rax
    8f70:	48 89 c7             	mov    %rax,%rdi
    8f73:	e8 a0 03 00 00       	callq  9318 <_ZNSt15__uniq_ptr_implINSt6thread6_StateESt14default_deleteIS1_EE10_M_deleterEv>
    8f78:	c9                   	leaveq 
    8f79:	c3                   	retq   

0000000000008f7a <_ZSt4moveIRPNSt6thread6_StateEEONSt16remove_referenceIT_E4typeEOS5_>:
    8f7a:	55                   	push   %rbp
    8f7b:	48 89 e5             	mov    %rsp,%rbp
    8f7e:	48 89 7d f8          	mov    %rdi,-0x8(%rbp)
    8f82:	48 8b 45 f8          	mov    -0x8(%rbp),%rax
    8f86:	5d                   	pop    %rbp
    8f87:	c3                   	retq   

0000000000008f88 <_ZNKSt14default_deleteINSt6thread6_StateEEclEPS1_>:
    8f88:	55                   	push   %rbp
    8f89:	48 89 e5             	mov    %rsp,%rbp
    8f8c:	48 83 ec 10          	sub    $0x10,%rsp
    8f90:	48 89 7d f8          	mov    %rdi,-0x8(%rbp)
    8f94:	48 89 75 f0          	mov    %rsi,-0x10(%rbp)
    8f98:	48 8b 45 f0          	mov    -0x10(%rbp),%rax
    8f9c:	48 85 c0             	test   %rax,%rax
    8f9f:	74 0f                	je     8fb0 <_ZNKSt14default_deleteINSt6thread6_StateEEclEPS1_+0x28>
    8fa1:	48 8b 10             	mov    (%rax),%rdx
    8fa4:	48 83 c2 08          	add    $0x8,%rdx
    8fa8:	48 8b 12             	mov    (%rdx),%rdx
    8fab:	48 89 c7             	mov    %rax,%rdi
    8fae:	ff d2                	callq  *%rdx
    8fb0:	90                   	nop
    8fb1:	c9                   	leaveq 
    8fb2:	c3                   	retq   
    8fb3:	90                   	nop

0000000000008fb4 <_ZN9__gnu_cxx13new_allocatorISt4pairIiiEE7destroyIS2_EEvPT_>:
    8fb4:	55                   	push   %rbp
    8fb5:	48 89 e5             	mov    %rsp,%rbp
    8fb8:	48 89 7d f8          	mov    %rdi,-0x8(%rbp)
    8fbc:	48 89 75 f0          	mov    %rsi,-0x10(%rbp)
    8fc0:	90                   	nop
    8fc1:	5d                   	pop    %rbp
    8fc2:	c3                   	retq   
    8fc3:	90                   	nop

0000000000008fc4 <_ZNK9__gnu_cxx13new_allocatorISt4pairIiiEE8max_sizeEv>:
    8fc4:	55                   	push   %rbp
    8fc5:	48 89 e5             	mov    %rsp,%rbp
    8fc8:	48 89 7d f8          	mov    %rdi,-0x8(%rbp)
    8fcc:	48 b8 ff ff ff ff ff 	movabs $0xfffffffffffffff,%rax
    8fd3:	ff ff 0f 
    8fd6:	5d                   	pop    %rbp
    8fd7:	c3                   	retq   

0000000000008fd8 <_ZSt12__niter_baseIPSt4pairIiiEET_S3_>:
    8fd8:	55                   	push   %rbp
    8fd9:	48 89 e5             	mov    %rsp,%rbp
    8fdc:	48 89 7d f8          	mov    %rdi,-0x8(%rbp)
    8fe0:	48 8b 45 f8          	mov    -0x8(%rbp),%rax
    8fe4:	5d                   	pop    %rbp
    8fe5:	c3                   	retq   

0000000000008fe6 <_ZSt14__relocate_a_1IPSt4pairIiiES2_SaIS1_EET0_T_S5_S4_RT1_>:
    8fe6:	55                   	push   %rbp
    8fe7:	48 89 e5             	mov    %rsp,%rbp
    8fea:	53                   	push   %rbx
    8feb:	48 83 ec 38          	sub    $0x38,%rsp
    8fef:	48 89 7d d8          	mov    %rdi,-0x28(%rbp)
    8ff3:	48 89 75 d0          	mov    %rsi,-0x30(%rbp)
    8ff7:	48 89 55 c8          	mov    %rdx,-0x38(%rbp)
    8ffb:	48 89 4d c0          	mov    %rcx,-0x40(%rbp)
    8fff:	48 8b 45 c8          	mov    -0x38(%rbp),%rax
    9003:	48 89 45 e8          	mov    %rax,-0x18(%rbp)
    9007:	48 8b 45 d8          	mov    -0x28(%rbp),%rax
    900b:	48 3b 45 d0          	cmp    -0x30(%rbp),%rax
    900f:	74 3c                	je     904d <_ZSt14__relocate_a_1IPSt4pairIiiES2_SaIS1_EET0_T_S5_S4_RT1_+0x67>
    9011:	48 8b 45 d8          	mov    -0x28(%rbp),%rax
    9015:	48 89 c7             	mov    %rax,%rdi
    9018:	e8 15 03 00 00       	callq  9332 <_ZSt11__addressofISt4pairIiiEEPT_RS2_>
    901d:	48 89 c3             	mov    %rax,%rbx
    9020:	48 8b 45 e8          	mov    -0x18(%rbp),%rax
    9024:	48 89 c7             	mov    %rax,%rdi
    9027:	e8 06 03 00 00       	callq  9332 <_ZSt11__addressofISt4pairIiiEEPT_RS2_>
    902c:	48 89 c1             	mov    %rax,%rcx
    902f:	48 8b 45 c0          	mov    -0x40(%rbp),%rax
    9033:	48 89 c2             	mov    %rax,%rdx
    9036:	48 89 de             	mov    %rbx,%rsi
    9039:	48 89 cf             	mov    %rcx,%rdi
    903c:	e8 ff 02 00 00       	callq  9340 <_ZSt19__relocate_object_aISt4pairIiiES1_SaIS1_EEvPT_PT0_RT1_>
    9041:	48 83 45 d8 08       	addq   $0x8,-0x28(%rbp)
    9046:	48 83 45 e8 08       	addq   $0x8,-0x18(%rbp)
    904b:	eb ba                	jmp    9007 <_ZSt14__relocate_a_1IPSt4pairIiiES2_SaIS1_EET0_T_S5_S4_RT1_+0x21>
    904d:	48 8b 45 e8          	mov    -0x18(%rbp),%rax
    9051:	48 83 c4 38          	add    $0x38,%rsp
    9055:	5b                   	pop    %rbx
    9056:	5d                   	pop    %rbp
    9057:	c3                   	retq   

0000000000009058 <_ZNK9__gnu_cxx13new_allocatorIiE8max_sizeEv>:
    9058:	55                   	push   %rbp
    9059:	48 89 e5             	mov    %rsp,%rbp
    905c:	48 89 7d f8          	mov    %rdi,-0x8(%rbp)
    9060:	48 b8 ff ff ff ff ff 	movabs $0x1fffffffffffffff,%rax
    9067:	ff ff 1f 
    906a:	5d                   	pop    %rbp
    906b:	c3                   	retq   

000000000000906c <_ZSt12__niter_baseIPiET_S1_>:
    906c:	55                   	push   %rbp
    906d:	48 89 e5             	mov    %rsp,%rbp
    9070:	48 89 7d f8          	mov    %rdi,-0x8(%rbp)
    9074:	48 8b 45 f8          	mov    -0x8(%rbp),%rax
    9078:	5d                   	pop    %rbp
    9079:	c3                   	retq   

000000000000907a <_ZSt14__relocate_a_1IiiENSt9enable_ifIXsrSt24__is_bitwise_relocatableIT_vE5valueEPS2_E4typeES4_S4_S4_RSaIT0_E>:
    907a:	55                   	push   %rbp
    907b:	48 89 e5             	mov    %rsp,%rbp
    907e:	48 83 ec 30          	sub    $0x30,%rsp
    9082:	48 89 7d e8          	mov    %rdi,-0x18(%rbp)
    9086:	48 89 75 e0          	mov    %rsi,-0x20(%rbp)
    908a:	48 89 55 d8          	mov    %rdx,-0x28(%rbp)
    908e:	48 89 4d d0          	mov    %rcx,-0x30(%rbp)
    9092:	48 8b 45 e0          	mov    -0x20(%rbp),%rax
    9096:	48 2b 45 e8          	sub    -0x18(%rbp),%rax
    909a:	48 c1 f8 02          	sar    $0x2,%rax
    909e:	48 89 45 f8          	mov    %rax,-0x8(%rbp)
    90a2:	48 83 7d f8 00       	cmpq   $0x0,-0x8(%rbp)
    90a7:	7e 1f                	jle    90c8 <_ZSt14__relocate_a_1IiiENSt9enable_ifIXsrSt24__is_bitwise_relocatableIT_vE5valueEPS2_E4typeES4_S4_S4_RSaIT0_E+0x4e>
    90a9:	48 8b 45 f8          	mov    -0x8(%rbp),%rax
    90ad:	48 8d 14 85 00 00 00 	lea    0x0(,%rax,4),%rdx
    90b4:	00 
    90b5:	48 8b 4d e8          	mov    -0x18(%rbp),%rcx
    90b9:	48 8b 45 d8          	mov    -0x28(%rbp),%rax
    90bd:	48 89 ce             	mov    %rcx,%rsi
    90c0:	48 89 c7             	mov    %rax,%rdi
    90c3:	e8 38 8b ff ff       	callq  1c00 <memmove@plt>
    90c8:	48 8b 45 f8          	mov    -0x8(%rbp),%rax
    90cc:	48 8d 14 85 00 00 00 	lea    0x0(,%rax,4),%rdx
    90d3:	00 
    90d4:	48 8b 45 d8          	mov    -0x28(%rbp),%rax
    90d8:	48 01 d0             	add    %rdx,%rax
    90db:	c9                   	leaveq 
    90dc:	c3                   	retq   

00000000000090dd <_ZSt12__niter_baseIPSt4pairIiiESt6vectorIS1_SaIS1_EEET_N9__gnu_cxx17__normal_iteratorIS6_T0_EE>:
    90dd:	55                   	push   %rbp
    90de:	48 89 e5             	mov    %rsp,%rbp
    90e1:	48 83 ec 10          	sub    $0x10,%rsp
    90e5:	48 89 7d f8          	mov    %rdi,-0x8(%rbp)
    90e9:	48 8d 45 f8          	lea    -0x8(%rbp),%rax
    90ed:	48 89 c7             	mov    %rax,%rdi
    90f0:	e8 35 d4 ff ff       	callq  652a <_ZNK9__gnu_cxx17__normal_iteratorIPSt4pairIiiESt6vectorIS2_SaIS2_EEE4baseEv>
    90f5:	48 8b 00             	mov    (%rax),%rax
    90f8:	c9                   	leaveq 
    90f9:	c3                   	retq   

00000000000090fa <_ZSt13__copy_move_aILb1EPSt4pairIiiES2_ET1_T0_S4_S3_>:
    90fa:	55                   	push   %rbp
    90fb:	48 89 e5             	mov    %rsp,%rbp
    90fe:	48 83 ec 30          	sub    $0x30,%rsp
    9102:	48 89 7d e8          	mov    %rdi,-0x18(%rbp)
    9106:	48 89 75 e0          	mov    %rsi,-0x20(%rbp)
    910a:	48 89 55 d8          	mov    %rdx,-0x28(%rbp)
    910e:	c6 45 ff 00          	movb   $0x0,-0x1(%rbp)
    9112:	48 8b 55 d8          	mov    -0x28(%rbp),%rdx
    9116:	48 8b 4d e0          	mov    -0x20(%rbp),%rcx
    911a:	48 8b 45 e8          	mov    -0x18(%rbp),%rax
    911e:	48 89 ce             	mov    %rcx,%rsi
    9121:	48 89 c7             	mov    %rax,%rdi
    9124:	e8 6e 02 00 00       	callq  9397 <_ZNSt11__copy_moveILb1ELb0ESt26random_access_iterator_tagE8__copy_mIPSt4pairIiiES5_EET0_T_S7_S6_>
    9129:	c9                   	leaveq 
    912a:	c3                   	retq   

000000000000912b <_ZSt12__niter_wrapIN9__gnu_cxx17__normal_iteratorIPSt4pairIiiESt6vectorIS3_SaIS3_EEEES4_ET_S9_T0_>:
    912b:	55                   	push   %rbp
    912c:	48 89 e5             	mov    %rsp,%rbp
    912f:	48 83 ec 10          	sub    $0x10,%rsp
    9133:	48 89 7d f8          	mov    %rdi,-0x8(%rbp)
    9137:	48 89 75 f0          	mov    %rsi,-0x10(%rbp)
    913b:	48 8b 45 f8          	mov    -0x8(%rbp),%rax
    913f:	48 89 c7             	mov    %rax,%rdi
    9142:	e8 96 ff ff ff       	callq  90dd <_ZSt12__niter_baseIPSt4pairIiiESt6vectorIS1_SaIS1_EEET_N9__gnu_cxx17__normal_iteratorIS6_T0_EE>
    9147:	48 8b 55 f0          	mov    -0x10(%rbp),%rdx
    914b:	48 29 c2             	sub    %rax,%rdx
    914e:	48 89 d0             	mov    %rdx,%rax
    9151:	48 c1 f8 03          	sar    $0x3,%rax
    9155:	48 89 c2             	mov    %rax,%rdx
    9158:	48 8d 45 f8          	lea    -0x8(%rbp),%rax
    915c:	48 89 d6             	mov    %rdx,%rsi
    915f:	48 89 c7             	mov    %rax,%rdi
    9162:	e8 cb e0 ff ff       	callq  7232 <_ZNK9__gnu_cxx17__normal_iteratorIPSt4pairIiiESt6vectorIS2_SaIS2_EEEplEl>
    9167:	c9                   	leaveq 
    9168:	c3                   	retq   
    9169:	90                   	nop

000000000000916a <_ZN9__gnu_cxx13new_allocatorIiEC1ERKS1_>:
    916a:	55                   	push   %rbp
    916b:	48 89 e5             	mov    %rsp,%rbp
    916e:	48 89 7d f8          	mov    %rdi,-0x8(%rbp)
    9172:	48 89 75 f0          	mov    %rsi,-0x10(%rbp)
    9176:	90                   	nop
    9177:	5d                   	pop    %rbp
    9178:	c3                   	retq   

0000000000009179 <_ZNSt20__uninitialized_copyILb1EE13__uninit_copyIPKiPiEET0_T_S6_S5_>:
    9179:	55                   	push   %rbp
    917a:	48 89 e5             	mov    %rsp,%rbp
    917d:	48 83 ec 20          	sub    $0x20,%rsp
    9181:	48 89 7d f8          	mov    %rdi,-0x8(%rbp)
    9185:	48 89 75 f0          	mov    %rsi,-0x10(%rbp)
    9189:	48 89 55 e8          	mov    %rdx,-0x18(%rbp)
    918d:	48 8b 55 e8          	mov    -0x18(%rbp),%rdx
    9191:	48 8b 4d f0          	mov    -0x10(%rbp),%rcx
    9195:	48 8b 45 f8          	mov    -0x8(%rbp),%rax
    9199:	48 89 ce             	mov    %rcx,%rsi
    919c:	48 89 c7             	mov    %rax,%rdi
    919f:	e8 53 02 00 00       	callq  93f7 <_ZSt4copyIPKiPiET0_T_S4_S3_>
    91a4:	c9                   	leaveq 
    91a5:	c3                   	retq   

00000000000091a6 <_ZN9__gnu_cxx13new_allocatorImEC1ERKS1_>:
    91a6:	55                   	push   %rbp
    91a7:	48 89 e5             	mov    %rsp,%rbp
    91aa:	48 89 7d f8          	mov    %rdi,-0x8(%rbp)
    91ae:	48 89 75 f0          	mov    %rsi,-0x10(%rbp)
    91b2:	90                   	nop
    91b3:	5d                   	pop    %rbp
    91b4:	c3                   	retq   
    91b5:	90                   	nop

00000000000091b6 <_ZN9__gnu_cxx13new_allocatorImE10deallocateEPmm>:
    91b6:	55                   	push   %rbp
    91b7:	48 89 e5             	mov    %rsp,%rbp
    91ba:	48 83 ec 20          	sub    $0x20,%rsp
    91be:	48 89 7d f8          	mov    %rdi,-0x8(%rbp)
    91c2:	48 89 75 f0          	mov    %rsi,-0x10(%rbp)
    91c6:	48 89 55 e8          	mov    %rdx,-0x18(%rbp)
    91ca:	48 8b 45 f0          	mov    -0x10(%rbp),%rax
    91ce:	48 89 c7             	mov    %rax,%rdi
    91d1:	e8 6a 89 ff ff       	callq  1b40 <_ZdlPv@plt>
    91d6:	c9                   	leaveq 
    91d7:	c3                   	retq   

00000000000091d8 <_ZNSt16allocator_traitsISaImEE8max_sizeERKS0_>:
    91d8:	55                   	push   %rbp
    91d9:	48 89 e5             	mov    %rsp,%rbp
    91dc:	48 83 ec 10          	sub    $0x10,%rsp
    91e0:	48 89 7d f8          	mov    %rdi,-0x8(%rbp)
    91e4:	48 8b 45 f8          	mov    -0x8(%rbp),%rax
    91e8:	48 89 c7             	mov    %rax,%rdi
    91eb:	e8 54 02 00 00       	callq  9444 <_ZNK9__gnu_cxx13new_allocatorImE8max_sizeEv>
    91f0:	c9                   	leaveq 
    91f1:	c3                   	retq   

00000000000091f2 <_ZN9__gnu_cxx13new_allocatorImE8allocateEmPKv>:
    91f2:	55                   	push   %rbp
    91f3:	48 89 e5             	mov    %rsp,%rbp
    91f6:	48 83 ec 20          	sub    $0x20,%rsp
    91fa:	48 89 7d f8          	mov    %rdi,-0x8(%rbp)
    91fe:	48 89 75 f0          	mov    %rsi,-0x10(%rbp)
    9202:	48 89 55 e8          	mov    %rdx,-0x18(%rbp)
    9206:	48 8b 45 f8          	mov    -0x8(%rbp),%rax
    920a:	48 89 c7             	mov    %rax,%rdi
    920d:	e8 32 02 00 00       	callq  9444 <_ZNK9__gnu_cxx13new_allocatorImE8max_sizeEv>
    9212:	48 39 45 f0          	cmp    %rax,-0x10(%rbp)
    9216:	0f 97 c0             	seta   %al
    9219:	84 c0                	test   %al,%al
    921b:	74 05                	je     9222 <_ZN9__gnu_cxx13new_allocatorImE8allocateEmPKv+0x30>
    921d:	e8 2e 88 ff ff       	callq  1a50 <_ZSt17__throw_bad_allocv@plt>
    9222:	48 8b 45 f0          	mov    -0x10(%rbp),%rax
    9226:	48 c1 e0 03          	shl    $0x3,%rax
    922a:	48 89 c7             	mov    %rax,%rdi
    922d:	e8 2e 89 ff ff       	callq  1b60 <_Znwm@plt>
    9232:	90                   	nop
    9233:	c9                   	leaveq 
    9234:	c3                   	retq   

0000000000009235 <_ZNSt20__uninitialized_copyILb1EE13__uninit_copyIPKmPmEET0_T_S6_S5_>:
    9235:	55                   	push   %rbp
    9236:	48 89 e5             	mov    %rsp,%rbp
    9239:	48 83 ec 20          	sub    $0x20,%rsp
    923d:	48 89 7d f8          	mov    %rdi,-0x8(%rbp)
    9241:	48 89 75 f0          	mov    %rsi,-0x10(%rbp)
    9245:	48 89 55 e8          	mov    %rdx,-0x18(%rbp)
    9249:	48 8b 55 e8          	mov    -0x18(%rbp),%rdx
    924d:	48 8b 4d f0          	mov    -0x10(%rbp),%rcx
    9251:	48 8b 45 f8          	mov    -0x8(%rbp),%rax
    9255:	48 89 ce             	mov    %rcx,%rsi
    9258:	48 89 c7             	mov    %rax,%rdi
    925b:	e8 f8 01 00 00       	callq  9458 <_ZSt4copyIPKmPmET0_T_S4_S3_>
    9260:	c9                   	leaveq 
    9261:	c3                   	retq   

0000000000009262 <_ZNSt11_Tuple_implILm0EJPFPvS0_EP10arg_structIiiEEEC1EOS6_>:
    9262:	55                   	push   %rbp
    9263:	48 89 e5             	mov    %rsp,%rbp
    9266:	53                   	push   %rbx
    9267:	48 83 ec 18          	sub    $0x18,%rsp
    926b:	48 89 7d e8          	mov    %rdi,-0x18(%rbp)
    926f:	48 89 75 e0          	mov    %rsi,-0x20(%rbp)
    9273:	48 8b 5d e8          	mov    -0x18(%rbp),%rbx
    9277:	48 8b 45 e0          	mov    -0x20(%rbp),%rax
    927b:	48 89 c7             	mov    %rax,%rdi
    927e:	e8 21 02 00 00       	callq  94a4 <_ZNSt11_Tuple_implILm0EJPFPvS0_EP10arg_structIiiEEE7_M_tailERS6_>
    9283:	48 89 c7             	mov    %rax,%rdi
    9286:	e8 27 02 00 00       	callq  94b2 <_ZSt4moveIRSt11_Tuple_implILm1EJP10arg_structIiiEEEEONSt16remove_referenceIT_E4typeEOS7_>
    928b:	48 89 c6             	mov    %rax,%rsi
    928e:	48 89 df             	mov    %rbx,%rdi
    9291:	e8 56 02 00 00       	callq  94ec <_ZNSt11_Tuple_implILm1EJP10arg_structIiiEEEC1EOS3_>
    9296:	48 8b 45 e8          	mov    -0x18(%rbp),%rax
    929a:	48 8d 58 08          	lea    0x8(%rax),%rbx
    929e:	48 8b 45 e0          	mov    -0x20(%rbp),%rax
    92a2:	48 89 c7             	mov    %rax,%rdi
    92a5:	e8 16 02 00 00       	callq  94c0 <_ZNSt11_Tuple_implILm0EJPFPvS0_EP10arg_structIiiEEE7_M_headERS6_>
    92aa:	48 89 c7             	mov    %rax,%rdi
    92ad:	e8 2c 02 00 00       	callq  94de <_ZSt7forwardIPFPvS0_EEOT_RNSt16remove_referenceIS3_E4typeE>
    92b2:	48 89 c6             	mov    %rax,%rsi
    92b5:	48 89 df             	mov    %rbx,%rdi
    92b8:	e8 6b 02 00 00       	callq  9528 <_ZNSt10_Head_baseILm0EPFPvS0_ELb0EEC1IS2_EEOT_>
    92bd:	90                   	nop
    92be:	48 83 c4 18          	add    $0x18,%rsp
    92c2:	5b                   	pop    %rbx
    92c3:	5d                   	pop    %rbp
    92c4:	c3                   	retq   
    92c5:	90                   	nop

00000000000092c6 <_ZNSt15__uniq_ptr_implINSt6thread6_StateESt14default_deleteIS1_EEC1EPS1_>:
    92c6:	55                   	push   %rbp
    92c7:	48 89 e5             	mov    %rsp,%rbp
    92ca:	53                   	push   %rbx
    92cb:	48 83 ec 18          	sub    $0x18,%rsp
    92cf:	48 89 7d e8          	mov    %rdi,-0x18(%rbp)
    92d3:	48 89 75 e0          	mov    %rsi,-0x20(%rbp)
    92d7:	48 8b 45 e8          	mov    -0x18(%rbp),%rax
    92db:	48 89 c7             	mov    %rax,%rdi
    92de:	e8 6f 02 00 00       	callq  9552 <_ZNSt5tupleIJPNSt6thread6_StateESt14default_deleteIS1_EEEC1IS2_S4_Lb1EEEv>
    92e3:	48 8b 5d e0          	mov    -0x20(%rbp),%rbx
    92e7:	48 8b 45 e8          	mov    -0x18(%rbp),%rax
    92eb:	48 89 c7             	mov    %rax,%rdi
    92ee:	e8 53 fc ff ff       	callq  8f46 <_ZNSt15__uniq_ptr_implINSt6thread6_StateESt14default_deleteIS1_EE6_M_ptrEv>
    92f3:	48 89 18             	mov    %rbx,(%rax)
    92f6:	90                   	nop
    92f7:	48 83 c4 18          	add    $0x18,%rsp
    92fb:	5b                   	pop    %rbx
    92fc:	5d                   	pop    %rbp
    92fd:	c3                   	retq   

00000000000092fe <_ZSt3getILm0EJPNSt6thread6_StateESt14default_deleteIS1_EEERNSt13tuple_elementIXT_ESt5tupleIJDpT0_EEE4typeERS9_>:
    92fe:	55                   	push   %rbp
    92ff:	48 89 e5             	mov    %rsp,%rbp
    9302:	48 83 ec 10          	sub    $0x10,%rsp
    9306:	48 89 7d f8          	mov    %rdi,-0x8(%rbp)
    930a:	48 8b 45 f8          	mov    -0x8(%rbp),%rax
    930e:	48 89 c7             	mov    %rax,%rdi
    9311:	e8 57 02 00 00       	callq  956d <_ZSt12__get_helperILm0EPNSt6thread6_StateEJSt14default_deleteIS1_EEERT0_RSt11_Tuple_implIXT_EJS5_DpT1_EE>
    9316:	c9                   	leaveq 
    9317:	c3                   	retq   

0000000000009318 <_ZNSt15__uniq_ptr_implINSt6thread6_StateESt14default_deleteIS1_EE10_M_deleterEv>:
    9318:	55                   	push   %rbp
    9319:	48 89 e5             	mov    %rsp,%rbp
    931c:	48 83 ec 10          	sub    $0x10,%rsp
    9320:	48 89 7d f8          	mov    %rdi,-0x8(%rbp)
    9324:	48 8b 45 f8          	mov    -0x8(%rbp),%rax
    9328:	48 89 c7             	mov    %rax,%rdi
    932b:	e8 57 02 00 00       	callq  9587 <_ZSt3getILm1EJPNSt6thread6_StateESt14default_deleteIS1_EEERNSt13tuple_elementIXT_ESt5tupleIJDpT0_EEE4typeERS9_>
    9330:	c9                   	leaveq 
    9331:	c3                   	retq   

0000000000009332 <_ZSt11__addressofISt4pairIiiEEPT_RS2_>:
    9332:	55                   	push   %rbp
    9333:	48 89 e5             	mov    %rsp,%rbp
    9336:	48 89 7d f8          	mov    %rdi,-0x8(%rbp)
    933a:	48 8b 45 f8          	mov    -0x8(%rbp),%rax
    933e:	5d                   	pop    %rbp
    933f:	c3                   	retq   

0000000000009340 <_ZSt19__relocate_object_aISt4pairIiiES1_SaIS1_EEvPT_PT0_RT1_>:
    9340:	55                   	push   %rbp
    9341:	48 89 e5             	mov    %rsp,%rbp
    9344:	48 83 ec 20          	sub    $0x20,%rsp
    9348:	48 89 7d f8          	mov    %rdi,-0x8(%rbp)
    934c:	48 89 75 f0          	mov    %rsi,-0x10(%rbp)
    9350:	48 89 55 e8          	mov    %rdx,-0x18(%rbp)
    9354:	48 8b 45 f0          	mov    -0x10(%rbp),%rax
    9358:	48 89 c7             	mov    %rax,%rdi
    935b:	e8 dc d9 ff ff       	callq  6d3c <_ZSt4moveIRSt4pairIiiEEONSt16remove_referenceIT_E4typeEOS4_>
    9360:	48 89 c2             	mov    %rax,%rdx
    9363:	48 8b 4d f8          	mov    -0x8(%rbp),%rcx
    9367:	48 8b 45 e8          	mov    -0x18(%rbp),%rax
    936b:	48 89 ce             	mov    %rcx,%rsi
    936e:	48 89 c7             	mov    %rax,%rdi
    9371:	e8 52 e9 ff ff       	callq  7cc8 <_ZNSt16allocator_traitsISaISt4pairIiiEEE9constructIS1_JS1_EEEvRS2_PT_DpOT0_>
    9376:	48 8b 45 f0          	mov    -0x10(%rbp),%rax
    937a:	48 89 c7             	mov    %rax,%rdi
    937d:	e8 b0 ff ff ff       	callq  9332 <_ZSt11__addressofISt4pairIiiEEPT_RS2_>
    9382:	48 89 c2             	mov    %rax,%rdx
    9385:	48 8b 45 e8          	mov    -0x18(%rbp),%rax
    9389:	48 89 d6             	mov    %rdx,%rsi
    938c:	48 89 c7             	mov    %rax,%rdi
    938f:	e8 7a f6 ff ff       	callq  8a0e <_ZNSt16allocator_traitsISaISt4pairIiiEEE7destroyIS1_EEvRS2_PT_>
    9394:	90                   	nop
    9395:	c9                   	leaveq 
    9396:	c3                   	retq   

0000000000009397 <_ZNSt11__copy_moveILb1ELb0ESt26random_access_iterator_tagE8__copy_mIPSt4pairIiiES5_EET0_T_S7_S6_>:
    9397:	55                   	push   %rbp
    9398:	48 89 e5             	mov    %rsp,%rbp
    939b:	48 83 ec 30          	sub    $0x30,%rsp
    939f:	48 89 7d e8          	mov    %rdi,-0x18(%rbp)
    93a3:	48 89 75 e0          	mov    %rsi,-0x20(%rbp)
    93a7:	48 89 55 d8          	mov    %rdx,-0x28(%rbp)
    93ab:	48 8b 45 e0          	mov    -0x20(%rbp),%rax
    93af:	48 2b 45 e8          	sub    -0x18(%rbp),%rax
    93b3:	48 c1 f8 03          	sar    $0x3,%rax
    93b7:	48 89 45 f8          	mov    %rax,-0x8(%rbp)
    93bb:	48 83 7d f8 00       	cmpq   $0x0,-0x8(%rbp)
    93c0:	7e 2f                	jle    93f1 <_ZNSt11__copy_moveILb1ELb0ESt26random_access_iterator_tagE8__copy_mIPSt4pairIiiES5_EET0_T_S7_S6_+0x5a>
    93c2:	48 8b 45 e8          	mov    -0x18(%rbp),%rax
    93c6:	48 89 c7             	mov    %rax,%rdi
    93c9:	e8 6e d9 ff ff       	callq  6d3c <_ZSt4moveIRSt4pairIiiEEONSt16remove_referenceIT_E4typeEOS4_>
    93ce:	48 89 c2             	mov    %rax,%rdx
    93d1:	48 8b 45 d8          	mov    -0x28(%rbp),%rax
    93d5:	48 89 d6             	mov    %rdx,%rsi
    93d8:	48 89 c7             	mov    %rax,%rdi
    93db:	e8 c2 01 00 00       	callq  95a2 <_ZNSt4pairIiiEaSEOS0_>
    93e0:	48 83 45 e8 08       	addq   $0x8,-0x18(%rbp)
    93e5:	48 83 45 d8 08       	addq   $0x8,-0x28(%rbp)
    93ea:	48 83 6d f8 01       	subq   $0x1,-0x8(%rbp)
    93ef:	eb ca                	jmp    93bb <_ZNSt11__copy_moveILb1ELb0ESt26random_access_iterator_tagE8__copy_mIPSt4pairIiiES5_EET0_T_S7_S6_+0x24>
    93f1:	48 8b 45 d8          	mov    -0x28(%rbp),%rax
    93f5:	c9                   	leaveq 
    93f6:	c3                   	retq   

00000000000093f7 <_ZSt4copyIPKiPiET0_T_S4_S3_>:
    93f7:	55                   	push   %rbp
    93f8:	48 89 e5             	mov    %rsp,%rbp
    93fb:	53                   	push   %rbx
    93fc:	48 83 ec 28          	sub    $0x28,%rsp
    9400:	48 89 7d e8          	mov    %rdi,-0x18(%rbp)
    9404:	48 89 75 e0          	mov    %rsi,-0x20(%rbp)
    9408:	48 89 55 d8          	mov    %rdx,-0x28(%rbp)
    940c:	48 8b 45 e0          	mov    -0x20(%rbp),%rax
    9410:	48 89 c7             	mov    %rax,%rdi
    9413:	e8 cd 01 00 00       	callq  95e5 <_ZSt12__miter_baseIPKiET_S2_>
    9418:	48 89 c3             	mov    %rax,%rbx
    941b:	48 8b 45 e8          	mov    -0x18(%rbp),%rax
    941f:	48 89 c7             	mov    %rax,%rdi
    9422:	e8 be 01 00 00       	callq  95e5 <_ZSt12__miter_baseIPKiET_S2_>
    9427:	48 89 c1             	mov    %rax,%rcx
    942a:	48 8b 45 d8          	mov    -0x28(%rbp),%rax
    942e:	48 89 c2             	mov    %rax,%rdx
    9431:	48 89 de             	mov    %rbx,%rsi
    9434:	48 89 cf             	mov    %rcx,%rdi
    9437:	e8 b7 01 00 00       	callq  95f3 <_ZSt14__copy_move_a2ILb0EPKiPiET1_T0_S4_S3_>
    943c:	48 83 c4 28          	add    $0x28,%rsp
    9440:	5b                   	pop    %rbx
    9441:	5d                   	pop    %rbp
    9442:	c3                   	retq   
    9443:	90                   	nop

0000000000009444 <_ZNK9__gnu_cxx13new_allocatorImE8max_sizeEv>:
    9444:	55                   	push   %rbp
    9445:	48 89 e5             	mov    %rsp,%rbp
    9448:	48 89 7d f8          	mov    %rdi,-0x8(%rbp)
    944c:	48 b8 ff ff ff ff ff 	movabs $0xfffffffffffffff,%rax
    9453:	ff ff 0f 
    9456:	5d                   	pop    %rbp
    9457:	c3                   	retq   

0000000000009458 <_ZSt4copyIPKmPmET0_T_S4_S3_>:
    9458:	55                   	push   %rbp
    9459:	48 89 e5             	mov    %rsp,%rbp
    945c:	53                   	push   %rbx
    945d:	48 83 ec 28          	sub    $0x28,%rsp
    9461:	48 89 7d e8          	mov    %rdi,-0x18(%rbp)
    9465:	48 89 75 e0          	mov    %rsi,-0x20(%rbp)
    9469:	48 89 55 d8          	mov    %rdx,-0x28(%rbp)
    946d:	48 8b 45 e0          	mov    -0x20(%rbp),%rax
    9471:	48 89 c7             	mov    %rax,%rdi
    9474:	e8 e4 01 00 00       	callq  965d <_ZSt12__miter_baseIPKmET_S2_>
    9479:	48 89 c3             	mov    %rax,%rbx
    947c:	48 8b 45 e8          	mov    -0x18(%rbp),%rax
    9480:	48 89 c7             	mov    %rax,%rdi
    9483:	e8 d5 01 00 00       	callq  965d <_ZSt12__miter_baseIPKmET_S2_>
    9488:	48 89 c1             	mov    %rax,%rcx
    948b:	48 8b 45 d8          	mov    -0x28(%rbp),%rax
    948f:	48 89 c2             	mov    %rax,%rdx
    9492:	48 89 de             	mov    %rbx,%rsi
    9495:	48 89 cf             	mov    %rcx,%rdi
    9498:	e8 ce 01 00 00       	callq  966b <_ZSt14__copy_move_a2ILb0EPKmPmET1_T0_S4_S3_>
    949d:	48 83 c4 28          	add    $0x28,%rsp
    94a1:	5b                   	pop    %rbx
    94a2:	5d                   	pop    %rbp
    94a3:	c3                   	retq   

00000000000094a4 <_ZNSt11_Tuple_implILm0EJPFPvS0_EP10arg_structIiiEEE7_M_tailERS6_>:
    94a4:	55                   	push   %rbp
    94a5:	48 89 e5             	mov    %rsp,%rbp
    94a8:	48 89 7d f8          	mov    %rdi,-0x8(%rbp)
    94ac:	48 8b 45 f8          	mov    -0x8(%rbp),%rax
    94b0:	5d                   	pop    %rbp
    94b1:	c3                   	retq   

00000000000094b2 <_ZSt4moveIRSt11_Tuple_implILm1EJP10arg_structIiiEEEEONSt16remove_referenceIT_E4typeEOS7_>:
    94b2:	55                   	push   %rbp
    94b3:	48 89 e5             	mov    %rsp,%rbp
    94b6:	48 89 7d f8          	mov    %rdi,-0x8(%rbp)
    94ba:	48 8b 45 f8          	mov    -0x8(%rbp),%rax
    94be:	5d                   	pop    %rbp
    94bf:	c3                   	retq   

00000000000094c0 <_ZNSt11_Tuple_implILm0EJPFPvS0_EP10arg_structIiiEEE7_M_headERS6_>:
    94c0:	55                   	push   %rbp
    94c1:	48 89 e5             	mov    %rsp,%rbp
    94c4:	48 83 ec 10          	sub    $0x10,%rsp
    94c8:	48 89 7d f8          	mov    %rdi,-0x8(%rbp)
    94cc:	48 8b 45 f8          	mov    -0x8(%rbp),%rax
    94d0:	48 83 c0 08          	add    $0x8,%rax
    94d4:	48 89 c7             	mov    %rax,%rdi
    94d7:	e8 f9 01 00 00       	callq  96d5 <_ZNSt10_Head_baseILm0EPFPvS0_ELb0EE7_M_headERS3_>
    94dc:	c9                   	leaveq 
    94dd:	c3                   	retq   

00000000000094de <_ZSt7forwardIPFPvS0_EEOT_RNSt16remove_referenceIS3_E4typeE>:
    94de:	55                   	push   %rbp
    94df:	48 89 e5             	mov    %rsp,%rbp
    94e2:	48 89 7d f8          	mov    %rdi,-0x8(%rbp)
    94e6:	48 8b 45 f8          	mov    -0x8(%rbp),%rax
    94ea:	5d                   	pop    %rbp
    94eb:	c3                   	retq   

00000000000094ec <_ZNSt11_Tuple_implILm1EJP10arg_structIiiEEEC1EOS3_>:
    94ec:	55                   	push   %rbp
    94ed:	48 89 e5             	mov    %rsp,%rbp
    94f0:	53                   	push   %rbx
    94f1:	48 83 ec 18          	sub    $0x18,%rsp
    94f5:	48 89 7d e8          	mov    %rdi,-0x18(%rbp)
    94f9:	48 89 75 e0          	mov    %rsi,-0x20(%rbp)
    94fd:	48 8b 5d e8          	mov    -0x18(%rbp),%rbx
    9501:	48 8b 45 e0          	mov    -0x20(%rbp),%rax
    9505:	48 89 c7             	mov    %rax,%rdi
    9508:	e8 d6 01 00 00       	callq  96e3 <_ZNSt11_Tuple_implILm1EJP10arg_structIiiEEE7_M_headERS3_>
    950d:	48 89 c7             	mov    %rax,%rdi
    9510:	e8 1d f1 ff ff       	callq  8632 <_ZSt7forwardIP10arg_structIiiEEOT_RNSt16remove_referenceIS3_E4typeE>
    9515:	48 89 c6             	mov    %rax,%rsi
    9518:	48 89 df             	mov    %rbx,%rdi
    951b:	e8 24 f2 ff ff       	callq  8744 <_ZNSt10_Head_baseILm1EP10arg_structIiiELb0EEC1IS2_EEOT_>
    9520:	90                   	nop
    9521:	48 83 c4 18          	add    $0x18,%rsp
    9525:	5b                   	pop    %rbx
    9526:	5d                   	pop    %rbp
    9527:	c3                   	retq   

0000000000009528 <_ZNSt10_Head_baseILm0EPFPvS0_ELb0EEC1IS2_EEOT_>:
    9528:	55                   	push   %rbp
    9529:	48 89 e5             	mov    %rsp,%rbp
    952c:	48 83 ec 10          	sub    $0x10,%rsp
    9530:	48 89 7d f8          	mov    %rdi,-0x8(%rbp)
    9534:	48 89 75 f0          	mov    %rsi,-0x10(%rbp)
    9538:	48 8b 45 f0          	mov    -0x10(%rbp),%rax
    953c:	48 89 c7             	mov    %rax,%rdi
    953f:	e8 9a ff ff ff       	callq  94de <_ZSt7forwardIPFPvS0_EEOT_RNSt16remove_referenceIS3_E4typeE>
    9544:	48 8b 10             	mov    (%rax),%rdx
    9547:	48 8b 45 f8          	mov    -0x8(%rbp),%rax
    954b:	48 89 10             	mov    %rdx,(%rax)
    954e:	90                   	nop
    954f:	c9                   	leaveq 
    9550:	c3                   	retq   
    9551:	90                   	nop

0000000000009552 <_ZNSt5tupleIJPNSt6thread6_StateESt14default_deleteIS1_EEEC1IS2_S4_Lb1EEEv>:
    9552:	55                   	push   %rbp
    9553:	48 89 e5             	mov    %rsp,%rbp
    9556:	48 83 ec 10          	sub    $0x10,%rsp
    955a:	48 89 7d f8          	mov    %rdi,-0x8(%rbp)
    955e:	48 8b 45 f8          	mov    -0x8(%rbp),%rax
    9562:	48 89 c7             	mov    %rax,%rdi
    9565:	e8 94 01 00 00       	callq  96fe <_ZNSt11_Tuple_implILm0EJPNSt6thread6_StateESt14default_deleteIS1_EEEC1Ev>
    956a:	90                   	nop
    956b:	c9                   	leaveq 
    956c:	c3                   	retq   

000000000000956d <_ZSt12__get_helperILm0EPNSt6thread6_StateEJSt14default_deleteIS1_EEERT0_RSt11_Tuple_implIXT_EJS5_DpT1_EE>:
    956d:	55                   	push   %rbp
    956e:	48 89 e5             	mov    %rsp,%rbp
    9571:	48 83 ec 10          	sub    $0x10,%rsp
    9575:	48 89 7d f8          	mov    %rdi,-0x8(%rbp)
    9579:	48 8b 45 f8          	mov    -0x8(%rbp),%rax
    957d:	48 89 c7             	mov    %rax,%rdi
    9580:	e8 a0 01 00 00       	callq  9725 <_ZNSt11_Tuple_implILm0EJPNSt6thread6_StateESt14default_deleteIS1_EEE7_M_headERS5_>
    9585:	c9                   	leaveq 
    9586:	c3                   	retq   

0000000000009587 <_ZSt3getILm1EJPNSt6thread6_StateESt14default_deleteIS1_EEERNSt13tuple_elementIXT_ESt5tupleIJDpT0_EEE4typeERS9_>:
    9587:	55                   	push   %rbp
    9588:	48 89 e5             	mov    %rsp,%rbp
    958b:	48 83 ec 10          	sub    $0x10,%rsp
    958f:	48 89 7d f8          	mov    %rdi,-0x8(%rbp)
    9593:	48 8b 45 f8          	mov    -0x8(%rbp),%rax
    9597:	48 89 c7             	mov    %rax,%rdi
    959a:	e8 a0 01 00 00       	callq  973f <_ZSt12__get_helperILm1ESt14default_deleteINSt6thread6_StateEEJEERT0_RSt11_Tuple_implIXT_EJS4_DpT1_EE>
    959f:	c9                   	leaveq 
    95a0:	c3                   	retq   
    95a1:	90                   	nop

00000000000095a2 <_ZNSt4pairIiiEaSEOS0_>:
    95a2:	55                   	push   %rbp
    95a3:	48 89 e5             	mov    %rsp,%rbp
    95a6:	48 83 ec 10          	sub    $0x10,%rsp
    95aa:	48 89 7d f8          	mov    %rdi,-0x8(%rbp)
    95ae:	48 89 75 f0          	mov    %rsi,-0x10(%rbp)
    95b2:	48 8b 45 f0          	mov    -0x10(%rbp),%rax
    95b6:	48 89 c7             	mov    %rax,%rdi
    95b9:	e8 20 b4 ff ff       	callq  49de <_ZSt7forwardIiEOT_RNSt16remove_referenceIS0_E4typeE>
    95be:	8b 10                	mov    (%rax),%edx
    95c0:	48 8b 45 f8          	mov    -0x8(%rbp),%rax
    95c4:	89 10                	mov    %edx,(%rax)
    95c6:	48 8b 45 f0          	mov    -0x10(%rbp),%rax
    95ca:	48 83 c0 04          	add    $0x4,%rax
    95ce:	48 89 c7             	mov    %rax,%rdi
    95d1:	e8 08 b4 ff ff       	callq  49de <_ZSt7forwardIiEOT_RNSt16remove_referenceIS0_E4typeE>
    95d6:	8b 10                	mov    (%rax),%edx
    95d8:	48 8b 45 f8          	mov    -0x8(%rbp),%rax
    95dc:	89 50 04             	mov    %edx,0x4(%rax)
    95df:	48 8b 45 f8          	mov    -0x8(%rbp),%rax
    95e3:	c9                   	leaveq 
    95e4:	c3                   	retq   

00000000000095e5 <_ZSt12__miter_baseIPKiET_S2_>:
    95e5:	55                   	push   %rbp
    95e6:	48 89 e5             	mov    %rsp,%rbp
    95e9:	48 89 7d f8          	mov    %rdi,-0x8(%rbp)
    95ed:	48 8b 45 f8          	mov    -0x8(%rbp),%rax
    95f1:	5d                   	pop    %rbp
    95f2:	c3                   	retq   

00000000000095f3 <_ZSt14__copy_move_a2ILb0EPKiPiET1_T0_S4_S3_>:
    95f3:	55                   	push   %rbp
    95f4:	48 89 e5             	mov    %rsp,%rbp
    95f7:	41 54                	push   %r12
    95f9:	53                   	push   %rbx
    95fa:	48 83 ec 20          	sub    $0x20,%rsp
    95fe:	48 89 7d e8          	mov    %rdi,-0x18(%rbp)
    9602:	48 89 75 e0          	mov    %rsi,-0x20(%rbp)
    9606:	48 89 55 d8          	mov    %rdx,-0x28(%rbp)
    960a:	48 8b 45 d8          	mov    -0x28(%rbp),%rax
    960e:	48 89 c7             	mov    %rax,%rdi
    9611:	e8 56 fa ff ff       	callq  906c <_ZSt12__niter_baseIPiET_S1_>
    9616:	49 89 c4             	mov    %rax,%r12
    9619:	48 8b 45 e0          	mov    -0x20(%rbp),%rax
    961d:	48 89 c7             	mov    %rax,%rdi
    9620:	e8 34 01 00 00       	callq  9759 <_ZSt12__niter_baseIPKiET_S2_>
    9625:	48 89 c3             	mov    %rax,%rbx
    9628:	48 8b 45 e8          	mov    -0x18(%rbp),%rax
    962c:	48 89 c7             	mov    %rax,%rdi
    962f:	e8 25 01 00 00       	callq  9759 <_ZSt12__niter_baseIPKiET_S2_>
    9634:	4c 89 e2             	mov    %r12,%rdx
    9637:	48 89 de             	mov    %rbx,%rsi
    963a:	48 89 c7             	mov    %rax,%rdi
    963d:	e8 25 01 00 00       	callq  9767 <_ZSt13__copy_move_aILb0EPKiPiET1_T0_S4_S3_>
    9642:	48 89 c2             	mov    %rax,%rdx
    9645:	48 8d 45 d8          	lea    -0x28(%rbp),%rax
    9649:	48 89 d6             	mov    %rdx,%rsi
    964c:	48 89 c7             	mov    %rax,%rdi
    964f:	e8 44 01 00 00       	callq  9798 <_ZSt12__niter_wrapIPiET_RKS1_S1_>
    9654:	48 83 c4 20          	add    $0x20,%rsp
    9658:	5b                   	pop    %rbx
    9659:	41 5c                	pop    %r12
    965b:	5d                   	pop    %rbp
    965c:	c3                   	retq   

000000000000965d <_ZSt12__miter_baseIPKmET_S2_>:
    965d:	55                   	push   %rbp
    965e:	48 89 e5             	mov    %rsp,%rbp
    9661:	48 89 7d f8          	mov    %rdi,-0x8(%rbp)
    9665:	48 8b 45 f8          	mov    -0x8(%rbp),%rax
    9669:	5d                   	pop    %rbp
    966a:	c3                   	retq   

000000000000966b <_ZSt14__copy_move_a2ILb0EPKmPmET1_T0_S4_S3_>:
    966b:	55                   	push   %rbp
    966c:	48 89 e5             	mov    %rsp,%rbp
    966f:	41 54                	push   %r12
    9671:	53                   	push   %rbx
    9672:	48 83 ec 20          	sub    $0x20,%rsp
    9676:	48 89 7d e8          	mov    %rdi,-0x18(%rbp)
    967a:	48 89 75 e0          	mov    %rsi,-0x20(%rbp)
    967e:	48 89 55 d8          	mov    %rdx,-0x28(%rbp)
    9682:	48 8b 45 d8          	mov    -0x28(%rbp),%rax
    9686:	48 89 c7             	mov    %rax,%rdi
    9689:	e8 2a 01 00 00       	callq  97b8 <_ZSt12__niter_baseIPmET_S1_>
    968e:	49 89 c4             	mov    %rax,%r12
    9691:	48 8b 45 e0          	mov    -0x20(%rbp),%rax
    9695:	48 89 c7             	mov    %rax,%rdi
    9698:	e8 0d 01 00 00       	callq  97aa <_ZSt12__niter_baseIPKmET_S2_>
    969d:	48 89 c3             	mov    %rax,%rbx
    96a0:	48 8b 45 e8          	mov    -0x18(%rbp),%rax
    96a4:	48 89 c7             	mov    %rax,%rdi
    96a7:	e8 fe 00 00 00       	callq  97aa <_ZSt12__niter_baseIPKmET_S2_>
    96ac:	4c 89 e2             	mov    %r12,%rdx
    96af:	48 89 de             	mov    %rbx,%rsi
    96b2:	48 89 c7             	mov    %rax,%rdi
    96b5:	e8 0c 01 00 00       	callq  97c6 <_ZSt13__copy_move_aILb0EPKmPmET1_T0_S4_S3_>
    96ba:	48 89 c2             	mov    %rax,%rdx
    96bd:	48 8d 45 d8          	lea    -0x28(%rbp),%rax
    96c1:	48 89 d6             	mov    %rdx,%rsi
    96c4:	48 89 c7             	mov    %rax,%rdi
    96c7:	e8 2b 01 00 00       	callq  97f7 <_ZSt12__niter_wrapIPmET_RKS1_S1_>
    96cc:	48 83 c4 20          	add    $0x20,%rsp
    96d0:	5b                   	pop    %rbx
    96d1:	41 5c                	pop    %r12
    96d3:	5d                   	pop    %rbp
    96d4:	c3                   	retq   

00000000000096d5 <_ZNSt10_Head_baseILm0EPFPvS0_ELb0EE7_M_headERS3_>:
    96d5:	55                   	push   %rbp
    96d6:	48 89 e5             	mov    %rsp,%rbp
    96d9:	48 89 7d f8          	mov    %rdi,-0x8(%rbp)
    96dd:	48 8b 45 f8          	mov    -0x8(%rbp),%rax
    96e1:	5d                   	pop    %rbp
    96e2:	c3                   	retq   

00000000000096e3 <_ZNSt11_Tuple_implILm1EJP10arg_structIiiEEE7_M_headERS3_>:
    96e3:	55                   	push   %rbp
    96e4:	48 89 e5             	mov    %rsp,%rbp
    96e7:	48 83 ec 10          	sub    $0x10,%rsp
    96eb:	48 89 7d f8          	mov    %rdi,-0x8(%rbp)
    96ef:	48 8b 45 f8          	mov    -0x8(%rbp),%rax
    96f3:	48 89 c7             	mov    %rax,%rdi
    96f6:	e8 0e 01 00 00       	callq  9809 <_ZNSt10_Head_baseILm1EP10arg_structIiiELb0EE7_M_headERS3_>
    96fb:	c9                   	leaveq 
    96fc:	c3                   	retq   
    96fd:	90                   	nop

00000000000096fe <_ZNSt11_Tuple_implILm0EJPNSt6thread6_StateESt14default_deleteIS1_EEEC1Ev>:
    96fe:	55                   	push   %rbp
    96ff:	48 89 e5             	mov    %rsp,%rbp
    9702:	48 83 ec 10          	sub    $0x10,%rsp
    9706:	48 89 7d f8          	mov    %rdi,-0x8(%rbp)
    970a:	48 8b 45 f8          	mov    -0x8(%rbp),%rax
    970e:	48 89 c7             	mov    %rax,%rdi
    9711:	e8 02 01 00 00       	callq  9818 <_ZNSt11_Tuple_implILm1EJSt14default_deleteINSt6thread6_StateEEEEC1Ev>
    9716:	48 8b 45 f8          	mov    -0x8(%rbp),%rax
    971a:	48 89 c7             	mov    %rax,%rdi
    971d:	e8 12 01 00 00       	callq  9834 <_ZNSt10_Head_baseILm0EPNSt6thread6_StateELb0EEC1Ev>
    9722:	90                   	nop
    9723:	c9                   	leaveq 
    9724:	c3                   	retq   

0000000000009725 <_ZNSt11_Tuple_implILm0EJPNSt6thread6_StateESt14default_deleteIS1_EEE7_M_headERS5_>:
    9725:	55                   	push   %rbp
    9726:	48 89 e5             	mov    %rsp,%rbp
    9729:	48 83 ec 10          	sub    $0x10,%rsp
    972d:	48 89 7d f8          	mov    %rdi,-0x8(%rbp)
    9731:	48 8b 45 f8          	mov    -0x8(%rbp),%rax
    9735:	48 89 c7             	mov    %rax,%rdi
    9738:	e8 0d 01 00 00       	callq  984a <_ZNSt10_Head_baseILm0EPNSt6thread6_StateELb0EE7_M_headERS3_>
    973d:	c9                   	leaveq 
    973e:	c3                   	retq   

000000000000973f <_ZSt12__get_helperILm1ESt14default_deleteINSt6thread6_StateEEJEERT0_RSt11_Tuple_implIXT_EJS4_DpT1_EE>:
    973f:	55                   	push   %rbp
    9740:	48 89 e5             	mov    %rsp,%rbp
    9743:	48 83 ec 10          	sub    $0x10,%rsp
    9747:	48 89 7d f8          	mov    %rdi,-0x8(%rbp)
    974b:	48 8b 45 f8          	mov    -0x8(%rbp),%rax
    974f:	48 89 c7             	mov    %rax,%rdi
    9752:	e8 01 01 00 00       	callq  9858 <_ZNSt11_Tuple_implILm1EJSt14default_deleteINSt6thread6_StateEEEE7_M_headERS4_>
    9757:	c9                   	leaveq 
    9758:	c3                   	retq   

0000000000009759 <_ZSt12__niter_baseIPKiET_S2_>:
    9759:	55                   	push   %rbp
    975a:	48 89 e5             	mov    %rsp,%rbp
    975d:	48 89 7d f8          	mov    %rdi,-0x8(%rbp)
    9761:	48 8b 45 f8          	mov    -0x8(%rbp),%rax
    9765:	5d                   	pop    %rbp
    9766:	c3                   	retq   

0000000000009767 <_ZSt13__copy_move_aILb0EPKiPiET1_T0_S4_S3_>:
    9767:	55                   	push   %rbp
    9768:	48 89 e5             	mov    %rsp,%rbp
    976b:	48 83 ec 30          	sub    $0x30,%rsp
    976f:	48 89 7d e8          	mov    %rdi,-0x18(%rbp)
    9773:	48 89 75 e0          	mov    %rsi,-0x20(%rbp)
    9777:	48 89 55 d8          	mov    %rdx,-0x28(%rbp)
    977b:	c6 45 ff 01          	movb   $0x1,-0x1(%rbp)
    977f:	48 8b 55 d8          	mov    -0x28(%rbp),%rdx
    9783:	48 8b 4d e0          	mov    -0x20(%rbp),%rcx
    9787:	48 8b 45 e8          	mov    -0x18(%rbp),%rax
    978b:	48 89 ce             	mov    %rcx,%rsi
    978e:	48 89 c7             	mov    %rax,%rdi
    9791:	e8 dc 00 00 00       	callq  9872 <_ZNSt11__copy_moveILb0ELb1ESt26random_access_iterator_tagE8__copy_mIiEEPT_PKS3_S6_S4_>
    9796:	c9                   	leaveq 
    9797:	c3                   	retq   

0000000000009798 <_ZSt12__niter_wrapIPiET_RKS1_S1_>:
    9798:	55                   	push   %rbp
    9799:	48 89 e5             	mov    %rsp,%rbp
    979c:	48 89 7d f8          	mov    %rdi,-0x8(%rbp)
    97a0:	48 89 75 f0          	mov    %rsi,-0x10(%rbp)
    97a4:	48 8b 45 f0          	mov    -0x10(%rbp),%rax
    97a8:	5d                   	pop    %rbp
    97a9:	c3                   	retq   

00000000000097aa <_ZSt12__niter_baseIPKmET_S2_>:
    97aa:	55                   	push   %rbp
    97ab:	48 89 e5             	mov    %rsp,%rbp
    97ae:	48 89 7d f8          	mov    %rdi,-0x8(%rbp)
    97b2:	48 8b 45 f8          	mov    -0x8(%rbp),%rax
    97b6:	5d                   	pop    %rbp
    97b7:	c3                   	retq   

00000000000097b8 <_ZSt12__niter_baseIPmET_S1_>:
    97b8:	55                   	push   %rbp
    97b9:	48 89 e5             	mov    %rsp,%rbp
    97bc:	48 89 7d f8          	mov    %rdi,-0x8(%rbp)
    97c0:	48 8b 45 f8          	mov    -0x8(%rbp),%rax
    97c4:	5d                   	pop    %rbp
    97c5:	c3                   	retq   

00000000000097c6 <_ZSt13__copy_move_aILb0EPKmPmET1_T0_S4_S3_>:
    97c6:	55                   	push   %rbp
    97c7:	48 89 e5             	mov    %rsp,%rbp
    97ca:	48 83 ec 30          	sub    $0x30,%rsp
    97ce:	48 89 7d e8          	mov    %rdi,-0x18(%rbp)
    97d2:	48 89 75 e0          	mov    %rsi,-0x20(%rbp)
    97d6:	48 89 55 d8          	mov    %rdx,-0x28(%rbp)
    97da:	c6 45 ff 01          	movb   $0x1,-0x1(%rbp)
    97de:	48 8b 55 d8          	mov    -0x28(%rbp),%rdx
    97e2:	48 8b 4d e0          	mov    -0x20(%rbp),%rcx
    97e6:	48 8b 45 e8          	mov    -0x18(%rbp),%rax
    97ea:	48 89 ce             	mov    %rcx,%rsi
    97ed:	48 89 c7             	mov    %rax,%rdi
    97f0:	e8 dc 00 00 00       	callq  98d1 <_ZNSt11__copy_moveILb0ELb1ESt26random_access_iterator_tagE8__copy_mImEEPT_PKS3_S6_S4_>
    97f5:	c9                   	leaveq 
    97f6:	c3                   	retq   

00000000000097f7 <_ZSt12__niter_wrapIPmET_RKS1_S1_>:
    97f7:	55                   	push   %rbp
    97f8:	48 89 e5             	mov    %rsp,%rbp
    97fb:	48 89 7d f8          	mov    %rdi,-0x8(%rbp)
    97ff:	48 89 75 f0          	mov    %rsi,-0x10(%rbp)
    9803:	48 8b 45 f0          	mov    -0x10(%rbp),%rax
    9807:	5d                   	pop    %rbp
    9808:	c3                   	retq   

0000000000009809 <_ZNSt10_Head_baseILm1EP10arg_structIiiELb0EE7_M_headERS3_>:
    9809:	55                   	push   %rbp
    980a:	48 89 e5             	mov    %rsp,%rbp
    980d:	48 89 7d f8          	mov    %rdi,-0x8(%rbp)
    9811:	48 8b 45 f8          	mov    -0x8(%rbp),%rax
    9815:	5d                   	pop    %rbp
    9816:	c3                   	retq   
    9817:	90                   	nop

0000000000009818 <_ZNSt11_Tuple_implILm1EJSt14default_deleteINSt6thread6_StateEEEEC1Ev>:
    9818:	55                   	push   %rbp
    9819:	48 89 e5             	mov    %rsp,%rbp
    981c:	48 83 ec 10          	sub    $0x10,%rsp
    9820:	48 89 7d f8          	mov    %rdi,-0x8(%rbp)
    9824:	48 8b 45 f8          	mov    -0x8(%rbp),%rax
    9828:	48 89 c7             	mov    %rax,%rdi
    982b:	e8 00 01 00 00       	callq  9930 <_ZNSt10_Head_baseILm1ESt14default_deleteINSt6thread6_StateEELb1EEC1Ev>
    9830:	90                   	nop
    9831:	c9                   	leaveq 
    9832:	c3                   	retq   
    9833:	90                   	nop

0000000000009834 <_ZNSt10_Head_baseILm0EPNSt6thread6_StateELb0EEC1Ev>:
    9834:	55                   	push   %rbp
    9835:	48 89 e5             	mov    %rsp,%rbp
    9838:	48 89 7d f8          	mov    %rdi,-0x8(%rbp)
    983c:	48 8b 45 f8          	mov    -0x8(%rbp),%rax
    9840:	48 c7 00 00 00 00 00 	movq   $0x0,(%rax)
    9847:	90                   	nop
    9848:	5d                   	pop    %rbp
    9849:	c3                   	retq   

000000000000984a <_ZNSt10_Head_baseILm0EPNSt6thread6_StateELb0EE7_M_headERS3_>:
    984a:	55                   	push   %rbp
    984b:	48 89 e5             	mov    %rsp,%rbp
    984e:	48 89 7d f8          	mov    %rdi,-0x8(%rbp)
    9852:	48 8b 45 f8          	mov    -0x8(%rbp),%rax
    9856:	5d                   	pop    %rbp
    9857:	c3                   	retq   

0000000000009858 <_ZNSt11_Tuple_implILm1EJSt14default_deleteINSt6thread6_StateEEEE7_M_headERS4_>:
    9858:	55                   	push   %rbp
    9859:	48 89 e5             	mov    %rsp,%rbp
    985c:	48 83 ec 10          	sub    $0x10,%rsp
    9860:	48 89 7d f8          	mov    %rdi,-0x8(%rbp)
    9864:	48 8b 45 f8          	mov    -0x8(%rbp),%rax
    9868:	48 89 c7             	mov    %rax,%rdi
    986b:	e8 cb 00 00 00       	callq  993b <_ZNSt10_Head_baseILm1ESt14default_deleteINSt6thread6_StateEELb1EE7_M_headERS4_>
    9870:	c9                   	leaveq 
    9871:	c3                   	retq   

0000000000009872 <_ZNSt11__copy_moveILb0ELb1ESt26random_access_iterator_tagE8__copy_mIiEEPT_PKS3_S6_S4_>:
    9872:	55                   	push   %rbp
    9873:	48 89 e5             	mov    %rsp,%rbp
    9876:	48 83 ec 30          	sub    $0x30,%rsp
    987a:	48 89 7d e8          	mov    %rdi,-0x18(%rbp)
    987e:	48 89 75 e0          	mov    %rsi,-0x20(%rbp)
    9882:	48 89 55 d8          	mov    %rdx,-0x28(%rbp)
    9886:	48 8b 45 e0          	mov    -0x20(%rbp),%rax
    988a:	48 2b 45 e8          	sub    -0x18(%rbp),%rax
    988e:	48 c1 f8 02          	sar    $0x2,%rax
    9892:	48 89 45 f8          	mov    %rax,-0x8(%rbp)
    9896:	48 83 7d f8 00       	cmpq   $0x0,-0x8(%rbp)
    989b:	74 1f                	je     98bc <_ZNSt11__copy_moveILb0ELb1ESt26random_access_iterator_tagE8__copy_mIiEEPT_PKS3_S6_S4_+0x4a>
    989d:	48 8b 45 f8          	mov    -0x8(%rbp),%rax
    98a1:	48 8d 14 85 00 00 00 	lea    0x0(,%rax,4),%rdx
    98a8:	00 
    98a9:	48 8b 4d e8          	mov    -0x18(%rbp),%rcx
    98ad:	48 8b 45 d8          	mov    -0x28(%rbp),%rax
    98b1:	48 89 ce             	mov    %rcx,%rsi
    98b4:	48 89 c7             	mov    %rax,%rdi
    98b7:	e8 44 83 ff ff       	callq  1c00 <memmove@plt>
    98bc:	48 8b 45 f8          	mov    -0x8(%rbp),%rax
    98c0:	48 8d 14 85 00 00 00 	lea    0x0(,%rax,4),%rdx
    98c7:	00 
    98c8:	48 8b 45 d8          	mov    -0x28(%rbp),%rax
    98cc:	48 01 d0             	add    %rdx,%rax
    98cf:	c9                   	leaveq 
    98d0:	c3                   	retq   

00000000000098d1 <_ZNSt11__copy_moveILb0ELb1ESt26random_access_iterator_tagE8__copy_mImEEPT_PKS3_S6_S4_>:
    98d1:	55                   	push   %rbp
    98d2:	48 89 e5             	mov    %rsp,%rbp
    98d5:	48 83 ec 30          	sub    $0x30,%rsp
    98d9:	48 89 7d e8          	mov    %rdi,-0x18(%rbp)
    98dd:	48 89 75 e0          	mov    %rsi,-0x20(%rbp)
    98e1:	48 89 55 d8          	mov    %rdx,-0x28(%rbp)
    98e5:	48 8b 45 e0          	mov    -0x20(%rbp),%rax
    98e9:	48 2b 45 e8          	sub    -0x18(%rbp),%rax
    98ed:	48 c1 f8 03          	sar    $0x3,%rax
    98f1:	48 89 45 f8          	mov    %rax,-0x8(%rbp)
    98f5:	48 83 7d f8 00       	cmpq   $0x0,-0x8(%rbp)
    98fa:	74 1f                	je     991b <_ZNSt11__copy_moveILb0ELb1ESt26random_access_iterator_tagE8__copy_mImEEPT_PKS3_S6_S4_+0x4a>
    98fc:	48 8b 45 f8          	mov    -0x8(%rbp),%rax
    9900:	48 8d 14 c5 00 00 00 	lea    0x0(,%rax,8),%rdx
    9907:	00 
    9908:	48 8b 4d e8          	mov    -0x18(%rbp),%rcx
    990c:	48 8b 45 d8          	mov    -0x28(%rbp),%rax
    9910:	48 89 ce             	mov    %rcx,%rsi
    9913:	48 89 c7             	mov    %rax,%rdi
    9916:	e8 e5 82 ff ff       	callq  1c00 <memmove@plt>
    991b:	48 8b 45 f8          	mov    -0x8(%rbp),%rax
    991f:	48 8d 14 c5 00 00 00 	lea    0x0(,%rax,8),%rdx
    9926:	00 
    9927:	48 8b 45 d8          	mov    -0x28(%rbp),%rax
    992b:	48 01 d0             	add    %rdx,%rax
    992e:	c9                   	leaveq 
    992f:	c3                   	retq   

0000000000009930 <_ZNSt10_Head_baseILm1ESt14default_deleteINSt6thread6_StateEELb1EEC1Ev>:
    9930:	55                   	push   %rbp
    9931:	48 89 e5             	mov    %rsp,%rbp
    9934:	48 89 7d f8          	mov    %rdi,-0x8(%rbp)
    9938:	90                   	nop
    9939:	5d                   	pop    %rbp
    993a:	c3                   	retq   

000000000000993b <_ZNSt10_Head_baseILm1ESt14default_deleteINSt6thread6_StateEELb1EE7_M_headERS4_>:
    993b:	55                   	push   %rbp
    993c:	48 89 e5             	mov    %rsp,%rbp
    993f:	48 89 7d f8          	mov    %rdi,-0x8(%rbp)
    9943:	48 8b 45 f8          	mov    -0x8(%rbp),%rax
    9947:	5d                   	pop    %rbp
    9948:	c3                   	retq   
    9949:	90                   	nop

000000000000994a <_ZNSt6thread11_State_implINS_8_InvokerISt5tupleIJPFPvS3_EP10arg_structIiiEEEEEED1Ev>:
    994a:	55                   	push   %rbp
    994b:	48 89 e5             	mov    %rsp,%rbp
    994e:	48 83 ec 10          	sub    $0x10,%rsp
    9952:	48 89 7d f8          	mov    %rdi,-0x8(%rbp)
    9956:	48 8d 15 93 51 20 00 	lea    0x205193(%rip),%rdx        # 20eaf0 <_ZTVNSt6thread11_State_implINS_8_InvokerISt5tupleIJPFPvS3_EP10arg_structIiiEEEEEEE+0x10>
    995d:	48 8b 45 f8          	mov    -0x8(%rbp),%rax
    9961:	48 89 10             	mov    %rdx,(%rax)
    9964:	48 8b 45 f8          	mov    -0x8(%rbp),%rax
    9968:	48 89 c7             	mov    %rax,%rdi
    996b:	e8 00 81 ff ff       	callq  1a70 <_ZNSt6thread6_StateD2Ev@plt>
    9970:	90                   	nop
    9971:	c9                   	leaveq 
    9972:	c3                   	retq   
    9973:	90                   	nop

0000000000009974 <_ZNSt6thread11_State_implINS_8_InvokerISt5tupleIJPFPvS3_EP10arg_structIiiEEEEEED0Ev>:
    9974:	55                   	push   %rbp
    9975:	48 89 e5             	mov    %rsp,%rbp
    9978:	48 83 ec 10          	sub    $0x10,%rsp
    997c:	48 89 7d f8          	mov    %rdi,-0x8(%rbp)
    9980:	48 8b 45 f8          	mov    -0x8(%rbp),%rax
    9984:	48 89 c7             	mov    %rax,%rdi
    9987:	e8 be ff ff ff       	callq  994a <_ZNSt6thread11_State_implINS_8_InvokerISt5tupleIJPFPvS3_EP10arg_structIiiEEEEEED1Ev>
    998c:	48 8b 45 f8          	mov    -0x8(%rbp),%rax
    9990:	be 18 00 00 00       	mov    $0x18,%esi
    9995:	48 89 c7             	mov    %rax,%rdi
    9998:	e8 d3 81 ff ff       	callq  1b70 <_ZdlPvm@plt>
    999d:	c9                   	leaveq 
    999e:	c3                   	retq   
    999f:	90                   	nop

00000000000099a0 <_ZNSt6thread11_State_implINS_8_InvokerISt5tupleIJPFPvS3_EP10arg_structIiiEEEEEE6_M_runEv>:
    99a0:	55                   	push   %rbp
    99a1:	48 89 e5             	mov    %rsp,%rbp
    99a4:	48 83 ec 10          	sub    $0x10,%rsp
    99a8:	48 89 7d f8          	mov    %rdi,-0x8(%rbp)
    99ac:	48 8b 45 f8          	mov    -0x8(%rbp),%rax
    99b0:	48 83 c0 08          	add    $0x8,%rax
    99b4:	48 89 c7             	mov    %rax,%rdi
    99b7:	e8 04 00 00 00       	callq  99c0 <_ZNSt6thread8_InvokerISt5tupleIJPFPvS2_EP10arg_structIiiEEEEclEv>
    99bc:	90                   	nop
    99bd:	c9                   	leaveq 
    99be:	c3                   	retq   
    99bf:	90                   	nop

00000000000099c0 <_ZNSt6thread8_InvokerISt5tupleIJPFPvS2_EP10arg_structIiiEEEEclEv>:
    99c0:	55                   	push   %rbp
    99c1:	48 89 e5             	mov    %rsp,%rbp
    99c4:	48 83 ec 10          	sub    $0x10,%rsp
    99c8:	48 89 7d f8          	mov    %rdi,-0x8(%rbp)
    99cc:	48 8b 45 f8          	mov    -0x8(%rbp),%rax
    99d0:	48 89 c7             	mov    %rax,%rdi
    99d3:	e8 02 00 00 00       	callq  99da <_ZNSt6thread8_InvokerISt5tupleIJPFPvS2_EP10arg_structIiiEEEE9_M_invokeIJLm0ELm1EEEES2_St12_Index_tupleIJXspT_EEE>
    99d8:	c9                   	leaveq 
    99d9:	c3                   	retq   

00000000000099da <_ZNSt6thread8_InvokerISt5tupleIJPFPvS2_EP10arg_structIiiEEEE9_M_invokeIJLm0ELm1EEEES2_St12_Index_tupleIJXspT_EEE>:
    99da:	55                   	push   %rbp
    99db:	48 89 e5             	mov    %rsp,%rbp
    99de:	53                   	push   %rbx
    99df:	48 83 ec 18          	sub    $0x18,%rsp
    99e3:	48 89 7d e8          	mov    %rdi,-0x18(%rbp)
    99e7:	48 8b 45 e8          	mov    -0x18(%rbp),%rax
    99eb:	48 89 c7             	mov    %rax,%rdi
    99ee:	e8 31 00 00 00       	callq  9a24 <_ZSt4moveIRSt5tupleIJPFPvS1_EP10arg_structIiiEEEEONSt16remove_referenceIT_E4typeEOSA_>
    99f3:	48 89 c7             	mov    %rax,%rdi
    99f6:	e8 59 00 00 00       	callq  9a54 <_ZSt3getILm1EJPFPvS0_EP10arg_structIiiEEEONSt13tuple_elementIXT_ESt5tupleIJDpT0_EEE4typeEOSA_>
    99fb:	48 89 c3             	mov    %rax,%rbx
    99fe:	48 8b 45 e8          	mov    -0x18(%rbp),%rax
    9a02:	48 89 c7             	mov    %rax,%rdi
    9a05:	e8 1a 00 00 00       	callq  9a24 <_ZSt4moveIRSt5tupleIJPFPvS1_EP10arg_structIiiEEEEONSt16remove_referenceIT_E4typeEOSA_>
    9a0a:	48 89 c7             	mov    %rax,%rdi
    9a0d:	e8 20 00 00 00       	callq  9a32 <_ZSt3getILm0EJPFPvS0_EP10arg_structIiiEEEONSt13tuple_elementIXT_ESt5tupleIJDpT0_EEE4typeEOSA_>
    9a12:	48 89 de             	mov    %rbx,%rsi
    9a15:	48 89 c7             	mov    %rax,%rdi
    9a18:	e8 59 00 00 00       	callq  9a76 <_ZSt8__invokeIPFPvS0_EJP10arg_structIiiEEENSt15__invoke_resultIT_JDpT0_EE4typeEOS7_DpOS8_>
    9a1d:	48 83 c4 18          	add    $0x18,%rsp
    9a21:	5b                   	pop    %rbx
    9a22:	5d                   	pop    %rbp
    9a23:	c3                   	retq   

0000000000009a24 <_ZSt4moveIRSt5tupleIJPFPvS1_EP10arg_structIiiEEEEONSt16remove_referenceIT_E4typeEOSA_>:
    9a24:	55                   	push   %rbp
    9a25:	48 89 e5             	mov    %rsp,%rbp
    9a28:	48 89 7d f8          	mov    %rdi,-0x8(%rbp)
    9a2c:	48 8b 45 f8          	mov    -0x8(%rbp),%rax
    9a30:	5d                   	pop    %rbp
    9a31:	c3                   	retq   

0000000000009a32 <_ZSt3getILm0EJPFPvS0_EP10arg_structIiiEEEONSt13tuple_elementIXT_ESt5tupleIJDpT0_EEE4typeEOSA_>:
    9a32:	55                   	push   %rbp
    9a33:	48 89 e5             	mov    %rsp,%rbp
    9a36:	48 83 ec 10          	sub    $0x10,%rsp
    9a3a:	48 89 7d f8          	mov    %rdi,-0x8(%rbp)
    9a3e:	48 8b 45 f8          	mov    -0x8(%rbp),%rax
    9a42:	48 89 c7             	mov    %rax,%rdi
    9a45:	e8 6a 00 00 00       	callq  9ab4 <_ZSt3getILm0EJPFPvS0_EP10arg_structIiiEEERNSt13tuple_elementIXT_ESt5tupleIJDpT0_EEE4typeERSA_>
    9a4a:	48 89 c7             	mov    %rax,%rdi
    9a4d:	e8 7c 00 00 00       	callq  9ace <_ZSt7forwardIOPFPvS0_EEOT_RNSt16remove_referenceIS4_E4typeE>
    9a52:	c9                   	leaveq 
    9a53:	c3                   	retq   

0000000000009a54 <_ZSt3getILm1EJPFPvS0_EP10arg_structIiiEEEONSt13tuple_elementIXT_ESt5tupleIJDpT0_EEE4typeEOSA_>:
    9a54:	55                   	push   %rbp
    9a55:	48 89 e5             	mov    %rsp,%rbp
    9a58:	48 83 ec 10          	sub    $0x10,%rsp
    9a5c:	48 89 7d f8          	mov    %rdi,-0x8(%rbp)
    9a60:	48 8b 45 f8          	mov    -0x8(%rbp),%rax
    9a64:	48 89 c7             	mov    %rax,%rdi
    9a67:	e8 70 00 00 00       	callq  9adc <_ZSt3getILm1EJPFPvS0_EP10arg_structIiiEEERNSt13tuple_elementIXT_ESt5tupleIJDpT0_EEE4typeERSA_>
    9a6c:	48 89 c7             	mov    %rax,%rdi
    9a6f:	e8 82 00 00 00       	callq  9af6 <_ZSt7forwardIOP10arg_structIiiEEOT_RNSt16remove_referenceIS4_E4typeE>
    9a74:	c9                   	leaveq 
    9a75:	c3                   	retq   

0000000000009a76 <_ZSt8__invokeIPFPvS0_EJP10arg_structIiiEEENSt15__invoke_resultIT_JDpT0_EE4typeEOS7_DpOS8_>:
    9a76:	55                   	push   %rbp
    9a77:	48 89 e5             	mov    %rsp,%rbp
    9a7a:	53                   	push   %rbx
    9a7b:	48 83 ec 18          	sub    $0x18,%rsp
    9a7f:	48 89 7d e8          	mov    %rdi,-0x18(%rbp)
    9a83:	48 89 75 e0          	mov    %rsi,-0x20(%rbp)
    9a87:	48 8b 45 e0          	mov    -0x20(%rbp),%rax
    9a8b:	48 89 c7             	mov    %rax,%rdi
    9a8e:	e8 9f eb ff ff       	callq  8632 <_ZSt7forwardIP10arg_structIiiEEOT_RNSt16remove_referenceIS3_E4typeE>
    9a93:	48 89 c3             	mov    %rax,%rbx
    9a96:	48 8b 45 e8          	mov    -0x18(%rbp),%rax
    9a9a:	48 89 c7             	mov    %rax,%rdi
    9a9d:	e8 3c fa ff ff       	callq  94de <_ZSt7forwardIPFPvS0_EEOT_RNSt16remove_referenceIS3_E4typeE>
    9aa2:	48 89 de             	mov    %rbx,%rsi
    9aa5:	48 89 c7             	mov    %rax,%rdi
    9aa8:	e8 57 00 00 00       	callq  9b04 <_ZSt13__invoke_implIPvPFS0_S0_EJP10arg_structIiiEEET_St14__invoke_otherOT0_DpOT1_>
    9aad:	48 83 c4 18          	add    $0x18,%rsp
    9ab1:	5b                   	pop    %rbx
    9ab2:	5d                   	pop    %rbp
    9ab3:	c3                   	retq   

0000000000009ab4 <_ZSt3getILm0EJPFPvS0_EP10arg_structIiiEEERNSt13tuple_elementIXT_ESt5tupleIJDpT0_EEE4typeERSA_>:
    9ab4:	55                   	push   %rbp
    9ab5:	48 89 e5             	mov    %rsp,%rbp
    9ab8:	48 83 ec 10          	sub    $0x10,%rsp
    9abc:	48 89 7d f8          	mov    %rdi,-0x8(%rbp)
    9ac0:	48 8b 45 f8          	mov    -0x8(%rbp),%rax
    9ac4:	48 89 c7             	mov    %rax,%rdi
    9ac7:	e8 73 00 00 00       	callq  9b3f <_ZSt12__get_helperILm0EPFPvS0_EJP10arg_structIiiEEERT0_RSt11_Tuple_implIXT_EJS6_DpT1_EE>
    9acc:	c9                   	leaveq 
    9acd:	c3                   	retq   

0000000000009ace <_ZSt7forwardIOPFPvS0_EEOT_RNSt16remove_referenceIS4_E4typeE>:
    9ace:	55                   	push   %rbp
    9acf:	48 89 e5             	mov    %rsp,%rbp
    9ad2:	48 89 7d f8          	mov    %rdi,-0x8(%rbp)
    9ad6:	48 8b 45 f8          	mov    -0x8(%rbp),%rax
    9ada:	5d                   	pop    %rbp
    9adb:	c3                   	retq   

0000000000009adc <_ZSt3getILm1EJPFPvS0_EP10arg_structIiiEEERNSt13tuple_elementIXT_ESt5tupleIJDpT0_EEE4typeERSA_>:
    9adc:	55                   	push   %rbp
    9add:	48 89 e5             	mov    %rsp,%rbp
    9ae0:	48 83 ec 10          	sub    $0x10,%rsp
    9ae4:	48 89 7d f8          	mov    %rdi,-0x8(%rbp)
    9ae8:	48 8b 45 f8          	mov    -0x8(%rbp),%rax
    9aec:	48 89 c7             	mov    %rax,%rdi
    9aef:	e8 65 00 00 00       	callq  9b59 <_ZSt12__get_helperILm1EP10arg_structIiiEJEERT0_RSt11_Tuple_implIXT_EJS3_DpT1_EE>
    9af4:	c9                   	leaveq 
    9af5:	c3                   	retq   

0000000000009af6 <_ZSt7forwardIOP10arg_structIiiEEOT_RNSt16remove_referenceIS4_E4typeE>:
    9af6:	55                   	push   %rbp
    9af7:	48 89 e5             	mov    %rsp,%rbp
    9afa:	48 89 7d f8          	mov    %rdi,-0x8(%rbp)
    9afe:	48 8b 45 f8          	mov    -0x8(%rbp),%rax
    9b02:	5d                   	pop    %rbp
    9b03:	c3                   	retq   

0000000000009b04 <_ZSt13__invoke_implIPvPFS0_S0_EJP10arg_structIiiEEET_St14__invoke_otherOT0_DpOT1_>:
    9b04:	55                   	push   %rbp
    9b05:	48 89 e5             	mov    %rsp,%rbp
    9b08:	53                   	push   %rbx
    9b09:	48 83 ec 18          	sub    $0x18,%rsp
    9b0d:	48 89 7d e8          	mov    %rdi,-0x18(%rbp)
    9b11:	48 89 75 e0          	mov    %rsi,-0x20(%rbp)
    9b15:	48 8b 45 e8          	mov    -0x18(%rbp),%rax
    9b19:	48 89 c7             	mov    %rax,%rdi
    9b1c:	e8 bd f9 ff ff       	callq  94de <_ZSt7forwardIPFPvS0_EEOT_RNSt16remove_referenceIS3_E4typeE>
    9b21:	48 8b 18             	mov    (%rax),%rbx
    9b24:	48 8b 45 e0          	mov    -0x20(%rbp),%rax
    9b28:	48 89 c7             	mov    %rax,%rdi
    9b2b:	e8 02 eb ff ff       	callq  8632 <_ZSt7forwardIP10arg_structIiiEEOT_RNSt16remove_referenceIS3_E4typeE>
    9b30:	48 8b 00             	mov    (%rax),%rax
    9b33:	48 89 c7             	mov    %rax,%rdi
    9b36:	ff d3                	callq  *%rbx
    9b38:	48 83 c4 18          	add    $0x18,%rsp
    9b3c:	5b                   	pop    %rbx
    9b3d:	5d                   	pop    %rbp
    9b3e:	c3                   	retq   

0000000000009b3f <_ZSt12__get_helperILm0EPFPvS0_EJP10arg_structIiiEEERT0_RSt11_Tuple_implIXT_EJS6_DpT1_EE>:
    9b3f:	55                   	push   %rbp
    9b40:	48 89 e5             	mov    %rsp,%rbp
    9b43:	48 83 ec 10          	sub    $0x10,%rsp
    9b47:	48 89 7d f8          	mov    %rdi,-0x8(%rbp)
    9b4b:	48 8b 45 f8          	mov    -0x8(%rbp),%rax
    9b4f:	48 89 c7             	mov    %rax,%rdi
    9b52:	e8 69 f9 ff ff       	callq  94c0 <_ZNSt11_Tuple_implILm0EJPFPvS0_EP10arg_structIiiEEE7_M_headERS6_>
    9b57:	c9                   	leaveq 
    9b58:	c3                   	retq   

0000000000009b59 <_ZSt12__get_helperILm1EP10arg_structIiiEJEERT0_RSt11_Tuple_implIXT_EJS3_DpT1_EE>:
    9b59:	55                   	push   %rbp
    9b5a:	48 89 e5             	mov    %rsp,%rbp
    9b5d:	48 83 ec 10          	sub    $0x10,%rsp
    9b61:	48 89 7d f8          	mov    %rdi,-0x8(%rbp)
    9b65:	48 8b 45 f8          	mov    -0x8(%rbp),%rax
    9b69:	48 89 c7             	mov    %rax,%rdi
    9b6c:	e8 72 fb ff ff       	callq  96e3 <_ZNSt11_Tuple_implILm1EJP10arg_structIiiEEE7_M_headERS3_>
    9b71:	c9                   	leaveq 
    9b72:	c3                   	retq   
    9b73:	66 2e 0f 1f 84 00 00 	nopw   %cs:0x0(%rax,%rax,1)
    9b7a:	00 00 00 
    9b7d:	0f 1f 00             	nopl   (%rax)

0000000000009b80 <__libc_csu_init>:
    9b80:	41 57                	push   %r15
    9b82:	41 56                	push   %r14
    9b84:	49 89 d7             	mov    %rdx,%r15
    9b87:	41 55                	push   %r13
    9b89:	41 54                	push   %r12
    9b8b:	4c 8d 25 36 4f 20 00 	lea    0x204f36(%rip),%r12        # 20eac8 <__frame_dummy_init_array_entry>
    9b92:	55                   	push   %rbp
    9b93:	48 8d 2d 3e 4f 20 00 	lea    0x204f3e(%rip),%rbp        # 20ead8 <__init_array_end>
    9b9a:	53                   	push   %rbx
    9b9b:	41 89 fd             	mov    %edi,%r13d
    9b9e:	49 89 f6             	mov    %rsi,%r14
    9ba1:	4c 29 e5             	sub    %r12,%rbp
    9ba4:	48 83 ec 08          	sub    $0x8,%rsp
    9ba8:	48 c1 fd 03          	sar    $0x3,%rbp
    9bac:	e8 37 7e ff ff       	callq  19e8 <_init>
    9bb1:	48 85 ed             	test   %rbp,%rbp
    9bb4:	74 20                	je     9bd6 <__libc_csu_init+0x56>
    9bb6:	31 db                	xor    %ebx,%ebx
    9bb8:	0f 1f 84 00 00 00 00 	nopl   0x0(%rax,%rax,1)
    9bbf:	00 
    9bc0:	4c 89 fa             	mov    %r15,%rdx
    9bc3:	4c 89 f6             	mov    %r14,%rsi
    9bc6:	44 89 ef             	mov    %r13d,%edi
    9bc9:	41 ff 14 dc          	callq  *(%r12,%rbx,8)
    9bcd:	48 83 c3 01          	add    $0x1,%rbx
    9bd1:	48 39 dd             	cmp    %rbx,%rbp
    9bd4:	75 ea                	jne    9bc0 <__libc_csu_init+0x40>
    9bd6:	48 83 c4 08          	add    $0x8,%rsp
    9bda:	5b                   	pop    %rbx
    9bdb:	5d                   	pop    %rbp
    9bdc:	41 5c                	pop    %r12
    9bde:	41 5d                	pop    %r13
    9be0:	41 5e                	pop    %r14
    9be2:	41 5f                	pop    %r15
    9be4:	c3                   	retq   
    9be5:	90                   	nop
    9be6:	66 2e 0f 1f 84 00 00 	nopw   %cs:0x0(%rax,%rax,1)
    9bed:	00 00 00 

0000000000009bf0 <__libc_csu_fini>:
    9bf0:	f3 c3                	repz retq 

Disassembly of section .fini:

0000000000009bf4 <_fini>:
    9bf4:	48 83 ec 08          	sub    $0x8,%rsp
    9bf8:	48 83 c4 08          	add    $0x8,%rsp
    9bfc:	c3                   	retq   
